(lp0
(dp1
S'junicomm'
p2
(lp3
VDutchess (027)
p4
aVYates (123)
p5
aVGreene (039)
p6
aVSchenectady (093)
p7
aVMonroe (089)
p8
aVOnondaga (067)
p9
aVColumbia (021)
p10
aVAlbany (001)
p11
aVWashington (115)
p12
aVBedford (009)
p13
aVTompkins (109)
p14
aVWarren (041)
p15
aVLebanon (075)
p16
aVChester (029)
p17
aVWarren (113)
p18
aVSchuylkill (107)
p19
aVMonroe (055)
p20
aVRensselaer (083)
p21
aVBradford (015)
p22
aVSaratoga (091)
p23
aVBerks (011)
p24
aVMontgomery (057)
p25
aVMontgomery (091)
p26
aVJefferson (045)
p27
aVUlster (111)
p28
aVFulton (035)
p29
aVEssex (031)
p30
aVLancaster (071)
p31
aVNorthampton (095)
p32
aVDauphin (043)
p33
asS'popuariz'
p34
(lp35
sS'amyrbals'
p36
(lp37
sS'kalmlati'
p38
(lp39
g4
aVWyoming (131)
p40
ag6
ag7
ag8
aVSteuben (101)
p41
aVPerry (099)
p42
aVButler (019)
p43
aVAdams (001)
p44
aVForest (053)
p45
aVElk (047)
p46
aVJefferson (065)
p47
aVLycoming (081)
p48
aVMifflin (087)
p49
aVMontour (093)
p50
aVCamden (007)
p51
aVTioga (117)
p52
aVUnion (119)
p53
aVClinton (035)
p54
aVColumbia (037)
p55
ag10
ag11
aVSusquehanna (115)
p56
aVHoward (027)
p57
aVEssex (013)
p58
aVCambria (021)
p59
aVNew York (061)
p60
aVRockland (087)
p61
ag13
aVGloucester (015)
p62
aVLuzerne (079)
p63
aVDelaware (045)
p64
aVSullivan (113)
p65
aVFulton (057)
p66
aVBroome (007)
p67
aVWayne (117)
p68
aVCarroll (013)
p69
aVWestmoreland (129)
p70
ag14
aVMiddlesex (023)
p71
aVCharles (017)
p72
aVIndiana (063)
p73
aVArmstrong (005)
p74
aVHudson (017)
p75
aVWorcester (047)
p76
aVSalem (033)
p77
aVSuffolk (103)
p78
aVBaltimore (510)
p79
aVDelaware (025)
p80
aVSchuyler (097)
p81
aVAllegany (001)
p82
aVMcKean (083)
p83
ag15
ag16
aVCaroline (011)
p84
ag17
aVBaltimore (005)
p85
aVDorchester (019)
p86
aVKent (029)
p87
aVMontgomery (031)
p88
aVBlair (013)
p89
aVNew Castle (003)
p90
ag18
aVCumberland (041)
p91
aVHunterdon (019)
p92
aVBurlington (005)
p93
aVWashington (125)
p94
ag19
aVHuntingdon (061)
p95
aVKings (047)
p96
aVPotter (105)
p97
aVSnyder (109)
p98
aVSomerset (035)
p99
aVSomerset (111)
p100
aVQueens (081)
p101
aVUnion (039)
p102
aVWestchester (119)
p103
ag21
aVCumberland (011)
p104
aVYork (133)
p105
aVAllegheny (003)
p106
aVRichmond (085)
p107
aVSomerset (039)
p108
aVBergen (003)
p109
aVWashington (043)
p110
aVWicomico (045)
p111
aVWayne (127)
p112
aVOtsego (077)
p113
ag22
aVBucks (017)
p114
aVPike (103)
p115
ag23
aVCarbon (025)
p116
aVCalvert (009)
p117
aVSullivan (105)
p118
aVQueen Anne's (035)
p119
aVKent (001)
p120
aVSussex (037)
p121
aVCattaraugus (009)
p122
aVSussex (005)
p123
aVAtlantic (001)
p124
aVPhiladelphia (101)
p125
aVCameron (023)
p126
aVOcean (029)
p127
aVMorris (027)
p128
aVSt. Mary's (037)
p129
ag24
aVNorthumberland (097)
p130
aVCentre (027)
p131
aVCape May (009)
p132
aVMonmouth (025)
p133
aVTioga (107)
p134
ag26
aVLehigh (077)
p135
aVAnne Arundel (003)
p136
aVLackawanna (069)
p137
aVHarford (025)
p138
aVClearfield (033)
p139
aVClarion (031)
p140
aVLawrence (073)
p141
aVVenango (121)
p142
aVNassau (059)
p143
ag28
aVFrederick (021)
p144
aVBronx (005)
p145
aVOneida (065)
p146
aVOrange (071)
p147
ag31
aVPrince George's (033)
p148
ag32
aVGarrett (023)
p149
ag33
aVTalbot (041)
p150
aVMercer (021)
p151
aVChemung (015)
p152
aVJuniata (067)
p153
aVPassaic (031)
p154
aVErie (049)
p155
asS'zantflav'
p156
(lp157
sS'cornrugo'
p158
(lp159
g4
aVOrleans (073)
p160
aVOntario (069)
p161
ag5
ag40
aVGenesee (037)
p162
ag7
ag8
ag41
ag42
ag9
ag45
ag46
ag48
ag49
ag50
ag52
ag53
ag54
ag55
ag10
aVSt. Lawrence (089)
p163
ag11
aVFranklin (033)
p164
ag12
aVSeneca (099)
p165
aVClinton (019)
p166
ag61
ag13
ag63
ag65
ag68
ag14
aVHerkimer (043)
p167
ag79
aVErie (029)
p168
ag81
aVLivingston (051)
p169
ag83
ag18
ag92
ag19
ag20
ag97
ag98
ag100
ag102
ag103
ag21
aVCayuga (011)
p170
ag112
ag113
aVHamilton (041)
p171
ag22
ag114
ag115
ag23
ag116
aVLewis (049)
p172
aVAllegany (003)
p173
ag122
aVNiagara (063)
p174
ag24
ag25
ag130
ag131
ag135
aVChenango (017)
p175
ag137
aVMadison (053)
p176
ag27
ag29
ag30
ag145
aVOswego (075)
p177
ag146
ag31
aVWyoming (121)
p178
ag32
ag152
ag153
ag155
asS'persborb'
p179
(lp180
sS'pithguad'
p181
(lp182
sS'alnurugo'
p183
(lp184
g4
ag160
aVWarren (123)
p185
ag161
ag5
ag40
ag162
ag6
ag7
ag8
ag41
ag9
ag45
ag46
ag47
ag48
ag52
ag54
ag55
ag10
ag163
aVCortland (023)
p186
ag11
ag164
ag12
ag165
aVSchoharie (095)
p187
ag56
ag58
ag59
ag166
ag60
ag61
ag13
ag63
ag65
ag67
ag68
ag14
ag167
ag74
ag75
ag78
ag80
ag168
ag81
ag169
ag83
ag15
ag18
ag19
ag20
ag96
ag97
aVChautauqua (013)
p188
ag98
ag100
ag101
ag103
ag21
ag109
ag170
ag112
ag113
ag171
ag22
ag115
ag23
ag116
ag118
ag172
ag121
ag173
ag122
ag126
ag128
ag174
ag25
ag131
ag134
ag135
ag175
ag137
ag176
ag139
ag140
ag27
ag141
aVMercer (085)
p189
ag142
ag28
ag29
ag30
ag145
ag177
ag146
ag147
ag178
ag32
ag149
ag152
ag154
ag155
asS'chamthyo'
p190
(lp191
g4
ag51
ag58
ag60
ag61
ag62
ag71
ag75
ag76
ag77
ag78
ag84
ag93
ag96
ag101
ag102
ag103
ag104
ag107
ag108
ag109
ag111
ag120
ag121
ag123
ag124
ag127
ag132
ag133
ag143
ag145
ag147
ag154
asS'bursfaga'
p192
(lp193
sS'fraxtexe'
p194
(lp195
sS'tremmicr'
p196
(lp197
sS'quergamb'
p198
(lp199
sS'pinuglab'
p200
(lp201
sS'juniscop'
p202
(lp203
sS'cratsali'
p204
(lp205
sS'juniashe'
p206
(lp207
sS'alnusinu'
p208
(lp209
sS'fraxcusp'
p210
(lp211
sS'planaqua'
p212
(lp213
sS'cuprbake'
p214
(lp215
sS'stewmala'
p216
(lp217
sS'illiparv'
p218
(lp219
sS'ilexkrug'
p220
(lp221
sS'morurubr'
p222
(lp223
g4
ag161
ag5
ag40
ag162
ag42
ag9
ag44
ag49
ag51
ag10
ag57
ag58
ag60
ag61
ag13
ag62
ag64
ag66
ag69
ag14
ag71
ag72
ag75
ag76
ag77
ag78
ag79
ag82
ag15
ag16
ag84
ag17
ag85
ag86
ag87
ag88
ag89
ag90
ag91
ag92
ag93
ag94
ag95
ag96
ag98
ag99
ag101
ag102
ag104
ag105
ag106
ag108
ag109
ag110
ag111
ag114
ag117
ag119
ag120
ag121
ag123
ag124
ag125
ag127
ag128
ag129
ag24
ag131
ag132
ag133
ag26
ag135
ag136
ag137
ag176
ag138
ag143
ag144
ag145
ag31
ag148
ag33
ag150
ag151
ag153
ag154
asS'vibuprun'
p224
(lp225
g4
ag42
ag44
ag49
ag50
ag51
ag55
ag57
ag58
ag59
ag60
ag61
ag13
ag62
ag64
ag66
ag69
ag70
ag71
ag72
ag73
ag75
ag76
ag77
ag79
ag82
ag15
ag16
ag84
ag17
ag85
ag86
ag87
ag88
ag89
ag90
ag91
ag92
ag93
ag94
ag95
ag96
ag98
ag99
ag100
ag102
ag103
ag104
ag105
ag106
ag107
ag108
ag109
ag110
ag111
ag114
ag116
ag117
ag119
ag120
ag121
ag123
ag124
ag125
ag127
ag128
ag129
ag24
ag130
ag131
ag132
ag133
ag26
ag135
ag136
ag138
ag141
ag144
ag145
ag147
ag31
ag148
ag32
ag149
ag33
ag150
ag151
ag153
ag154
asS'rhuslaur'
p226
(lp227
sS'rhuscopa'
p228
(lp229
g4
ag160
ag8
ag42
ag43
ag44
ag45
ag46
ag47
ag48
ag49
ag50
ag51
ag53
ag54
ag55
ag10
ag11
ag57
ag58
ag59
ag60
ag61
ag13
ag62
ag63
ag64
ag66
ag67
ag69
ag70
ag14
ag71
ag72
ag73
ag74
ag75
ag76
ag77
ag78
ag79
ag82
ag83
ag15
ag16
ag84
ag17
ag85
ag86
ag87
ag88
ag89
ag90
ag91
ag92
ag93
ag94
ag19
ag95
ag96
ag97
ag98
ag99
ag100
ag101
ag102
ag103
ag104
ag105
ag106
ag107
ag108
ag109
ag110
ag111
ag112
ag114
ag115
ag23
ag116
ag117
ag118
ag119
ag120
ag121
ag123
ag124
ag125
ag126
ag127
ag128
ag129
ag24
ag130
ag131
ag132
ag133
ag26
ag135
ag136
ag137
ag138
ag139
ag140
ag143
ag144
ag145
ag177
ag147
ag31
ag148
ag32
ag149
ag33
ag150
ag151
ag153
ag154
asS'ximeamer'
p230
(lp231
sS'nyssogec'
p232
(lp233
sS'pinuocci'
p234
(lp235
sS'prunalle'
p236
(lp237
g13
ag70
ag82
ag89
ag139
asS'castozar'
p238
(lp239
sS'exotpani'
p240
(lp241
sS'querwisl'
p242
(lp243
sS'aesccali'
p244
(lp245
sS'thujocci'
p246
(lp247
g4
ag160
ag161
ag5
ag162
ag7
ag9
ag163
ag186
ag11
ag164
ag12
ag165
ag166
ag68
ag14
ag167
ag74
ag168
ag169
ag18
ag20
ag170
ag171
ag23
ag172
ag174
ag25
ag176
ag27
ag28
ag29
ag30
ag177
ag146
ag147
asS'juglmajo'
p248
(lp249
sS'gledtria'
p250
(lp251
g43
ag49
ag50
ag53
ag59
ag13
ag70
ag74
ag82
ag89
ag94
ag95
ag98
ag100
ag106
ag130
ag131
ag140
ag149
ag153
asS'prunpens'
p252
(lp253
g4
ag160
ag185
ag161
ag5
ag40
ag162
ag6
ag7
ag8
ag41
ag42
ag9
ag45
ag46
ag47
ag48
ag49
ag50
ag52
ag53
ag54
ag55
ag10
ag163
ag186
ag11
ag164
ag12
ag165
ag187
ag56
ag59
ag166
ag60
ag61
ag13
ag63
ag65
ag66
ag67
ag68
ag14
ag73
ag167
ag74
ag75
ag78
ag80
ag168
ag81
ag169
ag82
ag83
ag15
ag89
ag18
ag91
ag92
ag19
ag20
ag95
ag96
ag97
ag188
ag98
ag100
ag101
ag103
ag21
ag107
ag109
ag170
ag112
ag113
ag171
ag22
ag115
ag23
ag116
ag118
ag172
ag121
ag173
ag122
ag126
ag128
ag174
ag24
ag25
ag130
ag131
ag134
ag26
ag135
ag175
ag137
ag176
ag139
ag140
ag27
ag189
ag142
ag143
ag28
ag29
ag30
ag145
ag177
ag146
ag147
ag178
ag32
ag149
ag152
ag153
ag154
ag155
asS'hamavirg'
p254
(lp255
g4
ag160
ag185
ag161
ag5
ag40
ag162
ag6
ag7
ag8
ag41
ag42
ag43
ag9
ag44
ag45
ag46
ag47
ag48
ag49
ag50
ag51
ag52
ag53
ag54
ag55
ag10
ag163
ag186
ag11
ag164
ag12
ag165
ag187
ag56
ag57
ag58
ag59
ag166
ag60
ag61
ag13
ag62
ag63
ag64
ag65
ag66
ag67
ag68
ag69
ag70
ag14
ag71
ag72
ag73
ag167
ag74
ag75
ag76
ag77
ag78
ag79
ag80
ag168
ag81
ag169
ag82
ag83
ag15
ag16
ag84
ag17
ag85
ag86
ag87
ag88
ag89
ag90
ag18
ag91
ag92
ag93
ag94
ag19
ag20
ag95
ag96
ag97
ag188
ag98
ag99
ag100
ag101
ag102
ag103
ag21
ag104
ag105
ag106
ag107
ag108
ag109
ag170
ag110
ag111
ag112
ag113
ag171
ag22
ag114
ag115
ag23
ag116
ag117
ag118
ag119
ag120
ag172
ag121
ag173
ag122
ag123
ag125
ag126
ag128
ag129
ag174
ag24
ag25
ag130
ag131
ag133
ag134
ag26
ag135
ag175
ag136
ag137
ag176
ag138
ag139
ag140
ag27
ag141
ag189
ag142
ag143
ag28
ag144
ag29
ag30
ag145
ag177
ag146
ag147
ag31
ag148
ag178
ag32
ag149
ag33
ag150
ag151
ag152
ag153
ag154
ag155
asS'salilasi'
p256
(lp257
sS'catabign'
p258
(lp259
sS'cercocci'
p260
(lp261
sS'carylaci'
p262
(lp263
g61
ag68
ag14
ag169
ag90
ag91
ag94
ag103
ag106
ag170
ag24
ag26
asS'salilaso'
p264
(lp265
sS'prunvirg'
p266
(lp267
g4
ag160
ag185
ag161
ag5
ag40
ag162
ag6
ag7
ag8
ag41
ag42
ag43
ag9
ag44
ag45
ag46
ag47
ag48
ag49
ag50
ag52
ag53
ag54
ag55
ag10
ag163
ag186
ag11
ag164
ag12
ag165
ag187
ag56
ag58
ag59
ag166
ag60
ag61
ag13
ag63
ag65
ag66
ag67
ag68
ag70
ag14
ag73
ag167
ag74
ag75
ag78
ag80
ag168
ag81
ag169
ag82
ag83
ag15
ag16
ag89
ag18
ag91
ag92
ag94
ag19
ag20
ag95
ag96
ag97
ag188
ag98
ag99
ag100
ag101
ag103
ag21
ag106
ag107
ag109
ag170
ag110
ag112
ag113
ag171
ag22
ag114
ag115
ag23
ag116
ag118
ag172
ag121
ag173
ag122
ag126
ag128
ag174
ag24
ag25
ag130
ag131
ag134
ag26
ag135
ag175
ag137
ag176
ag139
ag140
ag27
ag141
ag189
ag142
ag143
ag28
ag144
ag29
ag30
ag145
ag177
ag146
ag147
ag178
ag32
ag149
ag33
ag152
ag153
ag154
ag155
asS'erytherb'
p268
(lp269
sS'zantclav'
p270
(lp271
sS'magnpyra'
p272
(lp273
sS'sambmexi'
p274
(lp275
sS'fraxdipe'
p276
(lp277
sS'pinuvirg'
p278
(lp279
g42
ag44
ag49
ag50
ag51
ag53
ag54
ag57
ag60
ag13
ag62
ag63
ag64
ag66
ag69
ag71
ag72
ag76
ag77
ag79
ag82
ag15
ag16
ag84
ag17
ag85
ag86
ag87
ag88
ag90
ag91
ag92
ag93
ag19
ag95
ag96
ag98
ag99
ag101
ag104
ag105
ag106
ag107
ag108
ag110
ag111
ag114
ag116
ag117
ag119
ag120
ag123
ag124
ag125
ag127
ag129
ag24
ag130
ag131
ag132
ag133
ag26
ag135
ag136
ag138
ag143
ag144
ag31
ag148
ag149
ag33
ag150
ag151
ag153
asS'prunlyon'
p280
(lp281
sS'pinuteoc'
p282
(lp283
sS'bursmicr'
p284
(lp285
sS'gledaqua'
p286
(lp287
sS'ulmusero'
p288
(lp289
sS'fraxnigr'
p290
(lp291
g4
ag160
ag185
ag161
ag5
ag40
ag162
ag6
ag7
ag8
ag41
ag43
ag9
ag45
ag46
ag47
ag48
ag50
ag52
ag53
ag54
ag55
ag10
ag163
ag186
ag11
ag164
ag12
ag165
ag187
ag56
ag58
ag166
ag60
ag61
ag13
ag63
ag64
ag65
ag67
ag68
ag14
ag167
ag74
ag75
ag80
ag168
ag81
ag169
ag83
ag17
ag90
ag18
ag94
ag19
ag20
ag96
ag97
ag188
ag98
ag101
ag103
ag21
ag106
ag109
ag170
ag112
ag113
ag171
ag22
ag114
ag115
ag23
ag116
ag118
ag172
ag121
ag173
ag122
ag126
ag128
ag174
ag24
ag25
ag130
ag131
ag133
ag134
ag26
ag135
ag175
ag137
ag176
ag139
ag140
ag27
ag141
ag189
ag142
ag28
ag29
ag30
ag145
ag177
ag146
ag147
ag178
ag151
ag152
ag154
ag155
asS'pinupatu'
p292
(lp293
sS'juniflac'
p294
(lp295
sS'queroblo'
p296
(lp297
sS'sambcall'
p298
(lp299
sS'erytflab'
p300
(lp301
sS'prunsubc'
p302
(lp303
sS'carypall'
p304
(lp305
g120
ag132
ag144
asS'cratsucc'
p306
(lp307
sS'taxucana'
p308
(lp309
g4
ag160
ag185
ag161
ag5
ag40
ag162
ag6
ag7
ag8
ag41
ag43
ag9
ag45
ag46
ag47
ag48
ag49
ag50
ag52
ag53
ag54
ag55
ag10
ag163
ag186
ag11
ag164
ag12
ag165
ag187
ag56
ag59
ag166
ag61
ag13
ag63
ag65
ag66
ag67
ag68
ag70
ag14
ag73
ag167
ag74
ag80
ag168
ag81
ag169
ag83
ag16
ag89
ag18
ag94
ag19
ag20
ag95
ag97
ag188
ag98
ag100
ag103
ag21
ag106
ag170
ag112
ag113
ag171
ag22
ag115
ag23
ag116
ag118
ag172
ag173
ag122
ag126
ag174
ag24
ag25
ag130
ag131
ag134
ag135
ag175
ag137
ag176
ag139
ag140
ag27
ag141
ag189
ag142
ag28
ag29
ag30
ag177
ag146
ag147
ag178
ag149
ag33
ag152
ag153
ag155
asS'diosvirg'
p310
(lp311
g44
ag51
ag57
ag58
ag60
ag62
ag64
ag66
ag69
ag71
ag72
ag75
ag76
ag77
ag79
ag82
ag15
ag84
ag17
ag85
ag86
ag87
ag88
ag90
ag92
ag93
ag94
ag19
ag96
ag99
ag101
ag102
ag104
ag105
ag108
ag110
ag111
ag114
ag117
ag119
ag120
ag123
ag124
ag125
ag127
ag128
ag129
ag24
ag132
ag133
ag26
ag135
ag136
ag138
ag144
ag145
ag31
ag148
ag32
ag150
ag151
asS'dodovisc'
p312
(lp313
sS'photarbu'
p314
(lp315
sS'poputrem'
p316
(lp317
g4
ag160
ag185
ag161
ag5
ag40
ag162
ag6
ag7
ag8
ag41
ag43
ag9
ag45
ag46
ag47
ag48
ag49
ag50
ag52
ag53
ag54
ag55
ag10
ag163
ag186
ag11
ag164
ag12
ag165
ag187
ag56
ag58
ag59
ag166
ag60
ag61
ag63
ag64
ag65
ag66
ag67
ag68
ag14
ag71
ag73
ag167
ag74
ag75
ag78
ag80
ag168
ag81
ag169
ag83
ag15
ag16
ag17
ag89
ag18
ag91
ag92
ag93
ag19
ag20
ag95
ag96
ag97
ag188
ag98
ag99
ag101
ag102
ag103
ag21
ag106
ag107
ag109
ag170
ag112
ag113
ag171
ag22
ag114
ag115
ag23
ag116
ag118
ag172
ag121
ag173
ag122
ag125
ag126
ag128
ag174
ag24
ag25
ag130
ag131
ag134
ag26
ag135
ag175
ag137
ag176
ag139
ag140
ag27
ag141
ag189
ag142
ag143
ag28
ag29
ag30
ag145
ag177
ag146
ag147
ag31
ag178
ag32
ag149
ag151
ag152
ag154
ag155
asS'esenberl'
p318
(lp319
sS'pinucube'
p320
(lp321
sS'diostexa'
p322
(lp323
sS'abiegran'
p324
(lp325
sS'euonocci'
p326
(lp327
sS'rhustyph'
p328
(lp329
g4
ag160
ag185
ag161
ag5
ag40
ag162
ag6
ag7
ag8
ag41
ag42
ag43
ag9
ag45
ag46
ag47
ag48
ag49
ag50
ag52
ag53
ag54
ag55
ag10
ag163
ag186
ag11
ag164
ag12
ag165
ag187
ag56
ag57
ag59
ag166
ag60
ag61
ag13
ag63
ag64
ag65
ag66
ag67
ag68
ag70
ag14
ag73
ag167
ag74
ag78
ag80
ag168
ag81
ag169
ag82
ag83
ag16
ag17
ag88
ag89
ag18
ag91
ag94
ag19
ag20
ag95
ag96
ag97
ag188
ag98
ag100
ag101
ag103
ag21
ag105
ag106
ag107
ag170
ag110
ag112
ag113
ag171
ag22
ag114
ag115
ag23
ag116
ag172
ag173
ag122
ag125
ag126
ag174
ag24
ag25
ag130
ag131
ag134
ag26
ag135
ag175
ag136
ag137
ag176
ag138
ag139
ag140
ag27
ag141
ag189
ag142
ag143
ag144
ag29
ag30
ag145
ag177
ag146
ag31
ag148
ag178
ag32
ag149
ag33
ag150
ag152
ag153
ag155
asS'vibuobov'
p330
(lp331
sS'rhusinte'
p332
(lp333
sS'torrcali'
p334
(lp335
sS'lagurace'
p336
(lp337
sS'guaiangu'
p338
(lp339
sS'cordbois'
p340
(lp341
sS'styrplat'
p342
(lp343
sS'ilexmyrt'
p344
(lp345
sS'cataspec'
p346
(lp347
sS'amelalni'
p348
(lp349
sS'jacqkeye'
p350
(lp351
sS'salialax'
p352
(lp353
sS'guaisanc'
p354
(lp355
sS'popudelt'
p356
(lp357
g160
ag162
ag9
ag47
ag12
ag165
ag187
ag60
ag68
ag14
ag168
ag81
ag169
ag15
ag94
ag20
ag96
ag101
ag106
ag170
ag110
ag125
ag126
ag174
ag26
ag135
ag140
ag29
ag177
ag32
ag150
ag152
ag155
asS'krugferr'
p358
(lp359
sS'saligeye'
p360
(lp361
sS'pinutorr'
p362
(lp363
sS'querariz'
p364
(lp365
sS'nemocoll'
p366
(lp367
sS'quermyrt'
p368
(lp369
sS'cornstol'
p370
(lp371
g4
ag160
ag161
ag162
ag6
ag7
ag9
ag52
ag10
ag163
ag186
ag11
ag164
ag12
ag187
ag58
ag166
ag60
ag61
ag65
ag68
ag14
ag71
ag167
ag75
ag80
ag168
ag169
ag18
ag20
ag188
ag102
ag103
ag21
ag109
ag170
ag113
ag171
ag23
ag172
ag122
ag174
ag25
ag131
ag134
ag175
ag176
ag27
ag29
ag30
ag145
ag177
ag146
ag178
ag149
ag152
ag155
asS'querloba'
p372
(lp373
sS'prunilic'
p374
(lp375
sS'alnuserr'
p376
(lp377
g4
ag42
ag43
ag9
ag44
ag49
ag50
ag51
ag53
ag54
ag55
ag10
ag12
ag57
ag58
ag59
ag60
ag61
ag13
ag62
ag63
ag64
ag66
ag67
ag68
ag69
ag70
ag71
ag72
ag73
ag167
ag74
ag75
ag76
ag78
ag79
ag82
ag15
ag16
ag84
ag17
ag85
ag86
ag87
ag88
ag89
ag90
ag18
ag91
ag92
ag93
ag94
ag19
ag20
ag95
ag96
ag98
ag99
ag100
ag101
ag102
ag103
ag21
ag105
ag106
ag107
ag108
ag109
ag170
ag110
ag111
ag114
ag23
ag116
ag117
ag119
ag120
ag121
ag123
ag125
ag127
ag128
ag129
ag24
ag130
ag131
ag133
ag26
ag135
ag136
ag137
ag138
ag141
ag189
ag142
ag143
ag144
ag145
ag177
ag147
ag31
ag148
ag32
ag149
ag33
ag150
ag151
ag153
ag154
asS'piceenge'
p378
(lp379
sS'coccarge'
p380
(lp381
sS'piceglau'
p382
(lp383
g164
ag166
ag167
ag171
ag27
ag30
asS'abieconc'
p384
(lp385
sS'tsugmert'
p386
(lp387
sS'maludive'
p388
(lp389
sS'celttenu'
p390
(lp391
g82
asS'queralba'
p392
(lp393
g4
ag160
ag185
ag161
ag5
ag40
ag162
ag6
ag7
ag8
ag41
ag42
ag43
ag9
ag44
ag45
ag46
ag47
ag48
ag49
ag50
ag51
ag52
ag53
ag54
ag55
ag10
ag163
ag186
ag11
ag164
ag12
ag165
ag187
ag56
ag57
ag58
ag59
ag166
ag60
ag61
ag13
ag62
ag63
ag64
ag65
ag66
ag67
ag68
ag69
ag70
ag14
ag71
ag72
ag73
ag167
ag74
ag75
ag76
ag77
ag78
ag79
ag80
ag168
ag81
ag169
ag82
ag83
ag15
ag16
ag84
ag17
ag85
ag86
ag87
ag88
ag89
ag90
ag18
ag91
ag92
ag93
ag94
ag19
ag20
ag95
ag96
ag97
ag188
ag98
ag99
ag100
ag101
ag102
ag103
ag21
ag104
ag105
ag106
ag107
ag108
ag109
ag170
ag110
ag111
ag112
ag113
ag171
ag22
ag114
ag115
ag23
ag116
ag117
ag118
ag119
ag120
ag172
ag121
ag173
ag122
ag123
ag124
ag125
ag126
ag127
ag128
ag129
ag174
ag24
ag25
ag130
ag131
ag132
ag133
ag134
ag26
ag135
ag175
ag136
ag137
ag176
ag138
ag139
ag140
ag27
ag141
ag189
ag142
ag143
ag28
ag144
ag29
ag30
ag145
ag177
ag146
ag147
ag31
ag148
ag178
ag32
ag149
ag33
ag150
ag151
ag152
ag153
ag154
ag155
asS'rhuskear'
p394
(lp395
sS'quermacd'
p396
(lp397
sS'querilic'
p398
(lp399
g4
ag40
ag8
ag41
ag42
ag43
ag44
ag45
ag46
ag47
ag49
ag50
ag51
ag53
ag54
ag10
ag57
ag58
ag59
ag60
ag61
ag13
ag62
ag63
ag64
ag66
ag69
ag70
ag71
ag73
ag75
ag78
ag79
ag82
ag15
ag16
ag17
ag85
ag89
ag91
ag92
ag93
ag19
ag95
ag96
ag97
ag98
ag99
ag100
ag101
ag102
ag103
ag105
ag106
ag107
ag109
ag110
ag114
ag115
ag116
ag121
ag124
ag125
ag127
ag128
ag24
ag130
ag131
ag132
ag133
ag134
ag26
ag135
ag175
ag136
ag137
ag138
ag139
ag143
ag28
ag145
ag146
ag147
ag31
ag32
ag149
ag33
ag151
ag152
ag153
ag154
asS'celtlind'
p400
(lp401
sS'nyssaqua'
p402
(lp403
sS'zantcori'
p404
(lp405
sS'ilexmont'
p406
(lp407
g185
ag6
ag8
ag9
ag45
ag46
ag47
ag48
ag49
ag50
ag52
ag53
ag55
ag59
ag13
ag65
ag70
ag83
ag19
ag98
ag100
ag112
ag116
ag118
ag130
ag135
ag137
ag139
ag140
ag141
ag189
ag142
ag28
ag33
ag153
asS'ceregiga'
p408
(lp409
sS'annoglab'
p410
(lp411
sS'pinustrb'
p412
(lp413
g4
ag160
ag185
ag161
ag5
ag40
ag162
ag6
ag7
ag8
ag41
ag42
ag43
ag9
ag44
ag45
ag46
ag47
ag48
ag49
ag50
ag51
ag52
ag53
ag54
ag55
ag10
ag163
ag186
ag11
ag164
ag12
ag165
ag187
ag56
ag58
ag59
ag166
ag60
ag61
ag13
ag62
ag63
ag64
ag65
ag66
ag67
ag68
ag70
ag14
ag71
ag73
ag167
ag74
ag75
ag78
ag80
ag168
ag81
ag169
ag82
ag83
ag15
ag16
ag17
ag88
ag89
ag18
ag91
ag92
ag94
ag19
ag20
ag95
ag96
ag97
ag188
ag98
ag99
ag100
ag101
ag102
ag103
ag21
ag105
ag106
ag107
ag109
ag170
ag110
ag112
ag113
ag171
ag22
ag114
ag115
ag23
ag116
ag118
ag172
ag121
ag173
ag122
ag125
ag126
ag128
ag174
ag24
ag25
ag130
ag131
ag134
ag26
ag135
ag175
ag137
ag176
ag138
ag139
ag140
ag27
ag141
ag189
ag142
ag143
ag28
ag144
ag29
ag30
ag145
ag177
ag146
ag147
ag31
ag178
ag32
ag149
ag33
ag151
ag152
ag153
ag154
ag155
asS'robipseu'
p414
(lp415
g42
ag49
ag53
ag59
ag13
ag66
ag70
ag82
ag89
ag91
ag94
ag95
ag98
ag100
ag106
ag110
ag131
ag149
ag153
asS'salicaro'
p416
(lp417
g13
ag66
ag82
ag16
ag106
asS'morumicr'
p418
(lp419
sS'bourovat'
p420
(lp421
sS'cercbrev'
p422
(lp423
sS'ilexopac'
p424
(lp425
g42
ag51
ag62
ag64
ag72
ag76
ag77
ag84
ag17
ag86
ag87
ag88
ag90
ag93
ag96
ag104
ag107
ag108
ag111
ag117
ag119
ag120
ag123
ag124
ag125
ag127
ag129
ag132
ag133
ag136
ag148
ag33
ag150
asS'saliscou'
p426
(lp427
sS'cornrace'
p428
(lp429
g4
ag160
ag185
ag161
ag5
ag40
ag162
ag6
ag7
ag8
ag41
ag42
ag43
ag9
ag44
ag45
ag46
ag47
ag48
ag49
ag50
ag51
ag52
ag53
ag54
ag55
ag10
ag186
ag11
ag12
ag165
ag187
ag56
ag58
ag59
ag60
ag61
ag13
ag62
ag63
ag64
ag65
ag66
ag67
ag68
ag70
ag14
ag73
ag74
ag75
ag77
ag80
ag168
ag81
ag169
ag82
ag83
ag15
ag16
ag17
ag89
ag90
ag18
ag91
ag92
ag94
ag19
ag20
ag95
ag96
ag97
ag188
ag98
ag99
ag100
ag101
ag102
ag103
ag21
ag106
ag109
ag170
ag112
ag113
ag22
ag114
ag115
ag23
ag116
ag118
ag121
ag173
ag122
ag125
ag126
ag128
ag174
ag24
ag25
ag130
ag131
ag133
ag134
ag26
ag135
ag175
ag137
ag176
ag139
ag140
ag141
ag189
ag142
ag28
ag145
ag177
ag146
ag147
ag31
ag178
ag32
ag149
ag33
ag152
ag153
ag154
ag155
asS'euonatro'
p430
(lp431
g160
ag162
ag49
ag13
ag62
ag64
ag66
ag70
ag77
ag168
ag81
ag169
ag82
ag17
ag94
ag20
ag95
ag98
ag106
ag110
ag114
ag125
ag174
ag24
ag26
ag144
ag31
ag153
asS'ilexvert'
p432
(lp433
g4
ag160
ag185
ag161
ag5
ag40
ag162
ag6
ag7
ag8
ag41
ag42
ag43
ag9
ag44
ag45
ag46
ag47
ag48
ag49
ag50
ag51
ag52
ag53
ag54
ag55
ag10
ag163
ag186
ag11
ag164
ag12
ag165
ag187
ag56
ag57
ag58
ag59
ag166
ag60
ag61
ag13
ag62
ag63
ag64
ag65
ag66
ag67
ag68
ag69
ag70
ag14
ag71
ag72
ag73
ag167
ag74
ag75
ag76
ag77
ag78
ag79
ag80
ag168
ag81
ag169
ag82
ag83
ag15
ag16
ag84
ag17
ag85
ag86
ag87
ag88
ag89
ag90
ag18
ag91
ag92
ag93
ag94
ag19
ag20
ag95
ag96
ag97
ag188
ag98
ag99
ag100
ag101
ag102
ag103
ag21
ag104
ag105
ag106
ag107
ag108
ag109
ag170
ag110
ag111
ag112
ag113
ag171
ag22
ag114
ag115
ag23
ag116
ag117
ag118
ag119
ag120
ag172
ag121
ag173
ag122
ag123
ag124
ag125
ag126
ag127
ag128
ag129
ag174
ag24
ag25
ag130
ag131
ag132
ag133
ag134
ag26
ag135
ag175
ag136
ag137
ag176
ag138
ag139
ag140
ag27
ag141
ag189
ag142
ag143
ag28
ag144
ag29
ag30
ag145
ag177
ag146
ag147
ag31
ag148
ag178
ag32
ag149
ag33
ag150
ag151
ag152
ag153
ag154
ag155
asS'pinunels'
p434
(lp435
sS'carytome'
p436
(lp437
g4
ag40
ag7
ag8
ag42
ag43
ag9
ag44
ag46
ag49
ag50
ag51
ag53
ag54
ag55
ag10
ag11
ag12
ag57
ag58
ag60
ag61
ag13
ag62
ag63
ag64
ag66
ag69
ag70
ag14
ag71
ag72
ag74
ag75
ag76
ag77
ag78
ag79
ag82
ag15
ag16
ag84
ag17
ag85
ag86
ag87
ag88
ag89
ag90
ag91
ag92
ag94
ag19
ag20
ag95
ag96
ag188
ag98
ag99
ag100
ag101
ag102
ag103
ag104
ag105
ag106
ag108
ag109
ag170
ag110
ag111
ag114
ag115
ag116
ag117
ag119
ag120
ag121
ag123
ag125
ag128
ag129
ag24
ag130
ag131
ag132
ag133
ag134
ag26
ag135
ag136
ag137
ag138
ag143
ag144
ag145
ag146
ag147
ag31
ag148
ag32
ag149
ag33
ag150
ag151
ag153
ag154
asS'abiebals'
p438
(lp439
g6
ag9
ag163
ag186
ag164
ag12
ag187
ag56
ag166
ag14
ag167
ag18
ag21
ag113
ag171
ag23
ag118
ag172
ag122
ag175
ag176
ag27
ag28
ag29
ag30
ag146
ag178
ag152
asS'yuccrost'
p440
(lp441
sS'quershum'
p442
(lp443
g117
asS'juniocci'
p444
(lp445
sS'taxomucr'
p446
(lp447
sS'junihori'
p448
(lp449
g9
ag20
asS'lyonferr'
p450
(lp451
sS'prunumbe'
p452
(lp453
sS'cowamexi'
p454
(lp455
sS'aescsylv'
p456
(lp457
sS'schochry'
p458
(lp459
sS'myricali'
p460
(lp461
sS'querinca'
p462
(lp463
sS'cratdoug'
p464
(lp465
sS'salisitc'
p466
(lp467
sS'magnfras'
p468
(lp469
sS'quergarr'
p470
(lp471
sS'lithdens'
p472
(lp473
sS'tsughete'
p474
(lp475
sS'maclpomi'
p476
(lp477
sS'prunfrem'
p478
(lp479
sS'picesitc'
p480
(lp481
sS'rhamcaro'
p482
(lp483
sS'exoscari'
p484
(lp485
sS'cupaglab'
p486
(lp487
sS'betuuber'
p488
(lp489
sS'quernigr'
p490
(lp491
g76
ag84
ag86
ag104
ag108
ag111
ag123
ag132
asS'sophaffi'
p492
(lp493
sS'castdent'
p494
(lp495
g4
ag185
ag161
ag5
ag40
ag7
ag8
ag41
ag42
ag43
ag9
ag44
ag45
ag46
ag47
ag48
ag49
ag50
ag51
ag52
ag53
ag54
ag55
ag10
ag12
ag165
ag56
ag57
ag58
ag59
ag60
ag61
ag13
ag62
ag63
ag64
ag65
ag66
ag67
ag68
ag69
ag70
ag14
ag71
ag73
ag74
ag75
ag77
ag78
ag79
ag168
ag81
ag169
ag82
ag83
ag15
ag16
ag84
ag17
ag85
ag87
ag88
ag89
ag90
ag91
ag92
ag93
ag94
ag19
ag20
ag95
ag96
ag97
ag188
ag98
ag99
ag100
ag101
ag102
ag103
ag21
ag104
ag105
ag106
ag107
ag109
ag110
ag111
ag112
ag22
ag114
ag115
ag116
ag117
ag119
ag120
ag121
ag173
ag123
ag125
ag126
ag128
ag129
ag24
ag25
ag130
ag131
ag133
ag134
ag26
ag135
ag175
ag136
ag137
ag138
ag139
ag140
ag141
ag189
ag142
ag143
ag144
ag145
ag177
ag146
ag147
ag31
ag148
ag32
ag149
ag33
ag150
ag151
ag152
ag153
ag154
ag155
asS'pinusero'
p496
(lp497
g62
ag76
ag108
ag111
ag123
ag132
asS'ostrknow'
p498
(lp499
sS'corndrum'
p500
(lp501
sS'ilexvomi'
p502
(lp503
sS'pinuooca'
p504
(lp505
sS'ceanarbo'
p506
(lp507
sS'cithfrut'
p508
(lp509
sS'leucretu'
p510
(lp511
sS'staptrif'
p512
(lp513
g4
ag160
ag161
ag5
ag40
ag162
ag7
ag42
ag9
ag44
ag49
ag51
ag55
ag10
ag11
ag12
ag57
ag58
ag60
ag61
ag13
ag62
ag63
ag64
ag66
ag68
ag69
ag70
ag14
ag71
ag74
ag75
ag77
ag79
ag168
ag82
ag15
ag16
ag17
ag85
ag88
ag90
ag91
ag92
ag93
ag94
ag20
ag95
ag188
ag99
ag102
ag103
ag21
ag105
ag106
ag107
ag109
ag170
ag110
ag114
ag23
ag125
ag128
ag174
ag24
ag130
ag133
ag26
ag135
ag176
ag138
ag27
ag144
ag145
ag177
ag31
ag148
ag32
ag33
ag151
ag153
ag154
ag155
asS'gordlasi'
p514
(lp515
sS'lyonflor'
p516
(lp517
sS'pinumont'
p518
(lp519
sS'salilaev'
p520
(lp521
sS'acersacc'
p522
(lp523
g4
ag160
ag185
ag161
ag5
ag40
ag162
ag6
ag7
ag8
ag41
ag42
ag43
ag9
ag44
ag45
ag46
ag47
ag48
ag49
ag50
ag52
ag53
ag54
ag55
ag10
ag163
ag186
ag11
ag164
ag12
ag165
ag187
ag56
ag57
ag58
ag59
ag166
ag61
ag13
ag63
ag64
ag65
ag66
ag67
ag68
ag69
ag70
ag14
ag71
ag73
ag167
ag74
ag75
ag76
ag79
ag80
ag168
ag81
ag169
ag82
ag83
ag15
ag16
ag17
ag85
aVCecil (015)
p524
ag88
ag89
ag90
ag18
ag91
ag92
ag94
ag19
ag20
ag95
ag97
ag188
ag98
ag99
ag100
ag102
ag103
ag21
ag105
ag106
ag109
ag170
ag110
ag112
ag113
ag171
ag22
ag114
ag115
ag23
ag116
ag118
ag172
ag121
ag173
ag122
ag125
ag126
ag128
ag174
ag24
ag25
ag130
ag131
ag134
ag26
ag135
ag175
ag136
ag137
ag176
ag138
ag139
ag140
ag27
ag141
ag189
ag142
ag28
ag144
ag29
ag30
ag145
ag177
ag146
ag147
ag31
ag178
ag32
ag149
ag33
ag151
ag152
ag153
ag154
ag155
asS'cercbetu'
p525
(lp526
sS'pinumono'
p527
(lp528
sS'rhizmang'
p529
(lp530
sS'fraxprof'
p531
(lp532
sS'junipinc'
p533
(lp534
sS'platwrig'
p535
(lp536
sS'betunana'
p537
(lp538
sS'cotiobov'
p539
(lp540
sS'pinuatte'
p541
(lp542
sS'cuprariz'
p543
(lp544
sS'nolibige'
p545
(lp546
sS'castpumi'
p547
(lp548
g57
ag62
ag70
ag72
ag77
ag79
ag84
ag85
ag86
ag87
ag88
ag90
ag91
ag105
ag117
ag119
ag120
ag129
ag136
ag138
ag148
ag150
ag151
asS'magnvirg'
p549
(lp550
g51
ag60
ag62
ag64
ag71
ag72
ag75
ag76
ag77
ag16
ag84
ag86
ag87
ag90
ag91
ag93
ag102
ag104
ag108
ag111
ag117
ag119
ag120
ag123
ag124
ag125
ag127
ag129
ag132
ag133
ag136
ag145
ag148
ag33
ag150
asS'guapdisc'
p551
(lp552
sS'quergris'
p553
(lp554
sS'fraxamer'
p555
(lp556
g4
ag160
ag185
ag161
ag5
ag40
ag162
ag6
ag7
ag8
ag41
ag42
ag43
ag9
ag44
ag45
ag46
ag47
ag48
ag49
ag50
ag51
ag52
ag53
ag54
ag55
ag10
ag163
ag186
ag11
ag164
ag12
ag165
ag187
ag56
ag57
ag58
ag59
ag166
ag60
ag61
ag13
ag62
ag63
ag64
ag65
ag66
ag67
ag68
ag69
ag70
ag14
ag71
ag72
ag73
ag167
ag74
ag75
ag76
ag78
ag79
ag80
ag168
ag81
ag169
ag82
ag83
ag15
ag16
ag84
ag17
ag85
ag86
ag87
ag88
ag89
ag90
ag18
ag91
ag92
ag94
ag19
ag20
ag95
ag96
ag97
ag188
ag98
ag99
ag100
ag101
ag102
ag103
ag21
ag105
ag106
ag107
ag108
ag109
ag170
ag110
ag111
ag112
ag113
ag171
ag22
ag114
ag115
ag23
ag116
ag117
ag118
ag119
ag120
ag172
ag121
ag173
ag122
ag123
ag125
ag126
ag128
ag129
ag174
ag24
ag25
ag130
ag131
ag134
ag26
ag135
ag175
ag136
ag137
ag176
ag138
ag139
ag140
ag27
ag141
ag189
ag142
ag143
ag28
ag144
ag29
ag30
ag145
ag177
ag146
ag147
ag31
ag148
ag178
ag32
ag149
ag33
ag150
ag151
ag152
ag153
ag154
ag155
asS'abieamab'
p557
(lp558
sS'gymilati'
p559
(lp560
sS'acercirc'
p561
(lp562
sS'abiemagn'
p563
(lp564
sS'cyrirace'
p565
(lp566
sS'acergran'
p567
(lp568
sS'pinugreg'
p569
(lp570
sS'mastfoet'
p571
(lp572
sS'salipeti'
p573
(lp574
g4
ag160
ag5
ag162
ag7
ag9
ag10
ag186
ag11
ag164
ag165
ag166
ag62
ag64
ag68
ag14
ag75
ag168
ag17
ag18
ag20
ag103
ag21
ag170
ag114
ag172
ag174
ag175
ag176
ag143
ag28
ag177
ag146
asS'pinuresi'
p575
(lp576
g4
ag160
ag5
ag40
ag6
ag7
ag41
ag48
ag52
ag10
ag163
ag11
ag164
ag12
ag187
ag56
ag166
ag14
ag167
ag81
ag18
ag97
ag98
ag21
ag112
ag171
ag22
ag23
ag121
ag25
ag134
ag175
ag137
ag27
ag29
ag30
ag145
ag146
ag152
asS'fraxlati'
p577
(lp578
sS'fraxberl'
p579
(lp580
sS'pinubalf'
p581
(lp582
sS'ficucitr'
p583
(lp584
sS'abiebrac'
p585
(lp586
sS'pinuradi'
p587
(lp588
sS'myrcfrag'
p589
(lp590
sS'quervelu'
p591
(lp592
g4
ag160
ag185
ag40
ag7
ag8
ag41
ag42
ag43
ag44
ag45
ag48
ag49
ag50
ag51
ag53
ag54
ag55
ag10
ag12
ag56
ag57
ag58
ag59
ag60
ag61
ag13
ag62
ag63
ag64
ag66
ag69
ag70
ag14
ag71
ag72
ag73
ag74
ag75
ag76
ag77
ag78
ag79
ag169
ag82
ag15
ag16
ag84
ag17
ag85
ag86
ag87
ag88
ag89
ag90
ag91
ag92
ag93
ag94
ag19
ag20
ag95
ag96
ag98
ag99
ag100
ag101
ag102
ag103
ag21
ag104
ag105
ag106
ag107
ag108
ag109
ag110
ag111
ag112
ag22
ag114
ag115
ag23
ag116
ag117
ag119
ag120
ag121
ag122
ag123
ag124
ag125
ag126
ag127
ag128
ag129
ag174
ag24
ag25
ag130
ag131
ag132
ag133
ag26
ag135
ag136
ag137
ag138
ag140
ag141
ag189
ag142
ag143
ag144
ag29
ag145
ag147
ag31
ag148
ag32
ag149
ag33
ag150
ag151
ag152
ag153
ag154
asS'aescparv'
p593
(lp594
sS'pinucont'
p595
(lp596
sS'sabapalm'
p597
(lp598
sS'betuocci'
p599
(lp600
sS'larrdiva'
p601
(lp602
sS'sapidrum'
p603
(lp604
sS'pinuaris'
p605
(lp606
sS'rhampurs'
p607
(lp608
sS'artetrid'
p609
(lp610
sS'maluangu'
p611
(lp612
g76
ag120
asS'rhusglab'
p613
(lp614
g4
ag160
ag185
ag161
ag5
ag40
ag162
ag7
ag8
ag42
ag44
ag45
ag47
ag49
ag50
ag51
ag53
ag54
ag11
ag165
ag187
ag57
ag58
ag59
ag60
ag61
ag13
ag62
ag63
ag64
ag66
ag67
ag68
ag69
ag70
ag14
ag71
ag72
ag73
ag74
ag75
ag77
ag78
ag79
ag81
ag169
ag82
ag15
ag16
ag17
ag85
ag88
ag89
ag91
ag92
ag93
ag94
ag19
ag20
ag95
ag96
ag98
ag99
ag100
ag101
ag102
ag103
ag104
ag105
ag106
ag107
ag109
ag170
ag110
ag22
ag114
ag115
ag23
ag116
ag117
ag125
ag128
ag129
ag174
ag24
ag130
ag131
ag132
ag133
ag134
ag26
ag135
ag136
ag138
ag139
ag141
ag142
ag143
ag144
ag145
ag177
ag31
ag148
ag32
ag149
ag33
ag151
ag152
ag153
ag154
asS'nectcori'
p615
(lp616
sS'pinucari'
p617
(lp618
sS'eysepoly'
p619
(lp620
sS'heliparv'
p621
(lp622
sS'eugeconf'
p623
(lp624
sS'illiflor'
p625
(lp626
sS'haleparv'
p627
(lp628
sS'juglmicr'
p629
(lp630
sS'pteltrif'
p631
(lp632
g110
ag114
ag125
ag24
ag32
ag151
ag155
asS'abiefras'
p633
(lp634
sS'acernegu'
p635
(lp636
g185
ag40
ag8
ag42
ag44
ag49
ag53
ag56
ag57
ag13
ag64
ag66
ag67
ag69
ag14
ag71
ag72
ag79
ag82
ag15
ag16
ag84
ag17
ag85
ag87
ag88
ag89
ag90
ag91
ag92
ag94
ag19
ag95
ag98
ag105
ag106
ag110
ag112
ag22
ag114
ag115
ag116
ag117
ag119
ag120
ag125
ag24
ag130
ag131
ag133
ag134
ag26
ag135
ag136
ag137
ag138
ag144
ag31
ag148
ag32
ag33
ag150
ag151
ag153
asS'pinudoug'
p637
(lp638
sS'yucccarn'
p639
(lp640
sS'cornnutt'
p641
(lp642
sS'fraxcaro'
p643
(lp644
sS'crattrac'
p645
(lp646
sS'prunnigr'
p647
(lp648
g11
ag12
ag187
ag166
ag14
ag169
ag18
ag21
ag176
ag27
ag146
ag178
asS'fraxvelu'
p649
(lp650
sS'caryflor'
p651
(lp652
sS'querlaur'
p653
(lp654
sS'pisttexa'
p655
(lp656
sS'acerleuc'
p657
(lp658
sS'eugeaxil'
p659
(lp660
sS'ilexcori'
p661
(lp662
sS'thujplic'
p663
(lp664
sS'crateryt'
p665
(lp666
sS'pinuhart'
p667
(lp668
sS'arbumenz'
p669
(lp670
sS'metotoxi'
p671
(lp672
sS'alvaamor'
p673
(lp674
sS'pinusabi'
p675
(lp676
sS'prunamer'
p677
(lp678
g4
ag185
ag7
ag8
ag42
ag43
ag9
ag44
ag49
ag50
ag51
ag52
ag53
ag54
ag55
ag10
ag11
ag165
ag57
ag58
ag59
ag60
ag61
ag13
ag62
ag63
ag64
ag66
ag69
ag70
ag71
ag72
ag73
ag74
ag75
ag77
ag82
ag15
ag16
ag17
ag85
ag88
ag89
ag91
ag92
ag93
ag94
ag19
ag95
ag98
ag99
ag100
ag102
ag103
ag21
ag104
ag105
ag106
ag109
ag110
ag114
ag116
ag122
ag124
ag125
ag127
ag128
ag174
ag24
ag130
ag131
ag132
ag133
ag26
ag135
ag175
ag137
ag138
ag139
ag140
ag141
ag189
ag142
ag144
ag145
ag31
ag32
ag149
ag33
ag151
ag152
ag153
ag154
asS'cornstri'
p679
(lp680
sS'yuccscho'
p681
(lp682
sS'yuccaloi'
p683
(lp684
sS'vibutril'
p685
(lp686
g4
ag160
ag185
ag161
ag162
ag6
ag7
ag9
ag10
ag163
ag11
ag164
ag12
ag165
ag166
ag68
ag167
ag168
ag15
ag18
ag20
ag95
ag188
ag99
ag21
ag170
ag171
ag23
ag172
ag121
ag122
ag174
ag25
ag131
ag135
ag176
ag27
ag189
ag29
ag30
ag177
ag146
ag155
asS'bumetena'
p687
(lp688
sS'fremmexi'
p689
(lp690
sS'salipyri'
p691
(lp692
g166
asS'platrace'
p693
(lp694
sS'rhodmacr'
p695
(lp696
sS'eugerhom'
p697
(lp698
sS'lirituli'
p699
(lp700
g4
ag160
ag185
ag161
ag162
ag8
ag42
ag43
ag9
ag44
ag49
ag50
ag51
ag53
ag54
ag55
ag165
ag57
ag58
ag59
ag60
ag61
ag13
ag62
ag63
ag64
ag66
ag68
ag69
ag70
ag14
ag71
ag72
ag73
ag74
ag75
ag76
ag77
ag78
ag79
ag168
ag81
ag169
ag82
ag15
ag16
ag84
ag17
ag85
ag86
ag87
ag88
ag89
ag90
ag91
ag92
ag93
ag94
ag19
ag20
ag95
ag96
ag97
ag98
ag99
ag100
ag101
ag102
ag103
ag104
ag105
ag106
ag107
ag108
ag109
ag170
ag110
ag111
ag112
ag114
ag115
ag116
ag117
ag119
ag120
ag121
ag123
ag124
ag125
ag126
ag127
ag128
ag129
ag174
ag24
ag130
ag131
ag132
ag133
ag134
ag26
ag135
ag136
ag137
ag138
ag140
ag141
ag189
ag144
ag145
ag147
ag31
ag148
ag178
ag32
ag149
ag33
ag150
ag151
ag153
ag154
ag155
asS'pinupalu'
p701
(lp702
sS'ulmurubr'
p703
(lp704
g4
ag160
ag185
ag161
ag5
ag40
ag162
ag6
ag7
ag8
ag41
ag42
ag43
ag9
ag44
ag45
ag46
ag47
ag48
ag49
ag50
ag52
ag53
ag54
ag55
ag10
ag163
ag186
ag11
ag164
ag12
ag165
ag187
ag56
ag57
ag58
ag59
ag166
ag60
ag61
ag13
ag63
ag64
ag65
ag66
ag67
ag68
ag69
ag70
ag14
ag71
ag72
ag73
ag167
ag74
ag75
ag78
ag79
ag80
ag168
ag81
ag169
ag82
ag83
ag15
ag16
ag84
ag17
ag85
ag87
ag88
ag89
ag90
ag18
ag91
ag92
ag94
ag19
ag20
ag95
ag96
ag97
ag188
ag98
ag99
ag100
ag102
ag103
ag21
ag105
ag106
ag107
ag109
ag170
ag110
ag112
ag113
ag171
ag22
ag114
ag115
ag23
ag116
ag117
ag118
ag119
ag120
ag172
ag121
ag173
ag122
ag125
ag126
ag128
ag129
ag174
ag24
ag25
ag130
ag131
ag133
ag134
ag26
ag135
ag175
ag136
ag137
ag176
ag138
ag139
ag140
ag27
ag141
ag189
ag142
ag28
ag144
ag29
ag30
ag145
ag177
ag146
ag147
ag31
ag148
ag178
ag32
ag149
ag33
ag150
ag151
ag152
ag153
ag154
ag155
asS'tsugcana'
p705
(lp706
g4
ag160
ag185
ag161
ag5
ag40
ag162
ag6
ag7
ag8
ag41
ag42
ag43
ag9
ag44
ag45
ag46
ag47
ag48
ag49
ag50
ag52
ag53
ag54
ag55
ag10
ag163
ag186
ag11
ag164
ag12
ag165
ag187
ag56
ag58
ag59
ag166
ag60
ag61
ag13
ag63
ag64
ag65
ag66
ag67
ag68
ag70
ag14
ag71
ag73
ag167
ag74
ag75
ag78
ag80
ag168
ag81
ag169
ag82
ag83
ag15
ag16
ag17
ag89
ag18
ag91
ag92
ag93
ag94
ag19
ag20
ag95
ag96
ag97
ag188
ag98
ag99
ag100
ag101
ag102
ag103
ag21
ag105
ag106
ag107
ag109
ag170
ag110
ag112
ag113
ag171
ag22
ag114
ag115
ag23
ag116
ag118
ag172
ag121
ag173
ag122
ag125
ag126
ag128
ag174
ag24
ag25
ag130
ag131
ag134
ag26
ag135
ag175
ag137
ag176
ag139
ag140
ag27
ag141
ag189
ag142
ag143
ag28
ag144
ag29
ag30
ag145
ag177
ag146
ag147
ag31
ag178
ag32
ag149
ag33
ag151
ag152
ag153
ag154
ag155
asS'maytphyl'
p707
(lp708
sS'coccuvif'
p709
(lp710
sS'toxivern'
p711
(lp712
g4
ag5
ag162
ag7
ag8
ag9
ag51
ag55
ag10
ag11
ag57
ag58
ag60
ag61
ag62
ag63
ag64
ag69
ag14
ag71
ag75
ag77
ag78
ag15
ag16
ag84
ag17
ag87
ag88
ag90
ag91
ag92
ag93
ag19
ag96
ag99
ag101
ag102
ag103
ag21
ag104
ag106
ag107
ag109
ag112
ag114
ag115
ag116
ag119
ag120
ag121
ag123
ag124
ag125
ag127
ag128
ag129
ag24
ag132
ag133
ag134
ag26
ag135
ag136
ag176
ag141
ag189
ag143
ag144
ag145
ag31
ag148
ag32
ag33
ag150
ag151
ag152
ag154
asS'caryilli'
p713
(lp714
sS'tremlama'
p715
(lp716
sS'betualle'
p717
(lp718
g4
ag160
ag185
ag161
ag5
ag40
ag162
ag6
ag7
ag8
ag41
ag42
ag9
ag44
ag45
ag46
ag48
ag49
ag52
ag54
ag10
ag163
ag186
ag11
ag164
ag12
ag165
ag187
ag56
ag58
ag59
ag166
ag60
ag61
ag13
ag63
ag65
ag67
ag68
ag14
ag167
ag75
ag80
ag168
ag81
ag169
ag82
ag83
ag15
ag16
ag17
ag89
ag18
ag91
ag92
ag20
ag95
ag97
ag188
ag100
ag101
ag102
ag103
ag21
ag109
ag170
ag112
ag113
ag171
ag22
ag115
ag23
ag116
ag118
ag172
ag121
ag173
ag122
ag126
ag128
ag174
ag24
ag25
ag131
ag134
ag135
ag175
ag137
ag176
ag139
ag27
ag189
ag142
ag143
ag28
ag144
ag29
ag30
ag145
ag177
ag146
ag147
ag31
ag178
ag32
ag149
ag33
ag152
ag153
ag154
ag155
asS'fraxanom'
p719
(lp720
sS'pithpall'
p721
(lp722
sS'salimack'
p723
(lp724
sS'carymyri'
p725
(lp726
sS'querchry'
p727
(lp728
sS'garrelli'
p729
(lp730
sS'franalat'
p731
(lp732
sS'malucoro'
p733
(lp734
g161
ag8
ag42
ag43
ag9
ag45
ag49
ag54
ag59
ag13
ag63
ag64
ag66
ag70
ag14
ag73
ag74
ag169
ag16
ag17
ag85
ag89
ag90
ag94
ag19
ag20
ag95
ag106
ag112
ag114
ag115
ag116
ag120
ag122
ag125
ag126
ag24
ag131
ag134
ag26
ag135
ag139
ag141
ag189
ag142
ag146
ag32
ag149
ag33
ag151
ag152
ag153
asS'clusrose'
p735
(lp736
sS'robikels'
p737
(lp738
sS'betupopu'
p739
(lp740
g4
ag162
ag8
ag48
ag51
ag55
ag10
ag163
ag164
ag12
ag58
ag166
ag60
ag61
ag63
ag64
ag65
ag71
ag167
ag75
ag78
ag15
ag18
ag92
ag93
ag96
ag99
ag101
ag102
ag103
ag21
ag107
ag109
ag112
ag171
ag114
ag115
ag23
ag116
ag172
ag121
ag124
ag125
ag127
ag128
ag24
ag130
ag131
ag133
ag134
ag26
ag135
ag137
ag176
ag27
ag143
ag29
ag30
ag145
ag146
ag147
ag32
ag33
ag151
ag152
ag154
asS'picebrew'
p741
(lp742
sS'thriradi'
p743
(lp744
sS'saliexig'
p745
(lp746
g160
ag185
ag161
ag40
ag162
ag7
ag43
ag9
ag11
ag165
ag68
ag74
ag168
ag169
ag15
ag90
ag92
ag94
ag20
ag95
ag96
ag188
ag101
ag21
ag106
ag170
ag22
ag114
ag122
ag123
ag125
ag174
ag130
ag134
ag175
ag141
ag189
ag142
ag177
ag146
ag33
ag151
ag152
ag155
asS'abieproc'
p747
(lp748
sS'betulent'
p749
(lp750
g4
ag160
ag185
ag161
ag5
ag40
ag162
ag6
ag7
ag8
ag41
ag42
ag43
ag9
ag44
ag45
ag46
ag47
ag48
ag49
ag50
ag52
ag53
ag54
ag55
ag10
ag186
ag11
ag12
ag165
ag187
ag56
ag58
ag59
ag60
ag61
ag13
ag62
ag63
ag64
ag65
ag66
ag67
ag68
ag69
ag70
ag14
ag71
ag73
ag74
ag75
ag78
ag80
ag168
ag81
ag169
ag82
ag83
ag15
ag16
ag17
ag89
ag18
ag91
ag92
ag94
ag19
ag20
ag95
ag96
ag97
ag188
ag98
ag99
ag100
ag101
ag102
ag103
ag21
ag105
ag106
ag109
ag170
ag110
ag112
ag113
ag22
ag114
ag115
ag23
ag116
ag118
ag120
ag121
ag173
ag122
ag125
ag126
ag128
ag174
ag24
ag25
ag130
ag131
ag133
ag134
ag26
ag135
ag175
ag137
ag176
ag139
ag140
ag189
ag142
ag143
ag28
ag144
ag145
ag177
ag146
ag147
ag31
ag178
ag32
ag149
ag33
ag151
ag152
ag153
ag154
ag155
asS'cercmicr'
p751
(lp752
sS'quermueh'
p753
(lp754
g160
ag162
ag42
ag9
ag44
ag49
ag53
ag165
ag58
ag61
ag13
ag66
ag69
ag74
ag78
ag168
ag169
ag82
ag15
ag17
ag88
ag91
ag94
ag20
ag95
ag98
ag103
ag105
ag106
ag109
ag170
ag110
ag121
ag125
ag126
ag174
ag24
ag131
ag26
ag135
ag141
ag142
ag144
ag31
ag32
ag33
ag150
ag153
asS'magngran'
p755
(lp756
sS'aescpavi'
p757
(lp758
sS'alnuoblo'
p759
(lp760
sS'pinuprin'
p761
(lp762
sS'carytexa'
p763
(lp764
sS'pinuflex'
p765
(lp766
sS'prunmuns'
p767
(lp768
sS'drypdive'
p769
(lp770
sS'castalni'
p771
(lp772
sS'cephocci'
p773
(lp774
g4
ag160
ag185
ag161
ag5
ag40
ag162
ag6
ag7
ag8
ag41
ag42
ag43
ag9
ag44
ag45
ag46
ag47
ag48
ag49
ag50
ag51
ag52
ag53
ag54
ag55
ag10
ag163
ag186
ag11
ag164
ag12
ag165
ag187
ag56
ag57
ag58
ag59
ag166
ag60
ag61
ag13
ag62
ag63
ag64
ag65
ag66
ag67
ag68
ag69
ag70
ag14
ag71
ag72
ag73
ag167
ag74
ag75
ag76
ag77
ag78
ag79
ag80
ag168
ag81
ag169
ag82
ag83
ag15
ag16
ag84
ag17
ag85
ag86
ag87
ag88
ag89
ag90
ag18
ag91
ag92
ag93
ag94
ag19
ag20
ag95
ag96
ag97
ag188
ag98
ag99
ag100
ag101
ag102
ag103
ag21
ag104
ag105
ag106
ag107
ag108
ag109
ag170
ag110
ag111
ag112
ag113
ag171
ag22
ag114
ag115
ag23
ag116
ag117
ag118
ag119
ag120
ag172
ag121
ag173
ag122
ag123
ag124
ag125
ag126
ag127
ag128
ag129
ag174
ag24
ag25
ag130
ag131
ag132
ag133
ag134
ag26
ag135
ag175
ag136
ag137
ag176
ag138
ag139
ag140
ag27
ag141
ag189
ag142
ag143
ag28
ag144
ag29
ag30
ag145
ag177
ag146
ag147
ag31
ag148
ag178
ag32
ag149
ag33
ag150
ag151
ag152
ag153
ag154
ag155
asS'ulmualat'
p775
(lp776
sS'amelarbo'
p777
(lp778
g4
ag160
ag185
ag161
ag5
ag40
ag162
ag6
ag7
ag8
ag41
ag42
ag43
ag9
ag44
ag45
ag46
ag47
ag48
ag49
ag50
ag51
ag52
ag53
ag54
ag55
ag10
ag163
ag186
ag11
ag164
ag12
ag165
ag187
ag56
ag57
ag58
ag59
ag166
ag60
ag61
ag13
ag62
ag63
ag64
ag65
ag66
ag67
ag68
ag69
ag70
ag14
ag71
ag72
ag73
ag167
ag74
ag75
ag76
ag77
ag78
ag79
ag80
ag168
ag81
ag169
ag82
ag83
ag15
ag16
ag84
ag17
ag85
ag86
ag87
ag88
ag89
ag90
ag18
ag91
ag92
ag93
ag94
ag19
ag20
ag95
ag96
ag97
ag188
ag98
ag99
ag100
ag101
ag102
ag103
ag21
ag104
ag105
ag106
ag107
ag108
ag109
ag170
ag110
ag111
ag112
ag113
ag171
ag22
ag114
ag115
ag23
ag116
ag117
ag118
ag119
ag120
ag172
ag121
ag173
ag122
ag123
ag124
ag125
ag126
ag127
ag128
ag129
ag174
ag24
ag25
ag130
ag131
ag132
ag133
ag134
ag26
ag135
ag175
ag136
ag137
ag176
ag138
ag139
ag140
ag27
ag141
ag189
ag142
ag143
ag28
ag144
ag29
ag30
ag145
ag177
ag146
ag147
ag31
ag148
ag178
ag32
ag149
ag33
ag150
ag151
ag152
ag153
ag154
ag155
asS'coluelli'
p779
(lp780
sS'burssima'
p781
(lp782
sS'yucctrec'
p783
(lp784
sS'queragri'
p785
(lp786
sS'cornalte'
p787
(lp788
g4
ag160
ag185
ag161
ag5
ag40
ag162
ag6
ag7
ag8
ag41
ag42
ag43
ag9
ag44
ag45
ag46
ag47
ag48
ag49
ag50
ag51
ag52
ag53
ag54
ag55
ag10
ag163
ag186
ag11
ag164
ag12
ag165
ag187
ag56
ag58
ag59
ag166
ag60
ag61
ag13
ag62
ag63
ag64
ag65
ag66
ag67
ag68
ag70
ag14
ag71
ag73
ag167
ag74
ag75
ag80
ag168
ag81
ag169
ag82
ag83
ag15
ag16
ag17
ag87
ag89
ag18
ag91
ag92
ag94
ag19
ag20
ag95
ag96
ag97
ag188
ag98
ag99
ag100
ag101
ag102
ag21
ag105
ag106
ag107
ag109
ag170
ag110
ag112
ag113
ag171
ag22
ag114
ag115
ag23
ag116
ag118
ag119
ag172
ag121
ag173
ag122
ag125
ag126
ag128
ag174
ag24
ag25
ag130
ag131
ag134
ag26
ag135
ag175
ag136
ag137
ag176
ag138
ag139
ag140
ag27
ag141
ag189
ag142
ag28
ag29
ag30
ag145
ag177
ag146
ag147
ag31
ag178
ag32
ag149
ag33
ag151
ag152
ag153
ag154
ag155
asS'pinuayac'
p789
(lp790
sS'alnutenu'
p791
(lp792
sS'querdunn'
p793
(lp794
sS'ungnspec'
p795
(lp796
sS'picepung'
p797
(lp798
sS'pinupung'
p799
(lp800
g42
ag49
ag13
ag66
ag82
ag16
ag92
ag95
ag98
ag110
ag131
ag33
ag153
asS'vibulent'
p801
(lp802
g4
ag160
ag185
ag40
ag162
ag6
ag7
ag8
ag43
ag9
ag47
ag50
ag53
ag10
ag163
ag186
ag11
ag164
ag12
ag187
ag56
ag57
ag59
ag166
ag60
ag61
ag13
ag64
ag67
ag68
ag14
ag73
ag167
ag74
ag80
ag168
ag169
ag15
ag17
ag88
ag89
ag18
ag20
ag96
ag188
ag98
ag100
ag101
ag103
ag21
ag107
ag112
ag113
ag171
ag22
ag115
ag23
ag118
ag172
ag121
ag122
ag128
ag174
ag25
ag130
ag131
ag133
ag134
ag26
ag135
ag175
ag137
ag176
ag138
ag139
ag140
ag27
ag141
ag189
ag142
ag28
ag29
ag30
ag145
ag177
ag146
ag147
ag178
ag32
ag149
ag152
ag155
asS'ehreanac'
p803
(lp804
sS'pseumenz'
p805
(lp806
sS'prosjuli'
p807
(lp808
sS'tilihete'
p809
(lp810
g9
ag70
ag14
ag82
ag94
ag100
ag106
ag135
ag31
ag149
asS'ilexlong'
p811
(lp812
sS'prunhort'
p813
(lp814
sS'yuccglor'
p815
(lp816
sS'juglnigr'
p817
(lp818
g4
ag185
ag40
ag7
ag42
ag43
ag9
ag44
ag49
ag50
ag51
ag53
ag55
ag165
ag57
ag58
ag60
ag61
ag13
ag62
ag63
ag64
ag65
ag66
ag69
ag70
ag71
ag72
ag74
ag75
ag76
ag77
ag78
ag79
ag169
ag82
ag15
ag16
ag84
ag17
ag85
ag86
ag87
ag88
ag90
ag91
ag92
ag93
ag94
ag95
ag96
ag98
ag99
ag101
ag102
ag103
ag21
ag104
ag105
ag106
ag107
ag108
ag109
ag110
ag111
ag114
ag117
ag119
ag120
ag121
ag123
ag124
ag125
ag127
ag128
ag129
ag174
ag24
ag130
ag131
ag132
ag133
ag26
ag135
ag136
ag138
ag139
ag143
ag144
ag145
ag31
ag148
ag32
ag33
ag150
ag151
ag152
ag153
ag155
asS'canewint'
p819
(lp820
sS'forephil'
p821
(lp822
sS'alnurubr'
p823
(lp824
sS'pinuelli'
p825
(lp826
sS'betunigr'
p827
(lp828
g4
ag40
ag49
ag50
ag51
ag54
ag55
ag57
ag58
ag60
ag61
ag62
ag63
ag64
ag71
ag72
ag75
ag76
ag77
ag78
ag79
ag82
ag15
ag16
ag84
ag17
ag85
ag86
ag87
ag88
ag90
ag92
ag93
ag19
ag99
ag102
ag104
ag107
ag108
ag109
ag110
ag111
ag114
ag117
ag119
ag120
ag121
ag123
ag124
ag125
ag127
ag128
ag129
ag24
ag130
ag132
ag133
ag26
ag135
ag136
ag137
ag138
ag143
ag144
ag145
ag147
ag31
ag148
ag32
ag33
ag150
ag151
ag152
ag153
ag154
asS'cladkent'
p829
(lp830
sS'acacmacr'
p831
(lp832
sS'salifluv'
p833
(lp834
sS'acermacr'
p835
(lp836
sS'querimbr'
p837
(lp838
g43
ag53
ag57
ag70
ag72
ag73
ag74
ag82
ag86
ag87
ag88
ag89
ag94
ag100
ag106
ag135
ag140
ag141
ag189
ag148
ag150
asS'gymnluci'
p839
(lp840
sS'acerglab'
p841
(lp842
sS'magnashe'
p843
(lp844
sS'picemari'
p845
(lp846
g4
ag7
ag8
ag9
ag49
ag163
ag11
ag164
ag12
ag166
ag14
ag167
ag18
ag21
ag112
ag171
ag115
ag23
ag116
ag172
ag121
ag122
ag176
ag27
ag28
ag29
ag30
ag177
ag146
ag147
ag178
asS'ulmuamer'
p847
(lp848
g4
ag160
ag185
ag161
ag5
ag40
ag162
ag6
ag7
ag8
ag41
ag42
ag43
ag9
ag44
ag45
ag46
ag47
ag48
ag49
ag50
ag51
ag52
ag53
ag54
ag55
ag10
ag163
ag186
ag11
ag164
ag12
ag165
ag187
ag56
ag57
ag58
ag59
ag166
ag60
ag61
ag13
ag62
ag63
ag64
ag65
ag66
ag67
ag68
ag69
ag70
ag14
ag71
ag72
ag73
ag167
ag74
ag75
ag76
ag77
ag78
ag79
ag80
ag168
ag81
ag169
ag82
ag83
ag15
ag16
ag84
ag17
ag85
ag86
ag87
ag88
ag89
ag90
ag18
ag91
ag92
ag94
ag19
ag20
ag95
ag96
ag97
ag188
ag98
ag99
ag100
ag101
ag102
ag103
ag21
ag105
ag106
ag107
ag108
ag109
ag170
ag110
ag111
ag112
ag113
ag171
ag22
ag114
ag115
ag23
ag116
ag117
ag118
ag119
ag120
ag172
ag121
ag173
ag122
ag123
ag125
ag126
ag128
ag129
ag174
ag24
ag25
ag130
ag131
ag133
ag134
ag26
ag135
ag175
ag136
ag137
ag176
ag138
ag139
ag140
ag27
ag141
ag189
ag142
ag143
ag28
ag144
ag29
ag30
ag145
ag177
ag146
ag147
ag31
ag148
ag178
ag32
ag149
ag33
ag150
ag151
ag152
ag153
ag154
ag155
asS'sequgiga'
p849
(lp850
sS'sassalbi'
p851
(lp852
g4
ag160
ag185
ag161
ag5
ag40
ag162
ag7
ag8
ag42
ag43
ag9
ag44
ag45
ag47
ag48
ag49
ag50
ag51
ag53
ag54
ag55
ag10
ag11
ag165
ag187
ag56
ag57
ag58
ag59
ag60
ag61
ag13
ag62
ag63
ag64
ag65
ag66
ag68
ag69
ag70
ag14
ag71
ag72
ag73
ag74
ag75
ag76
ag77
ag78
ag79
ag168
ag169
ag82
ag15
ag16
ag84
ag17
ag85
ag86
ag87
ag88
ag89
ag90
ag91
ag92
ag93
ag94
ag19
ag20
ag95
ag96
ag188
ag98
ag99
ag100
ag101
ag102
ag103
ag21
ag104
ag105
ag106
ag107
ag108
ag109
ag170
ag110
ag111
ag112
ag22
ag114
ag115
ag116
ag117
ag119
ag120
ag121
ag123
ag124
ag125
ag127
ag128
ag129
ag174
ag24
ag130
ag131
ag132
ag133
ag134
ag26
ag135
ag136
ag137
ag138
ag139
ag140
ag141
ag189
ag142
ag143
ag144
ag145
ag177
ag147
ag31
ag148
ag32
ag149
ag33
ag150
ag151
ag152
ag153
ag154
ag155
asS'haledipt'
p853
(lp854
sS'cletacum'
p855
(lp856
sS'cuprmacn'
p857
(lp858
sS'amphlati'
p859
(lp860
sS'pinumuri'
p861
(lp862
sS'myrihete'
p863
(lp864
g84
ag119
ag120
ag129
ag150
asS'cuprmacr'
p865
(lp866
sS'sorbscop'
p867
(lp868
sS'acacchor'
p869
(lp870
sS'torrtaxi'
p871
(lp872
sS'pinucemb'
p873
(lp874
sS'popuhinc'
p875
(lp876
sS'cratchry'
p877
(lp878
sS'pinuwash'
p879
(lp880
sS'sabamino'
p881
(lp882
sS'quergrav'
p883
(lp884
sS'ardiesca'
p885
(lp886
sS'coccdive'
p887
(lp888
sS'canoholo'
p889
(lp890
sS'acacrigi'
p891
(lp892
sS'quergrac'
p893
(lp894
sS'pinucoop'
p895
(lp896
sS'tsugcaro'
p897
(lp898
sS'myriceri'
p899
(lp900
g72
ag76
ag84
ag86
ag108
ag111
ag117
ag123
ag129
ag132
ag136
ag150
asS'symptinc'
p901
(lp902
g76
ag123
asS'prunmexi'
p903
(lp904
sS'washfili'
p905
(lp906
sS'ilexcass'
p907
(lp908
sS'osmaamer'
p909
(lp910
sS'querphel'
p911
(lp912
g51
ag62
ag64
ag72
ag76
ag77
ag79
ag84
ag86
ag87
ag90
ag93
ag104
ag108
ag111
ag117
ag119
ag120
ag123
ag124
ag125
ag127
ag129
ag132
ag133
ag136
ag148
ag150
asS'salibebb'
p913
(lp914
g4
ag160
ag185
ag161
ag5
ag40
ag162
ag6
ag7
ag8
ag41
ag9
ag46
ag48
ag50
ag52
ag53
ag54
ag55
ag10
ag163
ag186
ag11
ag164
ag12
ag165
ag187
ag56
ag166
ag63
ag65
ag67
ag68
ag14
ag167
ag75
ag80
ag168
ag81
ag169
ag83
ag15
ag17
ag18
ag20
ag97
ag188
ag98
ag103
ag21
ag170
ag112
ag113
ag171
ag22
ag115
ag23
ag116
ag118
ag172
ag173
ag122
ag126
ag174
ag25
ag131
ag134
ag135
ag175
ag137
ag176
ag139
ag27
ag28
ag29
ag30
ag177
ag146
ag178
ag32
ag152
asS'tetrbico'
p915
(lp916
sS'pinupinc'
p917
(lp918
sS'eugefoet'
p919
(lp920
sS'chryicac'
p921
(lp922
sS'juglcali'
p923
(lp924
sS'alnurhom'
p925
(lp926
sS'salidisc'
p927
(lp928
g4
ag160
ag185
ag161
ag5
ag40
ag162
ag6
ag7
ag8
ag41
ag43
ag9
ag45
ag46
ag47
ag48
ag50
ag52
ag53
ag54
ag55
ag10
ag163
ag186
ag11
ag164
ag12
ag165
ag187
ag56
ag58
ag59
ag166
ag60
ag61
ag63
ag65
ag67
ag68
ag14
ag73
ag167
ag74
ag75
ag78
ag80
ag168
ag81
ag169
ag83
ag15
ag89
ag18
ag92
ag94
ag19
ag20
ag96
ag97
ag188
ag98
ag99
ag100
ag101
ag102
ag103
ag21
ag106
ag107
ag109
ag170
ag112
ag113
ag171
ag22
ag114
ag115
ag23
ag116
ag118
ag172
ag121
ag173
ag122
ag125
ag126
ag128
ag174
ag24
ag25
ag130
ag131
ag134
ag26
ag135
ag175
ag137
ag176
ag139
ag140
ag27
ag141
ag189
ag142
ag143
ag28
ag29
ag30
ag145
ag177
ag146
ag147
ag31
ag178
ag32
ag149
ag151
ag152
ag154
ag155
asS'querrubr'
p929
(lp930
g4
ag160
ag185
ag161
ag5
ag40
ag162
ag6
ag7
ag8
ag41
ag42
ag43
ag9
ag44
ag45
ag46
ag47
ag48
ag49
ag50
ag51
ag52
ag53
ag54
ag55
ag10
ag163
ag186
ag11
ag164
ag12
ag165
ag187
ag56
ag57
ag58
ag59
ag166
ag60
ag61
ag13
ag62
ag63
ag64
ag65
ag66
ag67
ag68
ag69
ag70
ag14
ag71
ag72
ag73
ag167
ag74
ag75
ag76
ag77
ag78
ag79
ag80
ag168
ag81
ag169
ag82
ag83
ag15
ag16
ag84
ag17
ag85
ag86
ag87
ag88
ag89
ag90
ag18
ag91
ag92
ag94
ag19
ag20
ag95
ag96
ag97
ag188
ag98
ag99
ag100
ag101
ag102
ag103
ag21
ag105
ag106
ag107
ag108
ag109
ag170
ag110
ag111
ag112
ag113
ag171
ag22
ag114
ag115
ag23
ag116
ag117
ag118
ag119
ag120
ag172
ag121
ag173
ag122
ag123
ag125
ag126
ag128
ag129
ag174
ag24
ag25
ag130
ag131
ag133
ag134
ag26
ag135
ag175
ag136
ag137
ag176
ag138
ag139
ag140
ag27
ag141
ag189
ag142
ag143
ag28
ag144
ag29
ag30
ag145
ag177
ag146
ag147
ag31
ag148
ag178
ag32
ag149
ag33
ag150
ag151
ag152
ag153
ag154
ag155
asS'querstel'
p931
(lp932
g44
ag51
ag57
ag58
ag60
ag62
ag64
ag69
ag71
ag72
ag75
ag76
ag77
ag78
ag79
ag15
ag16
ag84
ag17
ag85
ag86
ag87
ag88
ag90
ag92
ag93
ag96
ag99
ag101
ag102
ag104
ag107
ag108
ag110
ag111
ag114
ag117
ag119
ag120
ag123
ag124
ag125
ag127
ag129
ag24
ag132
ag133
ag26
ag135
ag136
ag138
ag143
ag144
ag145
ag31
ag148
ag32
ag150
ag151
asS'acerbarb'
p933
(lp934
sS'popuhete'
p935
(lp936
g60
ag64
ag71
ag75
ag76
ag78
ag84
ag17
ag86
ag87
ag92
ag96
ag101
ag108
ag109
ag111
ag119
ag120
ag123
ag143
ag150
asS'querdoug'
p937
(lp938
sS'pinupond'
p939
(lp940
sS'yuccmoha'
p941
(lp942
sS'pinuechi'
p943
(lp944
g44
ag50
ag51
ag53
ag62
ag71
ag72
ag76
ag77
ag82
ag84
ag86
ag93
ag104
ag107
ag108
ag110
ag111
ag117
ag123
ag124
ag125
ag127
ag129
ag130
ag132
ag133
ag26
ag145
ag148
ag150
asS'bumelanu'
p945
(lp946
sS'eysetexa'
p947
(lp948
sS'nysssylv'
p949
(lp950
g4
ag160
ag185
ag40
ag7
ag8
ag42
ag43
ag44
ag46
ag47
ag49
ag50
ag51
ag53
ag54
ag55
ag10
ag57
ag58
ag59
ag60
ag61
ag13
ag62
ag63
ag64
ag65
ag66
ag68
ag69
ag70
ag14
ag71
ag72
ag73
ag74
ag75
ag76
ag77
ag78
ag79
ag168
ag81
ag82
ag15
ag16
ag84
ag17
ag85
ag86
ag87
ag88
ag89
ag90
ag91
ag92
ag93
ag94
ag19
ag20
ag95
ag96
ag98
ag99
ag100
ag101
ag102
ag103
ag21
ag104
ag105
ag106
ag107
ag108
ag109
ag110
ag111
ag22
ag114
ag115
ag23
ag116
ag117
ag118
ag119
ag120
ag121
ag173
ag122
ag123
ag124
ag125
ag127
ag128
ag129
ag174
ag24
ag25
ag130
ag131
ag132
ag133
ag134
ag26
ag135
ag136
ag137
ag138
ag139
ag140
ag141
ag189
ag143
ag144
ag145
ag177
ag146
ag147
ag31
ag148
ag32
ag149
ag33
ag150
ag151
ag152
ag153
ag154
asS'fraxgreg'
p951
(lp952
sS'aralspin'
p953
(lp954
g43
ag9
ag45
ag46
ag47
ag186
ag59
ag67
ag70
ag72
ag73
ag74
ag76
ag79
ag85
ag89
ag90
ag106
ag108
ag111
ag117
ag129
ag136
ag139
ag140
ag142
ag148
ag149
asS'carycord'
p955
(lp956
g4
ag160
ag185
ag161
ag5
ag40
ag162
ag6
ag7
ag8
ag41
ag42
ag43
ag9
ag44
ag45
ag46
ag47
ag48
ag49
ag50
ag51
ag52
ag53
ag54
ag55
ag10
ag186
ag11
ag165
ag187
ag56
ag57
ag58
ag59
ag166
ag60
ag61
ag13
ag62
ag63
ag64
ag65
ag66
ag67
ag68
ag69
ag70
ag14
ag71
ag72
ag73
ag74
ag75
ag76
ag77
ag78
ag79
ag80
ag168
ag81
ag169
ag82
ag83
ag15
ag16
ag84
ag17
ag85
ag86
ag87
ag88
ag89
ag90
ag18
ag91
ag92
ag94
ag19
ag20
ag95
ag96
ag97
ag188
ag98
ag99
ag100
ag101
ag102
ag103
ag21
ag105
ag106
ag108
ag109
ag170
ag110
ag111
ag112
ag113
ag22
ag114
ag115
ag116
ag117
ag118
ag119
ag120
ag121
ag173
ag122
ag123
ag125
ag126
ag128
ag129
ag174
ag24
ag25
ag130
ag131
ag133
ag134
ag26
ag135
ag175
ag136
ag137
ag176
ag138
ag139
ag140
ag27
ag141
ag189
ag142
ag143
ag28
ag144
ag29
ag145
ag177
ag147
ag31
ag148
ag178
ag32
ag149
ag33
ag150
ag151
ag152
ag153
ag154
ag155
asS'cornocci'
p957
(lp958
sS'arctprin'
p959
(lp960
sS'querdura'
p961
(lp962
sS'querarka'
p963
(lp964
sS'cuprsarg'
p965
(lp966
sS'bacchali'
p967
(lp968
g60
ag76
ag78
ag79
ag96
ag101
ag107
ag117
ag120
ag124
ag127
ag129
ag132
ag143
ag145
ag150
asS'alnumari'
p969
(lp970
g111
ag123
asS'salisess'
p971
(lp972
sS'pincpube'
p973
(lp974
sS'condhook'
p975
(lp976
sS'rhusovat'
p977
(lp978
sS'fraxgood'
p979
(lp980
sS'dryplate'
p981
(lp982
sS'ilexlaev'
p983
(lp984
g8
ag9
ag51
ag10
ag11
ag56
ag60
ag62
ag63
ag76
ag78
ag84
ag90
ag19
ag96
ag101
ag103
ag21
ag104
ag107
ag111
ag116
ag117
ag120
ag121
ag124
ag125
ag129
ag24
ag132
ag133
ag135
ag136
ag137
ag138
ag143
ag28
ag145
ag31
ag148
asS'rhodmaxi'
p985
(lp986
g4
ag185
ag40
ag7
ag8
ag42
ag44
ag45
ag47
ag48
ag49
ag50
ag51
ag53
ag54
ag55
ag186
ag187
ag57
ag58
ag59
ag61
ag13
ag63
ag65
ag66
ag70
ag73
ag74
ag75
ag79
ag168
ag82
ag15
ag88
ag89
ag94
ag19
ag20
ag95
ag98
ag100
ag102
ag106
ag109
ag112
ag114
ag115
ag116
ag118
ag121
ag122
ag125
ag126
ag128
ag129
ag24
ag25
ag130
ag131
ag134
ag26
ag135
ag175
ag136
ag137
ag176
ag139
ag140
ag142
ag28
ag29
ag30
ag146
ag147
ag32
ag149
ag33
ag151
ag153
ag154
ag155
asS'pinulaws'
p987
(lp988
sS'rhambetu'
p989
(lp990
sS'saliseri'
p991
(lp992
g4
ag160
ag185
ag161
ag5
ag40
ag162
ag6
ag7
ag8
ag42
ag43
ag9
ag44
ag45
ag46
ag47
ag48
ag49
ag50
ag51
ag52
ag53
ag54
ag55
ag10
ag186
ag11
ag12
ag165
ag187
ag56
ag57
ag58
ag59
ag60
ag61
ag13
ag62
ag63
ag64
ag65
ag66
ag67
ag68
ag69
ag70
ag14
ag71
ag73
ag167
ag74
ag75
ag78
ag80
ag168
ag169
ag82
ag83
ag15
ag16
ag17
ag85
ag88
ag89
ag18
ag91
ag92
ag93
ag94
ag19
ag20
ag95
ag96
ag97
ag98
ag99
ag100
ag101
ag102
ag103
ag21
ag105
ag106
ag107
ag109
ag170
ag110
ag112
ag113
ag171
ag22
ag114
ag115
ag23
ag116
ag118
ag172
ag121
ag125
ag126
ag128
ag174
ag24
ag25
ag130
ag131
ag133
ag134
ag26
ag135
ag175
ag137
ag176
ag138
ag139
ag140
ag141
ag189
ag142
ag143
ag28
ag144
ag29
ag30
ag145
ag177
ag146
ag147
ag31
ag148
ag178
ag32
ag149
ag33
ag151
ag152
ag153
ag154
asS'corycorn'
p993
(lp994
g4
ag160
ag161
ag5
ag40
ag162
ag6
ag7
ag8
ag41
ag42
ag9
ag46
ag48
ag49
ag50
ag52
ag53
ag54
ag55
ag10
ag163
ag186
ag11
ag164
ag12
ag165
ag187
ag56
ag58
ag59
ag166
ag61
ag13
ag63
ag65
ag66
ag67
ag68
ag14
ag167
ag74
ag75
ag80
ag81
ag169
ag82
ag83
ag15
ag16
ag17
ag89
ag18
ag92
ag19
ag20
ag95
ag97
ag98
ag99
ag100
ag102
ag103
ag21
ag106
ag109
ag170
ag110
ag112
ag113
ag171
ag22
ag114
ag115
ag23
ag116
ag118
ag172
ag121
ag173
ag122
ag126
ag128
ag174
ag24
ag25
ag130
ag131
ag134
ag26
ag135
ag175
ag137
ag176
ag139
ag27
ag28
ag144
ag29
ag30
ag177
ag146
ag147
ag31
ag178
ag32
ag149
ag33
ag152
ag153
ag154
asS'sequsemp'
p995
(lp996
sS'dalespin'
p997
(lp998
sS'aescglab'
p999
(lp1000
g94
ag106
ag141
asS'acacberl'
p1001
(lp1002
sS'betupapy'
p1003
(lp1004
g4
ag40
ag6
ag7
ag8
ag41
ag9
ag48
ag52
ag54
ag10
ag163
ag11
ag164
ag12
ag187
ag166
ag61
ag13
ag63
ag65
ag67
ag14
ag78
ag18
ag20
ag21
ag171
ag115
ag23
ag172
ag126
ag174
ag25
ag131
ag135
ag137
ag27
ag143
ag28
ag30
ag177
ag152
asS'acerspic'
p1005
(lp1006
g4
ag160
ag185
ag161
ag5
ag40
ag162
ag6
ag7
ag8
ag41
ag42
ag43
ag9
ag45
ag46
ag47
ag48
ag49
ag50
ag52
ag53
ag54
ag55
ag10
ag163
ag186
ag11
ag164
ag12
ag165
ag187
ag56
ag59
ag166
ag13
ag63
ag65
ag67
ag68
ag70
ag14
ag167
ag80
ag168
ag81
ag169
ag83
ag89
ag18
ag94
ag19
ag20
ag95
ag97
ag98
ag100
ag21
ag106
ag170
ag112
ag113
ag171
ag22
ag114
ag115
ag23
ag116
ag118
ag172
ag173
ag122
ag126
ag174
ag24
ag25
ag130
ag131
ag134
ag26
ag135
ag175
ag137
ag176
ag139
ag27
ag141
ag28
ag29
ag30
ag177
ag146
ag178
ag32
ag149
ag152
ag153
ag155
asS'prunangu'
p1007
(lp1008
g72
ag123
asS'picechih'
p1009
(lp1010
sS'sorbamer'
p1011
(lp1012
g4
ag6
ag7
ag8
ag9
ag46
ag49
ag10
ag186
ag11
ag164
ag12
ag187
ag13
ag63
ag65
ag14
ag167
ag168
ag83
ag15
ag18
ag100
ag21
ag170
ag171
ag23
ag116
ag121
ag122
ag126
ag128
ag175
ag137
ag176
ag28
ag29
ag30
ag177
ag146
ag32
ag149
asS'quergeor'
p1013
(lp1014
sS'stewovat'
p1015
(lp1016
sS'acacwrig'
p1017
(lp1018
sS'prunmyrt'
p1019
(lp1020
sS'larilari'
p1021
(lp1022
g4
ag160
ag185
ag161
ag5
ag162
ag7
ag8
ag43
ag9
ag48
ag52
ag54
ag10
ag163
ag11
ag164
ag12
ag165
ag187
ag166
ag60
ag61
ag68
ag14
ag167
ag75
ag168
ag81
ag83
ag15
ag18
ag20
ag188
ag101
ag103
ag21
ag109
ag170
ag113
ag171
ag115
ag23
ag116
ag118
ag172
ag121
ag122
ag128
ag174
ag25
ag175
ag176
ag139
ag27
ag143
ag29
ag30
ag145
ag177
ag146
ag32
ag152
ag154
asS'licatria'
p1023
(lp1024
sS'abielasi'
p1025
(lp1026
sS'oxydarbo'
p1027
(lp1028
g94
ag100
ag106
asS'ilexambi'
p1029
(lp1030
sS'pinualbi'
p1031
(lp1032
sS'castchry'
p1033
(lp1034
sS'chamnoot'
p1035
(lp1036
sS'clifmono'
p1037
(lp1038
sS'magnmacr'
p1039
(lp1040
sS'ostrvirg'
p1041
(lp1042
g4
ag160
ag185
ag161
ag5
ag40
ag162
ag6
ag7
ag8
ag41
ag42
ag43
ag9
ag44
ag45
ag46
ag47
ag48
ag49
ag50
ag52
ag53
ag54
ag55
ag10
ag163
ag186
ag11
ag164
ag12
ag165
ag187
ag56
ag57
ag58
ag59
ag166
ag60
ag61
ag13
ag63
ag64
ag65
ag66
ag67
ag68
ag69
ag70
ag14
ag71
ag73
ag167
ag74
ag75
ag78
ag79
ag80
ag168
ag81
ag169
ag82
ag83
ag15
ag16
ag17
ag85
ag88
ag89
ag90
ag18
ag91
ag92
ag94
ag19
ag20
ag95
ag96
ag97
ag188
ag98
ag99
ag100
ag101
ag102
ag103
ag21
ag105
ag106
ag107
ag109
ag170
ag110
ag112
ag113
ag171
ag22
ag114
ag115
ag23
ag116
ag118
ag172
ag121
ag173
ag122
ag125
ag126
ag128
ag174
ag24
ag25
ag130
ag131
ag134
ag26
ag135
ag175
ag136
ag137
ag176
ag138
ag139
ag140
ag27
ag141
ag189
ag142
ag143
ag28
ag144
ag29
ag30
ag145
ag177
ag146
ag147
ag31
ag148
ag178
ag32
ag149
ag33
ag152
ag153
ag154
ag155
asS'cornsess'
p1043
(lp1044
sS'myriinod'
p1045
(lp1046
sS'cercledi'
p1047
(lp1048
sS'condglob'
p1049
(lp1050
sS'cuprguad'
p1051
(lp1052
sS'junivirg'
p1053
(lp1054
g4
ag160
ag161
ag5
ag40
ag162
ag6
ag7
ag8
ag42
ag9
ag44
ag49
ag50
ag51
ag53
ag54
ag55
ag10
ag11
ag12
ag165
ag187
ag57
ag58
ag60
ag61
ag13
ag62
ag63
ag64
ag66
ag68
ag69
ag70
ag14
ag71
ag72
ag75
ag76
ag77
ag78
ag79
ag168
ag81
ag169
ag82
ag15
ag16
ag84
ag17
ag85
ag86
ag87
ag88
ag90
ag18
ag91
ag92
ag93
ag94
ag19
ag20
ag95
ag96
ag98
ag99
ag101
ag102
ag103
ag21
ag104
ag105
ag106
ag107
ag108
ag109
ag170
ag110
ag111
ag114
ag115
ag23
ag116
ag117
ag119
ag120
ag121
ag123
ag124
ag125
ag127
ag128
ag129
ag174
ag24
ag25
ag130
ag131
ag132
ag133
ag26
ag135
ag136
ag137
ag138
ag143
ag28
ag144
ag29
ag30
ag145
ag177
ag147
ag31
ag148
ag32
ag149
ag33
ag150
ag151
ag152
ag153
ag154
ag155
asS'caesmexi'
p1055
(lp1056
sS'saliluci'
p1057
(lp1058
g4
ag160
ag185
ag161
ag5
ag162
ag6
ag7
ag9
ag45
ag46
ag47
ag48
ag49
ag54
ag10
ag163
ag186
ag11
ag164
ag12
ag165
ag187
ag58
ag59
ag166
ag60
ag61
ag13
ag68
ag14
ag167
ag74
ag75
ag78
ag168
ag81
ag169
ag83
ag18
ag20
ag96
ag97
ag188
ag100
ag101
ag103
ag21
ag106
ag107
ag109
ag170
ag171
ag23
ag172
ag121
ag122
ag126
ag128
ag174
ag24
ag25
ag131
ag135
ag137
ag176
ag139
ag140
ag27
ag189
ag142
ag143
ag28
ag29
ag30
ag145
ag177
ag146
ag31
ag178
ag152
ag155
asS'quertome'
p1059
(lp1060
sS'foreangu'
p1061
(lp1062
sS'sapisapo'
p1063
(lp1064
sS'rhuslanc'
p1065
(lp1066
sS'sabamexi'
p1067
(lp1068
sS'foresegr'
p1069
(lp1070
sS'piscpisc'
p1071
(lp1072
sS'pinuedul'
p1073
(lp1074
sS'hamepate'
p1075
(lp1076
sS'arbuariz'
p1077
(lp1078
sS'opunfulg'
p1079
(lp1080
sS'acacroem'
p1081
(lp1082
sS'pinulong'
p1083
(lp1084
sS'ilexamel'
p1085
(lp1086
sS'cuprgove'
p1087
(lp1088
sS'junieryt'
p1089
(lp1090
sS'ceanspin'
p1091
(lp1092
sS'acerpens'
p1093
(lp1094
g4
ag161
ag5
ag40
ag162
ag6
ag7
ag8
ag41
ag42
ag9
ag45
ag46
ag48
ag49
ag50
ag52
ag53
ag54
ag55
ag10
ag163
ag186
ag11
ag164
ag12
ag165
ag187
ag56
ag59
ag166
ag13
ag63
ag65
ag66
ag67
ag68
ag70
ag14
ag167
ag80
ag81
ag169
ag82
ag83
ag16
ag89
ag18
ag91
ag19
ag20
ag95
ag97
ag98
ag100
ag21
ag170
ag112
ag113
ag171
ag22
ag114
ag115
ag23
ag116
ag118
ag172
ag173
ag122
ag126
ag24
ag25
ag130
ag131
ag134
ag135
ag175
ag137
ag176
ag139
ag27
ag142
ag28
ag144
ag29
ag30
ag177
ag146
ag178
ag32
ag149
ag33
ag152
ag153
asS'salihind'
p1095
(lp1096
sS'taxodist'
p1097
(lp1098
g76
ag108
ag111
ag117
ag123
asS'cithberl'
p1099
(lp1100
sS'cornglab'
p1101
(lp1102
sS'sheparge'
p1103
(lp1104
sS'salitrac'
p1105
(lp1106
sS'celtlaev'
p1107
(lp1108
sS'pinumich'
p1109
(lp1110
sS'sorbsitc'
p1111
(lp1112
sS'chilline'
p1113
(lp1114
sS'zantamer'
p1115
(lp1116
g4
ag5
ag162
ag7
ag9
ag44
ag53
ag10
ag11
ag12
ag58
ag61
ag13
ag14
ag75
ag168
ag81
ag169
ag15
ag16
ag91
ag92
ag103
ag21
ag109
ag170
ag23
ag121
ag128
ag174
ag24
ag25
ag131
ag134
ag175
ag137
ag176
ag143
ag145
ag146
ag31
ag32
ag152
ag154
asS'cappflex'
p1117
(lp1118
sS'rapapunc'
p1119
(lp1120
sS'ellirace'
p1121
(lp1122
sS'cordsebe'
p1123
(lp1124
sS'querchap'
p1125
(lp1126
sS'ulmucras'
p1127
(lp1128
sS'salitaxi'
p1129
(lp1130
sS'calyzuzy'
p1131
(lp1132
sS'querglau'
p1133
(lp1134
sS'pinucoul'
p1135
(lp1136
sS'pinupseu'
p1137
(lp1138
sS'caryovat'
p1139
(lp1140
g4
ag160
ag185
ag161
ag5
ag40
ag162
ag6
ag7
ag8
ag41
ag42
ag43
ag9
ag44
ag45
ag46
ag47
ag48
ag49
ag50
ag51
ag52
ag53
ag54
ag55
ag10
ag186
ag11
ag12
ag165
ag187
ag56
ag57
ag58
ag59
ag60
ag61
ag13
ag62
ag63
ag64
ag65
ag66
ag67
ag68
ag69
ag70
ag14
ag71
ag73
ag74
ag75
ag77
ag78
ag79
ag80
ag168
ag81
ag169
ag82
ag83
ag15
ag16
ag17
ag85
ag87
ag88
ag89
ag90
ag18
ag91
ag92
ag94
ag19
ag20
ag95
ag96
ag97
ag188
ag98
ag99
ag100
ag101
ag102
ag103
ag21
ag105
ag106
ag107
ag109
ag170
ag110
ag112
ag113
ag22
ag114
ag115
ag23
ag116
ag118
ag119
ag120
ag121
ag173
ag122
ag125
ag126
ag128
ag174
ag24
ag25
ag130
ag131
ag133
ag134
ag26
ag135
ag175
ag137
ag176
ag138
ag139
ag140
ag27
ag141
ag189
ag142
ag143
ag28
ag144
ag145
ag177
ag146
ag147
ag31
ag178
ag32
ag149
ag33
ag151
ag152
ag153
ag154
ag155
asS'taxuflor'
p1141
(lp1142
sS'styrgran'
p1143
(lp1144
sS'rhusmicr'
p1145
(lp1146
sS'quermich'
p1147
(lp1148
g51
ag57
ag62
ag71
ag72
ag76
ag77
ag79
ag84
ag86
ag87
ag90
ag108
ag111
ag117
ag119
ag120
ag123
ag128
ag129
ag136
ag148
ag150
asS'acersacr'
p1149
(lp1150
g4
ag160
ag185
ag161
ag5
ag40
ag162
ag6
ag7
ag8
ag41
ag42
ag43
ag9
ag44
ag45
ag46
ag47
ag48
ag49
ag50
ag52
ag53
ag54
ag55
ag10
ag163
ag186
ag11
ag164
ag12
ag165
ag187
ag56
ag58
ag59
ag166
ag60
ag61
ag13
ag63
ag64
ag65
ag66
ag67
ag68
ag69
ag70
ag14
ag71
ag73
ag167
ag74
ag75
ag78
ag80
ag168
ag81
ag169
ag82
ag83
ag15
ag16
ag17
ag85
ag89
ag18
ag91
ag92
ag94
ag19
ag20
ag95
ag96
ag97
ag188
ag98
ag99
ag100
ag101
ag102
ag103
ag21
ag105
ag106
ag107
ag109
ag170
ag110
ag112
ag113
ag171
ag22
ag114
ag115
ag23
ag116
ag118
ag172
ag121
ag173
ag122
ag126
ag128
ag174
ag24
ag25
ag130
ag131
ag134
ag26
ag135
ag175
ag137
ag176
ag138
ag139
ag140
ag27
ag141
ag189
ag142
ag143
ag28
ag144
ag29
ag30
ag145
ag177
ag146
ag147
ag31
ag178
ag32
ag149
ag33
ag152
ag153
ag154
ag155
asS'pinuclau'
p1151
(lp1152
sS'pinubank'
p1153
(lp1154
sS'vibunudu'
p1155
(lp1156
g51
ag62
ag72
ag76
ag77
ag78
ag15
ag84
ag17
ag86
ag87
ag90
ag93
ag104
ag107
ag111
ag119
ag120
ag123
ag124
ag127
ag128
ag132
ag136
ag145
ag148
ag149
ag150
ag151
asS'fraxpapi'
p1157
(lp1158
sS'quertoum'
p1159
(lp1160
sS'pinumaxi'
p1161
(lp1162
sS'picerube'
p1163
(lp1164
g6
ag8
ag163
ag164
ag187
ag166
ag61
ag167
ag18
ag92
ag21
ag109
ag171
ag115
ag23
ag116
ag172
ag128
ag175
ag28
ag29
ag30
asS'popubals'
p1165
(lp1166
g160
ag162
ag7
ag8
ag9
ag11
ag164
ag12
ag165
ag166
ag13
ag64
ag65
ag70
ag14
ag168
ag18
ag20
ag98
ag106
ag170
ag171
ag174
ag25
ag26
ag135
ag30
ag177
ag178
ag32
ag149
ag155
asS'liqustyr'
p1167
(lp1168
g51
ag58
ag60
ag62
ag64
ag71
ag72
ag75
ag76
ag77
ag79
ag84
ag86
ag87
ag90
ag92
ag93
ag96
ag99
ag102
ag104
ag107
ag108
ag109
ag111
ag117
ag119
ag120
ag123
ag124
ag125
ag127
ag128
ag129
ag132
ag133
ag136
ag145
ag148
ag150
ag151
asS'querprin'
p1169
(lp1170
g4
ag160
ag185
ag161
ag5
ag40
ag162
ag7
ag8
ag41
ag42
ag43
ag44
ag47
ag49
ag50
ag51
ag53
ag54
ag55
ag10
ag11
ag12
ag165
ag187
ag57
ag58
ag59
ag60
ag61
ag13
ag62
ag63
ag64
ag66
ag69
ag70
ag14
ag71
ag73
ag74
ag75
ag77
ag78
ag79
ag168
ag81
ag169
ag82
ag15
ag16
ag84
ag17
ag85
ag87
ag88
ag89
ag90
ag91
ag92
ag93
ag94
ag19
ag20
ag95
ag96
ag98
ag99
ag100
ag101
ag102
ag103
ag21
ag104
ag105
ag106
ag107
ag109
ag170
ag110
ag22
ag114
ag115
ag23
ag116
ag117
ag119
ag120
ag121
ag123
ag124
ag125
ag127
ag128
ag174
ag24
ag25
ag130
ag131
ag132
ag133
ag134
ag26
ag135
ag136
ag137
ag138
ag139
ag140
ag141
ag142
ag143
ag144
ag145
ag147
ag31
ag148
ag32
ag149
ag33
ag151
ag152
ag153
ag154
asS'lysimicr'
p1171
(lp1172
sS'querfalc'
p1173
(lp1174
g51
ag57
ag62
ag72
ag76
ag77
ag79
ag84
ag86
ag87
ag90
ag93
ag104
ag108
ag111
ag117
ag119
ag120
ag123
ag124
ag127
ag129
ag132
ag133
ag136
ag138
ag148
ag150
asS'viburufi'
p1175
(lp1176
sS'yuccfaxo'
p1177
(lp1178
sS'solaeria'
p1179
(lp1180
sS'geniclus'
p1181
(lp1182
sS'conoerec'
p1183
(lp1184
sS'fraxpenn'
p1185
(lp1186
g4
ag160
ag185
ag161
ag5
ag40
ag162
ag6
ag7
ag8
ag41
ag42
ag43
ag9
ag44
ag45
ag46
ag47
ag48
ag49
ag50
ag51
ag52
ag53
ag54
ag55
ag10
ag163
ag186
ag11
ag164
ag12
ag165
ag187
ag56
ag57
ag58
ag59
ag166
ag60
ag61
ag13
ag62
ag63
ag64
ag65
ag66
ag67
ag68
ag69
ag70
ag14
ag71
ag72
ag73
ag167
ag74
ag75
ag76
ag77
ag78
ag79
ag80
ag168
ag81
ag169
ag82
ag83
ag15
ag16
ag84
ag17
ag85
ag86
ag87
ag88
ag89
ag90
ag18
ag91
ag92
ag93
ag94
ag19
ag20
ag95
ag96
ag97
ag188
ag98
ag99
ag100
ag101
ag102
ag103
ag21
ag104
ag105
ag106
ag107
ag108
ag109
ag170
ag110
ag111
ag112
ag113
ag171
ag22
ag114
ag115
ag23
ag116
ag117
ag118
ag119
ag120
ag172
ag121
ag173
ag122
ag123
ag124
ag125
ag126
ag127
ag128
ag129
ag174
ag24
ag25
ag130
ag131
ag132
ag133
ag134
ag26
ag135
ag175
ag136
ag137
ag176
ag138
ag139
ag140
ag27
ag141
ag189
ag142
ag143
ag28
ag144
ag29
ag30
ag145
ag177
ag146
ag147
ag31
ag148
ag178
ag32
ag149
ag33
ag150
ag151
ag152
ag153
ag154
ag155
asS'celtocci'
p1187
(lp1188
g4
ag160
ag185
ag161
ag5
ag7
ag8
ag42
ag9
ag44
ag49
ag51
ag52
ag11
ag165
ag57
ag58
ag60
ag61
ag13
ag62
ag63
ag64
ag66
ag67
ag68
ag69
ag70
ag14
ag71
ag72
ag75
ag76
ag77
ag78
ag79
ag81
ag169
ag82
ag15
ag16
ag84
ag17
ag85
ag86
ag87
ag88
ag89
ag90
ag91
ag92
ag93
ag94
ag20
ag95
ag96
ag98
ag99
ag101
ag102
ag103
ag104
ag105
ag106
ag108
ag109
ag170
ag110
ag111
ag114
ag23
ag117
ag119
ag120
ag172
ag121
ag173
ag123
ag124
ag125
ag127
ag128
ag129
ag174
ag24
ag25
ag131
ag132
ag133
ag134
ag26
ag135
ag136
ag176
ag138
ag27
ag143
ag144
ag145
ag177
ag31
ag148
ag32
ag33
ag150
ag151
ag153
ag154
asS'salinigr'
p1189
(lp1190
g4
ag160
ag185
ag161
ag5
ag40
ag162
ag7
ag8
ag41
ag42
ag43
ag44
ag45
ag46
ag47
ag48
ag49
ag50
ag51
ag52
ag53
ag54
ag55
ag10
ag11
ag12
ag165
ag187
ag56
ag57
ag58
ag59
ag60
ag61
ag13
ag62
ag63
ag64
ag65
ag66
ag67
ag68
ag69
ag70
ag14
ag71
ag72
ag73
ag74
ag75
ag76
ag77
ag78
ag79
ag168
ag81
ag169
ag82
ag83
ag15
ag16
ag84
ag17
ag85
ag86
ag87
ag88
ag89
ag90
ag91
ag92
ag94
ag19
ag20
ag95
ag96
ag97
ag188
ag98
ag99
ag100
ag101
ag102
ag103
ag21
ag105
ag106
ag107
ag108
ag109
ag110
ag111
ag112
ag22
ag114
ag115
ag116
ag117
ag119
ag120
ag121
ag173
ag122
ag123
ag125
ag126
ag128
ag129
ag174
ag24
ag130
ag131
ag133
ag134
ag26
ag135
ag136
ag137
ag138
ag139
ag140
ag27
ag141
ag189
ag142
ag143
ag144
ag145
ag177
ag147
ag31
ag148
ag178
ag32
ag149
ag33
ag150
ag151
ag152
ag153
ag154
ag155
asS'robivisc'
p1191
(lp1192
sS'rhamcroc'
p1193
(lp1194
sS'avicgerm'
p1195
(lp1196
sS'prospube'
p1197
(lp1198
sS'koebspin'
p1199
(lp1200
sS'cererobi'
p1201
(lp1202
sS'psidlong'
p1203
(lp1204
sS'junisili'
p1205
(lp1206
sS'junioste'
p1207
(lp1208
sS'surimari'
p1209
(lp1210
sS'bumecela'
p1211
(lp1212
sS'querhypo'
p1213
(lp1214
sS'pithflex'
p1215
(lp1216
sS'quernutt'
p1217
(lp1218
sS'thrimorr'
p1219
(lp1220
sS'yuccelat'
p1221
(lp1222
sS'sambcana'
p1223
(lp1224
g4
ag160
ag185
ag161
ag5
ag40
ag162
ag6
ag7
ag8
ag41
ag42
ag43
ag9
ag44
ag45
ag46
ag47
ag48
ag49
ag50
ag51
ag52
ag53
ag54
ag55
ag10
ag163
ag186
ag11
ag164
ag12
ag165
ag187
ag56
ag57
ag58
ag59
ag166
ag60
ag61
ag13
ag62
ag63
ag64
ag65
ag66
ag67
ag68
ag69
ag70
ag14
ag71
ag72
ag73
ag167
ag74
ag75
ag76
ag77
ag78
ag79
ag80
ag168
ag81
ag169
ag82
ag83
ag15
ag16
ag84
ag17
ag85
ag86
ag87
ag88
ag89
ag90
ag18
ag91
ag92
ag93
ag94
ag19
ag20
ag95
ag96
ag97
ag188
ag98
ag99
ag100
ag101
ag102
ag103
ag21
ag104
ag105
ag106
ag107
ag108
ag109
ag170
ag110
ag111
ag112
ag113
ag171
ag22
ag114
ag115
ag23
ag116
ag117
ag118
ag119
ag120
ag172
ag121
ag173
ag122
ag123
ag124
ag125
ag126
ag127
ag128
ag129
ag174
ag24
ag25
ag130
ag131
ag132
ag133
ag134
ag26
ag135
ag175
ag136
ag137
ag176
ag138
ag139
ag140
ag27
ag141
ag189
ag142
ag143
ag28
ag144
ag29
ag30
ag145
ag177
ag146
ag147
ag31
ag148
ag178
ag32
ag149
ag33
ag150
ag151
ag152
ag153
ag154
ag155
asS'pisorotu'
p1225
(lp1226
sS'picrpent'
p1227
(lp1228
sS'cerctras'
p1229
(lp1230
sS'ulmuthom'
p1231
(lp1232
g160
ag161
ag5
ag162
ag7
ag9
ag11
ag165
ag187
ag14
ag168
ag20
ag106
ag170
ag121
ag174
ag176
ag27
ag178
ag152
asS'coluarbo'
p1233
(lp1234
sS'agavutah'
p1235
(lp1236
sS'ostrchis'
p1237
(lp1238
sS'prunsero'
p1239
(lp1240
g4
ag160
ag185
ag161
ag5
ag40
ag162
ag6
ag7
ag8
ag41
ag42
ag43
ag9
ag44
ag45
ag46
ag47
ag48
ag49
ag50
ag51
ag52
ag53
ag54
ag55
ag10
ag163
ag186
ag11
ag164
ag12
ag165
ag187
ag56
ag57
ag58
ag59
ag166
ag60
ag61
ag13
ag62
ag63
ag64
ag65
ag66
ag67
ag68
ag69
ag70
ag14
ag71
ag72
ag73
ag167
ag74
ag75
ag76
ag77
ag78
ag79
ag80
ag168
ag81
ag169
ag82
ag83
ag15
ag16
ag84
ag17
ag85
ag86
ag87
ag88
ag89
ag90
ag18
ag91
ag92
ag93
ag94
ag19
ag20
ag95
ag96
ag97
ag188
ag98
ag99
ag100
ag101
ag102
ag103
ag21
ag104
ag105
ag106
ag107
ag108
ag109
ag170
ag110
ag111
ag112
ag113
ag171
ag22
ag114
ag115
ag23
ag116
ag117
ag118
ag119
ag120
ag172
ag121
ag173
ag122
ag123
ag124
ag125
ag126
ag127
ag128
ag129
ag174
ag24
ag25
ag130
ag131
ag132
ag133
ag134
ag26
ag135
ag175
ag136
ag137
ag176
ag138
ag139
ag140
ag27
ag141
ag189
ag142
ag143
ag28
ag144
ag29
ag30
ag145
ag177
ag146
ag147
ag31
ag148
ag178
ag32
ag149
ag33
ag150
ag151
ag152
ag153
ag154
ag155
asS'pinutaed'
p1241
(lp1242
g76
ag84
ag86
ag87
ag104
ag108
ag111
ag117
ag119
ag120
ag123
ag129
ag150
asS'rhodcata'
p1243
(lp1244
sS'sambmela'
p1245
(lp1246
sS'rhamcali'
p1247
(lp1248
sS'yucctorr'
p1249
(lp1250
sS'saliflor'
p1251
(lp1252
sS'querkell'
p1253
(lp1254
sS'tiliamer'
p1255
(lp1256
g4
ag160
ag185
ag161
ag5
ag40
ag162
ag6
ag7
ag8
ag41
ag42
ag43
ag9
ag44
ag45
ag46
ag47
ag48
ag49
ag50
ag52
ag53
ag54
ag55
ag10
ag163
ag186
ag11
ag164
ag12
ag165
ag187
ag56
ag58
ag59
ag166
ag60
ag61
ag13
ag63
ag64
ag65
ag66
ag67
ag68
ag70
ag14
ag71
ag73
ag167
ag74
ag75
ag78
ag80
ag168
ag81
ag169
ag82
ag83
ag15
ag16
ag17
ag88
ag89
ag18
ag91
ag92
ag94
ag19
ag20
ag95
ag96
ag97
ag188
ag98
ag99
ag100
ag101
ag102
ag103
ag21
ag106
ag107
ag109
ag170
ag110
ag112
ag113
ag171
ag22
ag114
ag115
ag23
ag116
ag117
ag118
ag172
ag121
ag173
ag122
ag125
ag126
ag128
ag174
ag24
ag25
ag130
ag131
ag133
ag134
ag26
ag135
ag175
ag137
ag176
ag139
ag140
ag27
ag141
ag189
ag142
ag143
ag28
ag144
ag29
ag30
ag145
ag177
ag146
ag147
ag31
ag178
ag32
ag149
ag33
ag151
ag152
ag153
ag154
ag155
asS'bumelyci'
p1257
(lp1258
sS'juglhind'
p1259
(lp1260
sS'celtreti'
p1261
(lp1262
sS'magnacum'
p1263
(lp1264
g160
ag185
ag5
ag162
ag43
ag9
ag45
ag46
ag47
ag49
ag52
ag165
ag59
ag13
ag66
ag68
ag70
ag14
ag73
ag74
ag168
ag82
ag83
ag89
ag94
ag20
ag95
ag188
ag100
ag106
ag170
ag110
ag126
ag174
ag134
ag139
ag140
ag141
ag189
ag142
ag144
ag31
ag178
ag149
ag152
ag155
asS'pinulumh'
p1265
(lp1266
sS'leitflor'
p1267
(lp1268
sS'acacgreg'
p1269
(lp1270
sS'acacfarn'
p1271
(lp1272
sS'pinumtez'
p1273
(lp1274
sS'pinurigi'
p1275
(lp1276
g4
ag185
ag40
ag7
ag8
ag41
ag42
ag43
ag9
ag44
ag45
ag47
ag49
ag50
ag51
ag53
ag54
ag55
ag10
ag187
ag57
ag58
ag59
ag60
ag61
ag13
ag62
ag63
ag64
ag65
ag66
ag69
ag70
ag14
ag71
ag73
ag74
ag75
ag77
ag78
ag79
ag81
ag82
ag83
ag15
ag16
ag84
ag17
ag85
ag87
ag88
ag89
ag90
ag91
ag92
ag93
ag94
ag19
ag20
ag95
ag96
ag98
ag99
ag100
ag101
ag102
ag103
ag21
ag104
ag105
ag106
ag107
ag109
ag110
ag22
ag114
ag115
ag116
ag119
ag120
ag121
ag124
ag125
ag126
ag127
ag128
ag24
ag130
ag131
ag132
ag133
ag134
ag26
ag135
ag136
ag137
ag138
ag139
ag140
ag141
ag143
ag144
ag145
ag147
ag31
ag148
ag32
ag149
ag33
ag151
ag152
ag153
ag154
asS'reynsept'
p1277
(lp1278
sS'hypetrif'
p1279
(lp1280
sS'chamlaws'
p1281
(lp1282
sS'guetelli'
p1283
(lp1284
sS'quercocc'
p1285
(lp1286
g4
ag160
ag185
ag5
ag8
ag42
ag43
ag44
ag47
ag49
ag51
ag54
ag10
ag57
ag58
ag59
ag60
ag61
ag13
ag62
ag64
ag66
ag68
ag69
ag70
ag14
ag71
ag72
ag73
ag74
ag75
ag76
ag77
ag78
ag79
ag82
ag15
ag16
ag84
ag17
ag85
ag86
ag87
ag88
ag89
ag90
ag91
ag92
ag93
ag94
ag19
ag20
ag95
ag96
ag98
ag99
ag100
ag101
ag102
ag103
ag21
ag104
ag105
ag106
ag107
ag108
ag109
ag110
ag111
ag112
ag113
ag114
ag115
ag116
ag117
ag119
ag120
ag121
ag123
ag124
ag125
ag127
ag128
ag129
ag24
ag131
ag132
ag133
ag134
ag26
ag135
ag136
ag137
ag138
ag139
ag142
ag143
ag144
ag145
ag146
ag147
ag31
ag148
ag32
ag149
ag33
ag150
ag151
ag152
ag153
ag154
asS'pseusarg'
p1287
(lp1288
sS'salibonp'
p1289
(lp1290
sS'querhava'
p1291
(lp1292
sS'querbico'
p1293
(lp1294
g160
ag185
ag162
ag7
ag8
ag42
ag43
ag9
ag44
ag45
ag49
ag50
ag51
ag55
ag11
ag165
ag57
ag58
ag59
ag60
ag61
ag13
ag62
ag63
ag64
ag68
ag69
ag70
ag14
ag71
ag75
ag77
ag78
ag79
ag168
ag169
ag15
ag16
ag17
ag85
ag88
ag89
ag90
ag91
ag92
ag94
ag19
ag20
ag95
ag96
ag98
ag99
ag101
ag102
ag103
ag105
ag106
ag107
ag109
ag170
ag110
ag114
ag115
ag116
ag125
ag128
ag174
ag24
ag25
ag130
ag133
ag134
ag26
ag135
ag136
ag137
ag176
ag138
ag140
ag141
ag189
ag142
ag143
ag144
ag145
ag177
ag31
ag148
ag32
ag33
ag151
ag152
ag153
ag154
asS'myripens'
p1295
(lp1296
g4
ag8
ag51
ag58
ag60
ag61
ag62
ag64
ag71
ag75
ag76
ag77
ag78
ag79
ag84
ag90
ag93
ag19
ag96
ag101
ag102
ag103
ag104
ag107
ag109
ag120
ag123
ag124
ag125
ag127
ag132
ag133
ag136
ag143
ag145
ag31
ag148
ag151
ag153
ag155
asS'foreacum'
p1297
(lp1298
sS'fagugran'
p1299
(lp1300
g4
ag160
ag185
ag161
ag5
ag40
ag162
ag6
ag7
ag8
ag41
ag42
ag43
ag9
ag44
ag45
ag46
ag47
ag48
ag49
ag50
ag51
ag52
ag53
ag54
ag55
ag10
ag163
ag186
ag11
ag164
ag12
ag165
ag187
ag56
ag57
ag58
ag59
ag166
ag60
ag61
ag13
ag62
ag63
ag64
ag65
ag66
ag67
ag68
ag69
ag70
ag14
ag71
ag72
ag73
ag167
ag74
ag75
ag76
ag77
ag78
ag79
ag80
ag168
ag81
ag169
ag82
ag83
ag15
ag16
ag84
ag17
ag85
ag86
ag87
ag88
ag89
ag90
ag18
ag91
ag92
ag93
ag94
ag19
ag20
ag95
ag96
ag97
ag188
ag98
ag99
ag100
ag101
ag102
ag103
ag21
ag104
ag105
ag106
ag107
ag108
ag109
ag170
ag110
ag111
ag112
ag113
ag171
ag22
ag114
ag115
ag23
ag116
ag117
ag118
ag119
ag120
ag172
ag121
ag173
ag122
ag123
ag124
ag125
ag126
ag127
ag128
ag129
ag174
ag24
ag25
ag130
ag131
ag132
ag133
ag134
ag26
ag135
ag175
ag136
ag137
ag176
ag138
ag139
ag140
ag27
ag141
ag189
ag142
ag143
ag28
ag144
ag29
ag30
ag145
ag177
ag146
ag147
ag31
ag148
ag178
ag32
ag149
ag33
ag150
ag151
ag152
ag153
ag154
ag155
asS'amyrelem'
p1301
(lp1302
sS'asimparv'
p1303
(lp1304
sS'magntrip'
p1305
(lp1306
g136
asS'pinuenge'
p1307
(lp1308
sS'fraxquad'
p1309
(lp1310
sS'querajoe'
p1311
(lp1312
sS'cornflor'
p1313
(lp1314
g4
ag160
ag185
ag161
ag5
ag40
ag7
ag8
ag42
ag43
ag9
ag44
ag45
ag47
ag48
ag49
ag50
ag51
ag53
ag54
ag55
ag10
ag11
ag12
ag165
ag56
ag57
ag58
ag59
ag60
ag61
ag13
ag62
ag63
ag64
ag65
ag66
ag68
ag69
ag70
ag14
ag71
ag72
ag73
ag74
ag75
ag76
ag77
ag78
ag79
ag168
ag169
ag82
ag15
ag16
ag84
ag17
ag85
ag86
ag87
ag88
ag89
ag90
ag91
ag92
ag93
ag94
ag19
ag20
ag95
ag96
ag98
ag99
ag100
ag101
ag102
ag103
ag21
ag104
ag105
ag106
ag107
ag108
ag109
ag170
ag110
ag111
ag22
ag114
ag115
ag117
ag119
ag120
ag121
ag123
ag124
ag125
ag127
ag128
ag129
ag174
ag24
ag130
ag131
ag132
ag133
ag26
ag135
ag136
ag137
ag138
ag139
ag140
ag141
ag189
ag142
ag143
ag144
ag145
ag147
ag31
ag148
ag32
ag149
ag33
ag150
ag151
ag152
ag153
ag154
asS'cercmacr'
p1315
(lp1316
sS'acactort'
p1317
(lp1318
sS'guetscab'
p1319
(lp1320
sS'queremor'
p1321
(lp1322
sS'cratcolu'
p1323
(lp1324
sS'stapbola'
p1325
(lp1326
sS'diphsali'
p1327
(lp1328
sS'platocci'
p1329
(lp1330
g4
ag160
ag185
ag161
ag5
ag40
ag162
ag6
ag7
ag8
ag41
ag42
ag43
ag9
ag44
ag45
ag46
ag47
ag48
ag49
ag50
ag51
ag52
ag53
ag54
ag55
ag10
ag186
ag11
ag165
ag187
ag56
ag57
ag58
ag59
ag60
ag61
ag13
ag62
ag63
ag64
ag65
ag66
ag67
ag68
ag69
ag70
ag14
ag71
ag72
ag73
ag74
ag75
ag76
ag77
ag78
ag79
ag80
ag168
ag81
ag169
ag82
ag83
ag15
ag16
ag84
ag17
ag85
ag86
ag87
ag88
ag89
ag90
ag91
ag92
ag93
ag94
ag19
ag20
ag95
ag96
ag97
ag188
ag98
ag99
ag100
ag101
ag102
ag103
ag21
ag104
ag105
ag106
ag107
ag108
ag109
ag170
ag110
ag111
ag112
ag113
ag22
ag114
ag115
ag116
ag117
ag118
ag119
ag120
ag121
ag173
ag122
ag123
ag124
ag125
ag126
ag127
ag128
ag129
ag174
ag24
ag25
ag130
ag131
ag132
ag133
ag134
ag26
ag135
ag175
ag136
ag137
ag176
ag138
ag139
ag140
ag141
ag189
ag142
ag143
ag28
ag144
ag145
ag147
ag31
ag148
ag178
ag32
ag149
ag33
ag150
ag151
ag152
ag153
ag154
ag155
asS'pseumacr'
p1331
(lp1332
sS'quermacr'
p1333
(lp1334
g160
ag162
ag7
ag9
ag53
ag10
ag12
ag165
ag59
ag13
ag66
ag68
ag70
ag14
ag168
ag169
ag82
ag89
ag91
ag94
ag20
ag95
ag106
ag170
ag110
ag119
ag172
ag174
ag25
ag131
ag135
ag176
ag27
ag177
ag32
ag152
asS'querlyra'
p1335
(lp1336
g72
ag76
ag90
ag111
ag117
ag120
ag123
ag129
asS'zantfaga'
p1337
(lp1338
sS'sererepe'
p1339
(lp1340
sS'querlaev'
p1341
(lp1342
sS'pinulamb'
p1343
(lp1344
sS'crosrhac'
p1345
(lp1346
sS'querelli'
p1347
(lp1348
sS'vauqcali'
p1349
(lp1350
sS'sorbdeco'
p1351
(lp1352
g6
ag14
ag28
ag30
asS'pinuleio'
p1353
(lp1354
sS'fremcali'
p1355
(lp1356
sS'taxubrev'
p1357
(lp1358
sS'asimtril'
p1359
(lp1360
g160
ag42
ag44
ag49
ag53
ag57
ag13
ag63
ag66
ag69
ag70
ag72
ag74
ag79
ag168
ag82
ag16
ag17
ag85
ag87
ag88
ag91
ag94
ag20
ag95
ag98
ag105
ag106
ag110
ag114
ag117
ag119
ag124
ag129
ag174
ag24
ag26
ag136
ag138
ag144
ag31
ag148
ag149
ag33
ag150
ag153
ag155
asS'ceanthyr'
p1361
(lp1362
sS'querrugo'
p1363
(lp1364
sS'cappcyno'
p1365
(lp1366
sS'bourradu'
p1367
(lp1368
sS'popufrem'
p1369
(lp1370
sS'junidepp'
p1371
(lp1372
sS'hippmanc'
p1373
(lp1374
sS'gymndioi'
p1375
(lp1376
g9
ag47
ag165
ag149
asS'sophsecu'
p1377
(lp1378
sS'olneteso'
p1379
(lp1380
sS'styramer'
p1381
(lp1382
sS'chryoliv'
p1383
(lp1384
sS'holaemor'
p1385
(lp1386
sS'leucpulv'
p1387
(lp1388
sS'querenge'
p1389
(lp1390
sS'vauqpauc'
p1391
(lp1392
sS'pinustro'
p1393
(lp1394
sS'umbecali'
p1395
(lp1396
sS'querpalu'
p1397
(lp1398
g4
ag42
ag43
ag44
ag49
ag51
ag53
ag57
ag58
ag60
ag61
ag62
ag64
ag69
ag70
ag71
ag72
ag74
ag75
ag76
ag77
ag78
ag79
ag15
ag16
ag84
ag17
ag85
ag86
ag87
ag88
ag90
ag91
ag92
ag94
ag95
ag96
ag98
ag99
ag101
ag102
ag105
ag106
ag108
ag109
ag110
ag111
ag114
ag117
ag119
ag120
ag123
ag125
ag129
ag174
ag131
ag26
ag135
ag136
ag138
ag141
ag189
ag143
ag144
ag145
ag31
ag148
ag32
ag33
ag150
ag151
ag153
ag155
asS'manibaha'
p1399
(lp1400
sS'popugran'
p1401
(lp1402
g4
ag160
ag185
ag161
ag5
ag40
ag162
ag6
ag7
ag8
ag41
ag42
ag43
ag9
ag44
ag45
ag46
ag47
ag48
ag49
ag50
ag51
ag52
ag53
ag54
ag55
ag10
ag163
ag186
ag11
ag164
ag12
ag165
ag187
ag56
ag57
ag58
ag59
ag166
ag60
ag61
ag13
ag62
ag63
ag64
ag65
ag66
ag67
ag68
ag69
ag70
ag14
ag71
ag73
ag167
ag74
ag75
ag76
ag77
ag78
ag79
ag80
ag168
ag81
ag169
ag82
ag83
ag15
ag16
ag84
ag17
ag85
ag87
ag88
ag89
ag90
ag18
ag91
ag92
ag93
ag94
ag19
ag20
ag95
ag96
ag97
ag188
ag98
ag99
ag100
ag101
ag102
ag103
ag21
ag104
ag105
ag106
ag107
ag109
ag170
ag110
ag111
ag112
ag113
ag171
ag22
ag114
ag115
ag23
ag116
ag117
ag118
ag119
ag120
ag172
ag121
ag173
ag122
ag123
ag124
ag125
ag126
ag127
ag128
ag174
ag24
ag25
ag130
ag131
ag132
ag133
ag134
ag26
ag135
ag175
ag136
ag137
ag176
ag138
ag139
ag140
ag27
ag141
ag189
ag142
ag143
ag28
ag144
ag29
ag30
ag145
ag177
ag146
ag147
ag31
ag148
ag178
ag32
ag149
ag33
ag150
ag151
ag152
ag153
ag154
ag155
asS'lysilati'
p1403
(lp1404
sS'halecaro'
p1405
(lp1406
sS'ptelcren'
p1407
(lp1408
sS'libodecu'
p1409
(lp1410
sS'arbutexa'
p1411
(lp1412
sS'acernigr'
p1413
(lp1414
g4
ag160
ag185
ag161
ag162
ag7
ag43
ag9
ag47
ag10
ag163
ag186
ag12
ag165
ag61
ag68
ag70
ag14
ag168
ag89
ag94
ag20
ag188
ag100
ag103
ag21
ag106
ag170
ag121
ag122
ag174
ag25
ag131
ag175
ag176
ag27
ag141
ag189
ag144
ag29
ag145
ag177
ag146
ag32
ag149
ag152
ag155
asS'popuangu'
p1415
(lp1416
sS'quermohr'
p1417
(lp1418
sS'salihook'
p1419
(lp1420
sS'savibaha'
p1421
(lp1422
sS'sapibilo'
p1423
(lp1424
sS'pinutrop'
p1425
(lp1426
sS'pinuquad'
p1427
(lp1428
sS'yuccbrev'
p1429
(lp1430
sS'chiovirg'
p1431
(lp1432
g42
ag57
ag64
ag69
ag72
ag76
ag79
ag84
ag17
ag85
ag86
ag87
ag88
ag90
ag91
ag104
ag108
ag111
ag117
ag119
ag120
ag123
ag129
ag136
ag138
ag144
ag148
ag150
asS'salipell'
p1433
(lp1434
sS'sambglau'
p1435
(lp1436
sS'acoewrig'
p1437
(lp1438
sS'schafrut'
p1439
(lp1440
sS'pithungu'
p1441
(lp1442
sS'royselat'
p1443
(lp1444
sS'robineom'
p1445
(lp1446
sS'acerrubr'
p1447
(lp1448
g4
ag160
ag185
ag161
ag5
ag40
ag162
ag6
ag7
ag8
ag41
ag42
ag43
ag9
ag44
ag45
ag46
ag47
ag48
ag49
ag50
ag51
ag52
ag53
ag54
ag55
ag10
ag163
ag186
ag11
ag164
ag12
ag165
ag187
ag56
ag57
ag58
ag59
ag166
ag60
ag61
ag13
ag62
ag63
ag64
ag65
ag66
ag67
ag68
ag69
ag70
ag14
ag71
ag72
ag73
ag167
ag74
ag75
ag76
ag77
ag78
ag79
ag80
ag168
ag81
ag169
ag82
ag83
ag15
ag16
ag84
ag17
ag85
ag86
ag87
ag88
ag89
ag90
ag18
ag91
ag92
ag93
ag94
ag19
ag20
ag95
ag96
ag97
ag188
ag98
ag99
ag100
ag101
ag102
ag103
ag21
ag104
ag105
ag106
ag107
ag108
ag109
ag170
ag110
ag111
ag112
ag113
ag171
ag22
ag114
ag115
ag23
ag116
ag117
ag118
ag119
ag120
ag172
ag121
ag173
ag122
ag123
ag124
ag125
ag126
ag127
ag128
ag129
ag174
ag24
ag25
ag130
ag131
ag132
ag133
ag134
ag26
ag135
ag175
ag136
ag137
ag176
ag138
ag139
ag140
ag27
ag141
ag189
ag142
ag143
ag28
ag144
ag29
ag30
ag145
ag177
ag146
ag147
ag31
ag148
ag178
ag32
ag149
ag33
ag150
ag151
ag152
ag153
ag154
ag155
asS'saliamyg'
p1449
(lp1450
g160
ag9
ag163
ag166
ag68
ag168
ag169
ag20
ag174
ag155
asS'sambvelu'
p1451
(lp1452
sS'cerccana'
p1453
(lp1454
g44
ag57
ag62
ag64
ag66
ag69
ag72
ag79
ag82
ag85
ag88
ag90
ag94
ag95
ag105
ag106
ag110
ag114
ag129
ag136
ag138
ag144
ag148
asS'colucube'
p1455
(lp1456
sS'vaccarbo'
p1457
(lp1458
sS'larilyal'
p1459
(lp1460
sS'amelsang'
p1461
(lp1462
g161
ag7
ag8
ag9
ag11
ag12
ag165
ag14
ag18
ag20
ag21
ag109
ag170
ag115
ag23
ag172
ag27
ag28
ag30
asS'ilexdeci'
p1463
(lp1464
sS'cercflor'
p1465
(lp1466
sS'quervirg'
p1467
(lp1468
sS'quermari'
p1469
(lp1470
g51
ag57
ag62
ag64
ag69
ag71
ag72
ag76
ag77
ag79
ag82
ag84
ag17
ag85
ag86
ag87
ag88
ag90
ag93
ag104
ag108
ag110
ag111
ag114
ag117
ag119
ag120
ag123
ag124
ag125
ag127
ag129
ag132
ag133
ag26
ag136
ag138
ag144
ag31
ag148
ag32
ag150
ag151
asS'caryglab'
p1471
(lp1472
g4
ag160
ag185
ag8
ag42
ag9
ag44
ag49
ag50
ag51
ag53
ag54
ag55
ag10
ag11
ag165
ag187
ag57
ag58
ag60
ag61
ag13
ag62
ag63
ag64
ag66
ag69
ag70
ag14
ag71
ag72
ag75
ag76
ag77
ag78
ag79
ag168
ag169
ag82
ag15
ag16
ag84
ag17
ag85
ag86
ag87
ag88
ag90
ag91
ag92
ag93
ag94
ag19
ag20
ag95
ag96
ag98
ag99
ag100
ag101
ag102
ag103
ag21
ag104
ag105
ag106
ag107
ag108
ag109
ag170
ag110
ag111
ag114
ag115
ag116
ag117
ag119
ag120
ag121
ag123
ag124
ag125
ag127
ag128
ag129
ag174
ag24
ag130
ag131
ag132
ag133
ag26
ag135
ag136
ag138
ag27
ag141
ag189
ag143
ag28
ag144
ag145
ag146
ag147
ag31
ag148
ag32
ag149
ag33
ag150
ag151
ag152
ag153
ag154
asS'pinudura'
p1473
(lp1474
sS'rhuschor'
p1475
(lp1476
sS'byrsluci'
p1477
(lp1478
sS'pinujeff'
p1479
(lp1480
sS'swiemaha'
p1481
(lp1482
sS'querpung'
p1483
(lp1484
sS'pinuculm'
p1485
(lp1486
sS'saliarbu'
p1487
(lp1488
sS'lariocci'
p1489
(lp1490
sS'simaglau'
p1491
(lp1492
sS'pruncaro'
p1493
(lp1494
sS'prunemar'
p1495
(lp1496
sS'amelutah'
p1497
(lp1498
sS'querturb'
p1499
(lp1500
sS'maluioen'
p1501
(lp1502
sS'aescocta'
p1503
(lp1504
g94
ag106
asS'junicali'
p1505
(lp1506
sS'amelinte'
p1507
(lp1508
sS'parkacul'
p1509
(lp1510
sS'calypall'
p1511
(lp1512
sS'ficuaure'
p1513
(lp1514
sS'carpcaro'
p1515
(lp1516
g4
ag160
ag185
ag161
ag5
ag40
ag162
ag6
ag7
ag8
ag41
ag42
ag43
ag9
ag44
ag45
ag46
ag47
ag48
ag49
ag50
ag52
ag53
ag54
ag55
ag10
ag186
ag11
ag12
ag165
ag187
ag56
ag57
ag58
ag59
ag60
ag61
ag13
ag62
ag63
ag64
ag65
ag66
ag67
ag68
ag69
ag70
ag14
ag71
ag72
ag73
ag74
ag75
ag76
ag77
ag79
ag80
ag168
ag81
ag169
ag82
ag83
ag15
ag16
ag84
ag17
ag85
ag86
ag87
ag88
ag89
ag90
ag18
ag91
ag92
ag94
ag19
ag20
ag95
ag97
ag188
ag98
ag99
ag100
ag102
ag103
ag21
ag104
ag105
ag106
ag107
ag108
ag109
ag170
ag110
ag111
ag112
ag113
ag22
ag114
ag115
ag23
ag116
ag117
ag118
ag119
ag120
ag121
ag173
ag122
ag123
ag125
ag126
ag128
ag129
ag174
ag24
ag25
ag130
ag131
ag132
ag133
ag134
ag26
ag135
ag175
ag136
ag137
ag176
ag138
ag139
ag140
ag27
ag141
ag189
ag142
ag28
ag144
ag145
ag177
ag147
ag31
ag148
ag178
ag32
ag149
ag33
ag150
ag151
ag152
ag153
ag154
ag155
asS'poputric'
p1517
(lp1518
sS'juglcine'
p1519
(lp1520
g4
ag160
ag185
ag161
ag5
ag40
ag162
ag6
ag7
ag8
ag41
ag43
ag9
ag45
ag46
ag47
ag48
ag49
ag50
ag52
ag53
ag54
ag55
ag10
ag163
ag186
ag11
ag164
ag12
ag165
ag187
ag56
ag57
ag58
ag59
ag166
ag60
ag61
ag13
ag63
ag64
ag65
ag66
ag67
ag68
ag70
ag14
ag71
ag73
ag167
ag74
ag75
ag80
ag168
ag81
ag169
ag82
ag83
ag15
ag16
ag17
ag89
ag90
ag18
ag92
ag94
ag19
ag20
ag95
ag96
ag97
ag188
ag98
ag99
ag100
ag101
ag102
ag103
ag21
ag106
ag107
ag109
ag170
ag110
ag112
ag113
ag171
ag22
ag114
ag115
ag23
ag116
ag118
ag172
ag121
ag173
ag122
ag125
ag126
ag128
ag174
ag24
ag25
ag130
ag131
ag134
ag26
ag135
ag175
ag137
ag176
ag139
ag140
ag27
ag141
ag189
ag142
ag143
ag28
ag29
ag30
ag145
ag177
ag146
ag147
ag31
ag148
ag178
ag32
ag149
ag151
ag152
ag153
ag154
ag155
asS'tilicaro'
p1521
(lp1522
sS'querogle'
p1523
(lp1524
sS'junimono'
p1525
(lp1526
sS'caryaqua'
p1527
(lp1528
sa(dp1529
g57
(lp1530
g38
ag222
ag224
ag228
ag254
ag278
ag328
ag376
ag392
ag398
ag432
ag436
ag494
ag512
ag591
ag613
ag635
ag1471
ag677
ag1147
ag699
ag703
ag711
ag777
ag773
ag801
ag817
ag827
ag837
ag847
ag1397
ag929
ag931
ag955
ag985
ag991
ag1041
ag1053
ag1313
ag1293
ag522
ag547
ag1169
ag1173
ag1239
ag1187
ag1189
ag1223
ag1139
ag1185
ag1275
ag1285
ag1299
ag1329
ag310
ag851
ag1359
ag555
ag1401
ag1431
ag1447
ag949
ag1453
ag1469
ag1515
ag1519
asg97
(lp1531
g38
ag183
ag228
ag252
ag254
ag266
ag290
ag308
ag316
ag328
ag392
ag398
ag428
ag432
ag494
ag575
ag1149
ag699
ag703
ag705
ag777
ag749
ag773
ag847
ag913
ag927
ag929
ag955
ag787
ag991
ag993
ag1005
ag1041
ag1057
ag158
ag1093
ag522
ag717
ag1239
ag1189
ag1223
ag1139
ag1185
ag1255
ag1299
ag1329
ag555
ag412
ag1401
ag1447
ag1515
ag1519
asg103
(lp1532
g38
ag183
ag190
ag224
ag228
ag252
ag254
ag266
ag290
ag308
ag316
ag328
ag370
ag376
ag392
ag398
ag428
ag432
ag436
ag494
ag512
ag1115
ag573
ag1149
ag591
ag613
ag1471
ag677
ag699
ag703
ag705
ag711
ag777
ag749
ag753
ag739
ag773
ag801
ag817
ag847
ag262
ag1413
ag913
ag927
ag929
ag955
ag983
ag991
ag993
ag1021
ag1041
ag1053
ag1313
ag1057
ag158
ag1293
ag522
ag1169
ag717
ag1239
ag1187
ag1189
ag1223
ag1139
ag1185
ag1255
ag1275
ag1285
ag1295
ag1299
ag1329
ag851
ag555
ag412
ag1401
ag1447
ag949
ag1515
ag1519
asg60
(lp1533
g38
ag183
ag190
ag222
ag224
ag228
ag252
ag254
ag266
ag278
ag290
ag316
ag328
ag356
ag370
ag376
ag392
ag398
ag428
ag432
ag436
ag549
ag494
ag512
ag1149
ag591
ag613
ag1471
ag677
ag699
ag703
ag705
ag711
ag777
ag749
ag739
ag773
ag801
ag817
ag827
ag847
ag1397
ag927
ag929
ag931
ag935
ag955
ag787
ag967
ag983
ag991
ag1021
ag1041
ag1053
ag1313
ag1057
ag1293
ag1167
ag1169
ag717
ag1239
ag1187
ag1189
ag1223
ag1139
ag1185
ag1255
ag1275
ag1285
ag1295
ag1299
ag1329
ag310
ag851
ag555
ag412
ag1401
ag1447
ag949
ag1515
ag1519
asg164
(lp1534
g183
ag246
ag252
ag254
ag266
ag290
ag308
ag316
ag328
ag370
ag382
ag392
ag432
ag438
ag573
ag575
ag1149
ag1163
ag685
ag703
ag705
ag1011
ag777
ag739
ag773
ag801
ag845
ag847
ag913
ag927
ag929
ag787
ag993
ag1003
ag1005
ag1021
ag1041
ag1057
ag158
ag1093
ag522
ag1165
ag717
ag1239
ag1223
ag1185
ag1255
ag1299
ag555
ag412
ag1401
ag1447
ag1519
asg188
(lp1535
g183
ag252
ag254
ag266
ag290
ag308
ag316
ag328
ag370
ag392
ag428
ag432
ag436
ag494
ag512
ag1149
ag685
ag703
ag705
ag777
ag745
ag749
ag773
ag801
ag847
ag1413
ag913
ag927
ag929
ag955
ag787
ag1021
ag1041
ag1057
ag522
ag717
ag1239
ag1189
ag1223
ag1139
ag1185
ag1255
ag1263
ag1299
ag1329
ag851
ag555
ag412
ag1401
ag1447
ag1515
ag1519
asg54
(lp1536
g38
ag183
ag228
ag252
ag254
ag266
ag278
ag290
ag308
ag316
ag328
ag376
ag392
ag398
ag428
ag432
ag436
ag494
ag1149
ag591
ag613
ag1471
ag677
ag699
ag703
ag705
ag733
ag777
ag749
ag773
ag827
ag847
ag913
ag927
ag929
ag955
ag787
ag985
ag991
ag993
ag1003
ag1005
ag1021
ag1041
ag1053
ag1313
ag1057
ag158
ag1093
ag522
ag1169
ag717
ag1239
ag1189
ag1223
ag1139
ag1185
ag1255
ag1275
ag1285
ag1299
ag1329
ag851
ag555
ag412
ag1401
ag1447
ag949
ag1515
ag1519
asg49
(lp1537
g38
ag222
ag224
ag228
ag250
ag252
ag254
ag266
ag278
ag308
ag316
ag328
ag376
ag392
ag398
ag406
ag414
ag428
ag430
ag432
ag436
ag494
ag512
ag1149
ag591
ag613
ag635
ag1471
ag677
ag699
ag703
ag705
ag1011
ag733
ag777
ag749
ag753
ag773
ag799
ag817
ag827
ag845
ag847
ag1397
ag929
ag955
ag787
ag985
ag991
ag993
ag1005
ag1041
ag1053
ag1313
ag1057
ag158
ag1093
ag1293
ag522
ag1169
ag717
ag1239
ag1187
ag1189
ag1223
ag1139
ag1185
ag1255
ag1263
ag1275
ag1285
ag1299
ag1329
ag851
ag1359
ag555
ag412
ag1401
ag1447
ag949
ag1515
ag1519
asg161
(lp1538
g183
ag222
ag246
ag252
ag254
ag266
ag290
ag308
ag316
ag328
ag370
ag392
ag428
ag432
ag494
ag512
ag1149
ag613
ag685
ag699
ag703
ag705
ag733
ag777
ag745
ag749
ag773
ag847
ag1413
ag913
ag927
ag929
ag955
ag787
ag991
ag993
ag1005
ag1021
ag1041
ag1053
ag1313
ag1057
ag158
ag1093
ag522
ag1169
ag717
ag1239
ag1187
ag1189
ag1223
ag1231
ag1139
ag1185
ag1255
ag1299
ag1329
ag851
ag555
ag412
ag1401
ag1447
ag1461
ag1515
ag1519
asg101
(lp1539
g38
ag183
ag190
ag222
ag228
ag252
ag254
ag266
ag278
ag290
ag316
ag328
ag356
ag376
ag392
ag398
ag428
ag432
ag436
ag494
ag1149
ag591
ag613
ag1471
ag699
ag705
ag711
ag777
ag745
ag749
ag739
ag773
ag801
ag817
ag847
ag1397
ag927
ag929
ag931
ag935
ag955
ag787
ag967
ag983
ag991
ag1021
ag1041
ag1053
ag1313
ag1057
ag1293
ag1169
ag717
ag1239
ag1187
ag1189
ag1223
ag1139
ag1185
ag1255
ag1275
ag1285
ag1295
ag1299
ag1329
ag310
ag851
ag555
ag412
ag1401
ag1447
ag949
ag1519
asg130
(lp1540
g38
ag224
ag228
ag250
ag252
ag254
ag266
ag278
ag290
ag308
ag316
ag328
ag376
ag392
ag398
ag406
ag428
ag432
ag436
ag494
ag512
ag1149
ag591
ag613
ag635
ag1471
ag677
ag699
ag703
ag705
ag777
ag745
ag749
ag739
ag773
ag801
ag817
ag827
ag847
ag927
ag929
ag955
ag787
ag985
ag991
ag993
ag1005
ag1041
ag1053
ag1313
ag158
ag1093
ag1293
ag522
ag1169
ag1239
ag1189
ag1223
ag1139
ag1185
ag1255
ag1275
ag1299
ag1329
ag851
ag555
ag412
ag1401
ag943
ag1447
ag949
ag1515
ag1519
asg91
(lp1541
g38
ag222
ag224
ag228
ag252
ag254
ag266
ag278
ag316
ag328
ag376
ag392
ag398
ag414
ag428
ag432
ag436
ag549
ag494
ag512
ag1115
ag1149
ag591
ag613
ag635
ag1471
ag677
ag699
ag703
ag705
ag711
ag777
ag749
ag753
ag773
ag817
ag847
ag1397
ag262
ag929
ag955
ag787
ag991
ag1041
ag1053
ag1313
ag1093
ag1293
ag522
ag547
ag1169
ag717
ag1239
ag1187
ag1189
ag1223
ag1139
ag1185
ag1255
ag1275
ag1285
ag1299
ag1329
ag1333
ag851
ag1359
ag555
ag412
ag1401
ag1431
ag1447
ag949
ag1515
asg187
(lp1542
g183
ag252
ag254
ag266
ag290
ag308
ag316
ag328
ag356
ag370
ag392
ag428
ag432
ag438
ag575
ag1149
ag613
ag1471
ag647
ag1163
ag703
ag705
ag1011
ag777
ag749
ag773
ag801
ag847
ag913
ag927
ag929
ag955
ag787
ag985
ag991
ag993
ag1003
ag1005
ag1021
ag1041
ag1053
ag1057
ag1093
ag522
ag1169
ag717
ag1239
ag1189
ag1223
ag1231
ag1139
ag1185
ag1255
ag1275
ag1299
ag1329
ag851
ag555
ag412
ag1401
ag1447
ag1515
ag1519
asg55
(lp1543
g38
ag183
ag224
ag228
ag252
ag254
ag266
ag290
ag308
ag316
ag328
ag376
ag392
ag406
ag428
ag432
ag436
ag494
ag512
ag1149
ag591
ag1471
ag677
ag699
ag703
ag705
ag711
ag777
ag749
ag739
ag773
ag817
ag827
ag847
ag913
ag927
ag929
ag955
ag787
ag985
ag991
ag993
ag1005
ag1041
ag1053
ag1313
ag158
ag1093
ag1293
ag522
ag1169
ag1239
ag1189
ag1223
ag1139
ag1185
ag1255
ag1275
ag1299
ag1329
ag851
ag555
ag412
ag1401
ag1447
ag949
ag1515
ag1519
asg149
(lp1544
g38
ag183
ag224
ag228
ag250
ag252
ag254
ag266
ag278
ag308
ag316
ag328
ag370
ag376
ag392
ag398
ag414
ag428
ag432
ag436
ag494
ag1149
ag591
ag613
ag1471
ag677
ag699
ag703
ag705
ag1011
ag733
ag777
ag749
ag773
ag801
ag809
ag847
ag1413
ag927
ag929
ag953
ag955
ag787
ag985
ag991
ag993
ag1005
ag1041
ag1053
ag1313
ag1093
ag522
ag1155
ag1165
ag1169
ag717
ag1239
ag1189
ag1223
ag1139
ag1185
ag1255
ag1263
ag1275
ag1285
ag1299
ag1329
ag851
ag1359
ag555
ag1375
ag412
ag1401
ag1447
ag949
ag1515
ag1519
asg83
(lp1545
g38
ag183
ag228
ag252
ag254
ag266
ag290
ag308
ag316
ag328
ag392
ag406
ag428
ag432
ag494
ag1149
ag703
ag705
ag1011
ag777
ag749
ag773
ag847
ag913
ag927
ag929
ag955
ag787
ag991
ag993
ag1005
ag1021
ag1041
ag1057
ag158
ag1093
ag522
ag717
ag1239
ag1189
ag1223
ag1139
ag1185
ag1255
ag1263
ag1275
ag1299
ag1329
ag555
ag412
ag1401
ag1447
ag1515
ag1519
asg121
(lp1546
g38
ag183
ag190
ag222
ag224
ag228
ag252
ag254
ag266
ag290
ag316
ag376
ag392
ag398
ag428
ag432
ag436
ag494
ag1115
ag575
ag1149
ag591
ag1471
ag685
ag699
ag703
ag705
ag711
ag1011
ag777
ag749
ag753
ag739
ag773
ag801
ag817
ag827
ag845
ag847
ag1413
ag927
ag929
ag955
ag787
ag983
ag985
ag991
ag993
ag1021
ag1041
ag1053
ag1313
ag1057
ag522
ag1169
ag717
ag1239
ag1187
ag1189
ag1223
ag1231
ag1139
ag1185
ag1255
ag1275
ag1285
ag1299
ag1329
ag851
ag555
ag412
ag1401
ag1447
ag949
ag1515
ag1519
asg72
(lp1547
g38
ag222
ag224
ag228
ag1335
ag254
ag278
ag899
ag376
ag392
ag424
ag432
ag436
ag549
ag591
ag613
ag635
ag1471
ag677
ag1147
ag699
ag703
ag777
ag773
ag817
ag827
ag837
ag847
ag1397
ag911
ag929
ag931
ag953
ag955
ag1007
ag1053
ag1313
ag547
ag1155
ag1167
ag1173
ag1239
ag1187
ag1189
ag1223
ag1185
ag1285
ag1299
ag1329
ag310
ag851
ag1359
ag555
ag943
ag1431
ag1447
ag949
ag1453
ag1469
ag1515
asg155
(lp1548
g38
ag183
ag252
ag254
ag266
ag290
ag308
ag316
ag328
ag356
ag370
ag392
ag428
ag432
ag494
ag512
ag1149
ag631
ag685
ag699
ag703
ag705
ag777
ag745
ag749
ag773
ag801
ag817
ag847
ag1397
ag1413
ag927
ag929
ag955
ag787
ag985
ag1005
ag1041
ag1053
ag1057
ag158
ag522
ag1165
ag717
ag1239
ag1189
ag1223
ag1139
ag1185
ag1255
ag1263
ag1295
ag1299
ag1329
ag851
ag1449
ag1359
ag555
ag412
ag1401
ag1447
ag1515
ag1519
asg44
(lp1549
g38
ag222
ag224
ag228
ag254
ag266
ag278
ag376
ag392
ag398
ag428
ag432
ag436
ag494
ag512
ag1115
ag1149
ag591
ag613
ag635
ag1471
ag677
ag699
ag703
ag705
ag777
ag749
ag753
ag773
ag817
ag847
ag1397
ag929
ag931
ag955
ag787
ag985
ag991
ag1041
ag1053
ag1313
ag1293
ag522
ag1169
ag717
ag1239
ag1187
ag1189
ag1223
ag1139
ag1185
ag1255
ag1275
ag1285
ag1299
ag1329
ag310
ag851
ag1359
ag555
ag412
ag1401
ag943
ag1447
ag949
ag1453
ag1515
asg32
(lp1550
g2
ag38
ag183
ag224
ag228
ag252
ag254
ag266
ag316
ag328
ag356
ag376
ag392
ag398
ag428
ag432
ag436
ag494
ag512
ag1115
ag1149
ag591
ag613
ag631
ag635
ag1471
ag677
ag699
ag703
ag705
ag711
ag1011
ag733
ag777
ag749
ag753
ag739
ag773
ag801
ag817
ag827
ag847
ag1397
ag1413
ag913
ag927
ag929
ag931
ag955
ag787
ag985
ag991
ag993
ag1005
ag1021
ag1041
ag1053
ag1313
ag158
ag1093
ag1293
ag522
ag1165
ag1169
ag717
ag1239
ag1187
ag1189
ag1223
ag1139
ag1185
ag1255
ag1275
ag1285
ag1299
ag1329
ag1333
ag310
ag851
ag555
ag412
ag1401
ag1447
ag949
ag1469
ag1515
ag1519
asg85
(lp1551
g38
ag222
ag224
ag228
ag254
ag278
ag376
ag392
ag398
ag432
ag436
ag494
ag512
ag1149
ag591
ag613
ag635
ag1471
ag677
ag699
ag703
ag733
ag777
ag773
ag817
ag827
ag847
ag1397
ag929
ag931
ag953
ag955
ag991
ag1041
ag1053
ag1313
ag1293
ag522
ag547
ag1169
ag1239
ag1187
ag1189
ag1223
ag1139
ag1185
ag1275
ag1285
ag1299
ag1329
ag310
ag851
ag1359
ag555
ag1401
ag1431
ag1447
ag949
ag1453
ag1469
ag1515
asg116
(lp1552
g38
ag183
ag224
ag228
ag252
ag254
ag266
ag278
ag290
ag308
ag316
ag328
ag376
ag392
ag398
ag406
ag428
ag432
ag436
ag494
ag1149
ag591
ag613
ag635
ag1471
ag1163
ag677
ag699
ag703
ag705
ag711
ag1011
ag733
ag777
ag749
ag739
ag773
ag845
ag847
ag913
ag927
ag929
ag955
ag787
ag983
ag985
ag991
ag993
ag1005
ag1021
ag1041
ag1053
ag158
ag1093
ag1293
ag522
ag1169
ag717
ag1239
ag1189
ag1223
ag1139
ag1185
ag1255
ag1275
ag1285
ag1299
ag1329
ag851
ag555
ag412
ag1401
ag1447
ag949
ag1515
ag1519
asg171
(lp1553
g183
ag246
ag252
ag254
ag266
ag290
ag308
ag316
ag328
ag370
ag382
ag392
ag432
ag438
ag575
ag1149
ag1163
ag685
ag703
ag705
ag1011
ag777
ag739
ag773
ag801
ag845
ag847
ag913
ag927
ag929
ag787
ag991
ag993
ag1003
ag1005
ag1021
ag1041
ag1057
ag158
ag1093
ag522
ag1165
ag717
ag1239
ag1223
ag1185
ag1255
ag1299
ag555
ag412
ag1401
ag1447
ag1519
asg176
(lp1554
g183
ag222
ag246
ag252
ag254
ag266
ag290
ag308
ag316
ag328
ag370
ag392
ag428
ag432
ag438
ag512
ag1115
ag573
ag1149
ag647
ag685
ag703
ag705
ag711
ag1011
ag777
ag749
ag739
ag773
ag801
ag845
ag847
ag1413
ag913
ag927
ag929
ag955
ag787
ag985
ag991
ag993
ag1005
ag1021
ag1041
ag1057
ag158
ag1093
ag1293
ag522
ag717
ag1239
ag1187
ag1223
ag1231
ag1139
ag1185
ag1255
ag1299
ag1329
ag1333
ag555
ag412
ag1401
ag1447
ag1515
ag1519
asg68
(lp1555
g38
ag183
ag246
ag252
ag254
ag266
ag290
ag308
ag316
ag328
ag356
ag370
ag376
ag392
ag428
ag432
ag494
ag512
ag573
ag1149
ag613
ag685
ag699
ag703
ag705
ag777
ag745
ag749
ag773
ag801
ag847
ag262
ag1413
ag913
ag927
ag929
ag955
ag787
ag991
ag993
ag1005
ag1021
ag1041
ag1053
ag1313
ag1057
ag158
ag1093
ag1293
ag522
ag717
ag1239
ag1187
ag1189
ag1223
ag1139
ag1185
ag1255
ag1263
ag1285
ag1299
ag1329
ag1333
ag851
ag1449
ag555
ag412
ag1401
ag1447
ag949
ag1515
ag1519
asg76
(lp1556
g38
ag190
ag222
ag224
ag228
ag1335
ag254
ag278
ag899
ag376
ag392
ag424
ag432
ag436
ag549
ag490
ag591
ag611
ag1471
ag496
ag1147
ag699
ag777
ag773
ag817
ag827
ag847
ag1397
ag901
ag911
ag929
ag931
ag935
ag953
ag955
ag967
ag983
ag1053
ag1313
ag1097
ag522
ag1155
ag1167
ag1173
ag1239
ag1187
ag1189
ag1223
ag1185
ag1241
ag1285
ag1295
ag1299
ag1329
ag310
ag851
ag555
ag1401
ag943
ag1431
ag1447
ag949
ag1469
ag1515
asg73
(lp1557
g38
ag224
ag228
ag252
ag254
ag266
ag308
ag316
ag328
ag376
ag392
ag398
ag428
ag432
ag494
ag1149
ag591
ag613
ag677
ag699
ag703
ag705
ag733
ag777
ag749
ag773
ag801
ag837
ag847
ag927
ag929
ag953
ag955
ag787
ag985
ag991
ag1041
ag1313
ag522
ag1169
ag1239
ag1189
ag1223
ag1139
ag1185
ag1255
ag1263
ag1275
ag1285
ag1299
ag1329
ag851
ag555
ag412
ag1401
ag1447
ag949
ag1515
ag1519
asg51
(lp1558
g38
ag190
ag222
ag224
ag228
ag254
ag278
ag376
ag392
ag398
ag424
ag428
ag432
ag436
ag549
ag494
ag512
ag591
ag613
ag1471
ag677
ag1147
ag699
ag711
ag777
ag739
ag773
ag817
ag827
ag847
ag1397
ag911
ag929
ag931
ag955
ag787
ag983
ag985
ag991
ag1053
ag1313
ag1293
ag1155
ag1167
ag1169
ag1173
ag1239
ag1187
ag1189
ag1223
ag1139
ag1185
ag1275
ag1285
ag1295
ag1299
ag1329
ag310
ag851
ag555
ag412
ag1401
ag943
ag1447
ag949
ag1469
asg79
(lp1559
g38
ag222
ag224
ag228
ag254
ag278
ag376
ag392
ag398
ag432
ag436
ag494
ag512
ag591
ag613
ag635
ag1471
ag1147
ag699
ag703
ag777
ag773
ag817
ag827
ag847
ag1397
ag911
ag929
ag931
ag953
ag955
ag967
ag985
ag1041
ag1053
ag1313
ag158
ag1293
ag522
ag547
ag1167
ag1169
ag1173
ag1239
ag1187
ag1189
ag1223
ag1139
ag1185
ag1275
ag1285
ag1295
ag1299
ag1329
ag310
ag851
ag1359
ag555
ag1401
ag1431
ag1447
ag949
ag1453
ag1469
ag1515
asg146
(lp1560
g38
ag183
ag246
ag252
ag254
ag266
ag290
ag308
ag316
ag328
ag370
ag392
ag398
ag428
ag432
ag436
ag438
ag494
ag1115
ag573
ag575
ag1149
ag1471
ag647
ag685
ag703
ag705
ag1011
ag733
ag777
ag745
ag749
ag739
ag773
ag801
ag845
ag847
ag1413
ag913
ag927
ag929
ag787
ag985
ag991
ag993
ag1005
ag1021
ag1041
ag1057
ag158
ag1093
ag522
ag717
ag1239
ag1223
ag1139
ag1185
ag1255
ag1285
ag1299
ag555
ag412
ag1401
ag1447
ag949
ag1519
asg168
(lp1561
g183
ag246
ag252
ag254
ag266
ag290
ag308
ag316
ag328
ag356
ag370
ag392
ag428
ag430
ag432
ag494
ag512
ag1115
ag573
ag1149
ag1471
ag685
ag699
ag703
ag705
ag1011
ag777
ag745
ag749
ag753
ag773
ag801
ag847
ag1413
ag913
ag927
ag929
ag955
ag787
ag985
ag991
ag1005
ag1021
ag1041
ag1053
ag1313
ag1057
ag158
ag1293
ag522
ag1165
ag1169
ag717
ag1239
ag1189
ag1223
ag1231
ag1139
ag1185
ag1255
ag1263
ag1299
ag1329
ag1333
ag851
ag1449
ag1359
ag555
ag412
ag1401
ag1447
ag949
ag1515
ag1519
asg154
(lp1562
g38
ag183
ag190
ag222
ag224
ag228
ag252
ag254
ag266
ag290
ag316
ag376
ag392
ag398
ag428
ag432
ag436
ag494
ag512
ag1115
ag1149
ag591
ag613
ag1471
ag677
ag699
ag703
ag705
ag711
ag777
ag749
ag739
ag773
ag827
ag847
ag927
ag929
ag955
ag787
ag985
ag991
ag993
ag1021
ag1041
ag1053
ag1313
ag1293
ag522
ag1169
ag717
ag1239
ag1187
ag1189
ag1223
ag1139
ag1185
ag1255
ag1275
ag1285
ag1299
ag1329
ag851
ag555
ag412
ag1401
ag1447
ag949
ag1515
ag1519
asg178
(lp1563
g183
ag252
ag254
ag266
ag290
ag308
ag316
ag328
ag370
ag392
ag428
ag432
ag438
ag1149
ag647
ag699
ag703
ag705
ag777
ag749
ag773
ag801
ag845
ag847
ag913
ag927
ag929
ag955
ag787
ag991
ag993
ag1005
ag1041
ag1057
ag158
ag1093
ag522
ag1165
ag717
ag1239
ag1189
ag1223
ag1231
ag1139
ag1185
ag1255
ag1263
ag1299
ag1329
ag555
ag412
ag1401
ag1447
ag1515
ag1519
asg112
(lp1564
g38
ag183
ag228
ag252
ag254
ag266
ag290
ag308
ag316
ag328
ag392
ag406
ag428
ag432
ag494
ag575
ag1149
ag591
ag635
ag699
ag703
ag705
ag711
ag733
ag777
ag749
ag739
ag773
ag801
ag845
ag847
ag913
ag927
ag929
ag955
ag787
ag985
ag991
ag993
ag1005
ag1041
ag158
ag1093
ag522
ag717
ag1239
ag1189
ag1223
ag1139
ag1185
ag1255
ag1285
ag1299
ag1329
ag851
ag555
ag412
ag1401
ag1447
ag1515
ag1519
asg62
(lp1565
g38
ag190
ag222
ag224
ag228
ag254
ag278
ag376
ag392
ag398
ag424
ag428
ag430
ag432
ag436
ag549
ag494
ag512
ag573
ag591
ag613
ag1471
ag496
ag677
ag1147
ag699
ag711
ag777
ag749
ag773
ag817
ag827
ag847
ag1397
ag911
ag929
ag931
ag955
ag787
ag983
ag991
ag1053
ag1313
ag1293
ag547
ag1155
ag1167
ag1169
ag1173
ag1239
ag1187
ag1189
ag1223
ag1139
ag1185
ag1275
ag1285
ag1295
ag1299
ag1329
ag310
ag851
ag555
ag412
ag1401
ag943
ag1447
ag949
ag1453
ag1469
ag1515
asg139
(lp1566
g38
ag183
ag228
ag236
ag252
ag254
ag266
ag290
ag308
ag316
ag328
ag392
ag398
ag406
ag428
ag432
ag494
ag1149
ag613
ag677
ag703
ag705
ag733
ag777
ag749
ag773
ag801
ag817
ag847
ag913
ag927
ag929
ag953
ag955
ag787
ag985
ag991
ag993
ag1005
ag1021
ag1041
ag1313
ag1057
ag1093
ag522
ag1169
ag717
ag1239
ag1189
ag1223
ag1139
ag1185
ag1255
ag1263
ag1275
ag1285
ag1299
ag1329
ag851
ag555
ag412
ag1401
ag1447
ag949
ag1515
ag1519
asg102
(lp1567
g38
ag190
ag222
ag224
ag228
ag254
ag316
ag370
ag376
ag392
ag398
ag428
ag432
ag436
ag549
ag494
ag512
ag1149
ag591
ag613
ag1471
ag677
ag699
ag703
ag705
ag711
ag777
ag749
ag739
ag773
ag817
ag827
ag847
ag1397
ag927
ag929
ag931
ag955
ag787
ag985
ag991
ag993
ag1041
ag1053
ag1313
ag158
ag1293
ag522
ag1167
ag1169
ag717
ag1239
ag1187
ag1189
ag1223
ag1139
ag1185
ag1255
ag1275
ag1285
ag1295
ag1299
ag1329
ag310
ag851
ag555
ag412
ag1401
ag1447
ag949
ag1515
ag1519
asg95
(lp1568
g38
ag222
ag224
ag228
ag250
ag252
ag254
ag266
ag278
ag308
ag316
ag328
ag376
ag392
ag398
ag414
ag428
ag430
ag432
ag436
ag494
ag512
ag1149
ag591
ag613
ag635
ag1471
ag677
ag685
ag699
ag703
ag705
ag733
ag777
ag745
ag749
ag753
ag773
ag799
ag817
ag847
ag1397
ag929
ag955
ag787
ag985
ag991
ag993
ag1005
ag1041
ag1053
ag1313
ag1093
ag1293
ag522
ag1169
ag717
ag1239
ag1187
ag1189
ag1223
ag1139
ag1185
ag1255
ag1263
ag1275
ag1285
ag1299
ag1329
ag1333
ag851
ag1359
ag555
ag412
ag1401
ag1447
ag949
ag1453
ag1515
ag1519
asg59
(lp1569
g38
ag183
ag224
ag228
ag250
ag252
ag254
ag266
ag308
ag316
ag328
ag376
ag392
ag398
ag406
ag414
ag428
ag432
ag494
ag1149
ag591
ag613
ag677
ag699
ag703
ag705
ag733
ag777
ag749
ag773
ag801
ag847
ag927
ag929
ag953
ag955
ag787
ag985
ag991
ag993
ag1005
ag1041
ag1313
ag1057
ag1093
ag1293
ag522
ag1169
ag717
ag1239
ag1189
ag1223
ag1139
ag1185
ag1255
ag1263
ag1275
ag1285
ag1299
ag1329
ag1333
ag851
ag555
ag412
ag1401
ag1447
ag949
ag1515
ag1519
asg132
(lp1570
g38
ag190
ag222
ag224
ag228
ag278
ag304
ag899
ag392
ag398
ag424
ag432
ag436
ag549
ag490
ag591
ag613
ag1471
ag496
ag677
ag699
ag711
ag777
ag773
ag817
ag827
ag911
ag931
ag967
ag983
ag1053
ag1313
ag1155
ag1167
ag1169
ag1173
ag1239
ag1187
ag1223
ag1185
ag1275
ag1285
ag1295
ag1299
ag1329
ag310
ag851
ag1401
ag943
ag1447
ag949
ag1469
ag1515
asg77
(lp1571
g38
ag190
ag222
ag224
ag228
ag254
ag278
ag392
ag424
ag428
ag430
ag432
ag436
ag549
ag494
ag512
ag591
ag613
ag1471
ag677
ag1147
ag699
ag711
ag777
ag773
ag817
ag827
ag847
ag1397
ag911
ag929
ag931
ag955
ag1053
ag1313
ag1293
ag547
ag1155
ag1167
ag1169
ag1173
ag1239
ag1187
ag1189
ag1223
ag1139
ag1185
ag1275
ag1285
ag1295
ag1299
ag1329
ag310
ag851
ag1401
ag943
ag1447
ag949
ag1469
ag1515
asg56
(lp1572
g38
ag183
ag252
ag254
ag266
ag290
ag308
ag316
ag328
ag392
ag428
ag432
ag438
ag494
ag575
ag1149
ag591
ag635
ag703
ag705
ag777
ag749
ag773
ag801
ag847
ag913
ag927
ag929
ag955
ag787
ag983
ag991
ag993
ag1005
ag1041
ag1313
ag1093
ag522
ag717
ag1239
ag1189
ag1223
ag1139
ag1185
ag1255
ag1299
ag1329
ag851
ag555
ag412
ag1401
ag1447
ag1515
ag1519
asg144
(lp1573
g38
ag222
ag224
ag228
ag254
ag266
ag278
ag304
ag328
ag376
ag392
ag430
ag432
ag436
ag494
ag512
ag1149
ag591
ag613
ag635
ag1471
ag677
ag699
ag703
ag705
ag711
ag777
ag749
ag753
ag773
ag817
ag827
ag847
ag1397
ag1413
ag929
ag931
ag955
ag991
ag993
ag1041
ag1053
ag1313
ag1093
ag1293
ag522
ag1169
ag717
ag1239
ag1187
ag1189
ag1223
ag1139
ag1185
ag1255
ag1263
ag1275
ag1285
ag1299
ag1329
ag310
ag851
ag1359
ag555
ag412
ag1401
ag1431
ag1447
ag949
ag1453
ag1469
ag1515
asg143
(lp1574
g38
ag190
ag222
ag228
ag252
ag254
ag266
ag278
ag316
ag328
ag376
ag392
ag398
ag432
ag436
ag494
ag1115
ag573
ag1149
ag591
ag613
ag1471
ag705
ag711
ag777
ag749
ag739
ag773
ag817
ag827
ag847
ag1397
ag927
ag929
ag931
ag935
ag955
ag967
ag983
ag991
ag1003
ag1021
ag1041
ag1053
ag1313
ag1057
ag1293
ag1169
ag717
ag1239
ag1187
ag1189
ag1223
ag1139
ag1185
ag1255
ag1275
ag1285
ag1295
ag1299
ag1329
ag851
ag555
ag412
ag1401
ag1447
ag949
ag1519
asg129
(lp1575
g38
ag222
ag224
ag228
ag1335
ag254
ag278
ag899
ag376
ag392
ag424
ag432
ag436
ag549
ag494
ag591
ag613
ag1471
ag1147
ag699
ag703
ag711
ag777
ag773
ag817
ag827
ag847
ag1397
ag863
ag911
ag929
ag931
ag953
ag955
ag967
ag983
ag985
ag1053
ag1313
ag547
ag1167
ag1173
ag1239
ag1187
ag1189
ag1223
ag1185
ag1241
ag1285
ag1299
ag1329
ag310
ag851
ag1359
ag555
ag943
ag1431
ag1447
ag949
ag1453
ag1469
ag1515
asg186
(lp1576
g183
ag246
ag252
ag254
ag266
ag290
ag308
ag316
ag328
ag370
ag392
ag428
ag432
ag438
ag573
ag1149
ag703
ag705
ag1011
ag777
ag749
ag773
ag801
ag847
ag1413
ag913
ag927
ag929
ag953
ag955
ag787
ag985
ag991
ag993
ag1005
ag1041
ag1057
ag1093
ag522
ag717
ag1239
ag1223
ag1139
ag1185
ag1255
ag1299
ag1329
ag555
ag412
ag1401
ag1447
ag1515
ag1519
asg169
(lp1577
g183
ag246
ag252
ag254
ag266
ag290
ag308
ag316
ag328
ag356
ag370
ag392
ag428
ag430
ag432
ag494
ag1115
ag1149
ag591
ag613
ag1471
ag647
ag699
ag703
ag705
ag733
ag777
ag745
ag749
ag753
ag773
ag801
ag817
ag847
ag262
ag913
ag927
ag929
ag955
ag787
ag991
ag993
ag1005
ag1041
ag1053
ag1313
ag1057
ag158
ag1093
ag1293
ag522
ag1169
ag717
ag1239
ag1187
ag1189
ag1223
ag1139
ag1185
ag1255
ag1299
ag1329
ag1333
ag851
ag1449
ag555
ag412
ag1401
ag1447
ag1515
ag1519
asg15
(lp1578
g2
ag38
ag183
ag222
ag224
ag228
ag252
ag254
ag266
ag278
ag316
ag356
ag376
ag392
ag398
ag428
ag432
ag436
ag494
ag512
ag1115
ag1149
ag591
ag613
ag635
ag1471
ag677
ag685
ag699
ag703
ag705
ag711
ag1011
ag777
ag745
ag749
ag753
ag739
ag773
ag801
ag817
ag827
ag847
ag1397
ag913
ag927
ag929
ag931
ag955
ag787
ag985
ag991
ag993
ag1021
ag1041
ag1053
ag1313
ag1293
ag522
ag1155
ag1169
ag717
ag1239
ag1187
ag1189
ag1223
ag1139
ag1185
ag1255
ag1275
ag1285
ag1299
ag1329
ag310
ag851
ag555
ag412
ag1401
ag1447
ag949
ag1515
ag1519
asg87
(lp1579
g38
ag222
ag224
ag228
ag254
ag278
ag376
ag392
ag424
ag432
ag436
ag549
ag494
ag591
ag635
ag1471
ag1147
ag699
ag703
ag711
ag777
ag773
ag817
ag827
ag837
ag847
ag1397
ag911
ag929
ag931
ag935
ag955
ag787
ag1053
ag1313
ag547
ag1155
ag1167
ag1169
ag1173
ag1239
ag1187
ag1189
ag1223
ag1139
ag1185
ag1241
ag1275
ag1285
ag1299
ag1329
ag310
ag851
ag1359
ag555
ag1401
ag1431
ag1447
ag949
ag1469
ag1515
asg23
(lp1580
g2
ag38
ag183
ag228
ag246
ag252
ag254
ag266
ag290
ag308
ag316
ag328
ag370
ag376
ag392
ag428
ag432
ag438
ag512
ag1115
ag575
ag1149
ag591
ag613
ag1163
ag685
ag703
ag705
ag1011
ag777
ag749
ag739
ag773
ag801
ag845
ag847
ag913
ag927
ag929
ag787
ag991
ag993
ag1003
ag1005
ag1021
ag1041
ag1053
ag1057
ag158
ag1093
ag522
ag1169
ag717
ag1239
ag1187
ag1223
ag1139
ag1185
ag1255
ag1299
ag555
ag412
ag1401
ag1447
ag949
ag1461
ag1515
ag1519
asg40
(lp1581
g38
ag183
ag222
ag252
ag254
ag266
ag290
ag308
ag316
ag328
ag392
ag398
ag428
ag432
ag436
ag494
ag512
ag575
ag1149
ag591
ag613
ag635
ag703
ag705
ag777
ag745
ag749
ag773
ag801
ag817
ag827
ag847
ag913
ag927
ag929
ag955
ag787
ag985
ag991
ag993
ag1003
ag1005
ag1041
ag1053
ag1313
ag158
ag1093
ag522
ag1169
ag717
ag1239
ag1189
ag1223
ag1139
ag1185
ag1255
ag1275
ag1299
ag1329
ag851
ag555
ag412
ag1401
ag1447
ag949
ag1515
ag1519
asg8
(lp1582
g2
ag38
ag183
ag228
ag252
ag254
ag266
ag290
ag308
ag316
ag328
ag392
ag398
ag406
ag428
ag432
ag436
ag494
ag1149
ag591
ag613
ag635
ag1471
ag1163
ag677
ag699
ag703
ag705
ag711
ag1011
ag733
ag777
ag749
ag739
ag773
ag801
ag845
ag847
ag913
ag927
ag929
ag955
ag787
ag983
ag985
ag991
ag993
ag1003
ag1005
ag1021
ag1041
ag1053
ag1313
ag158
ag1093
ag1293
ag522
ag1165
ag1169
ag717
ag1239
ag1187
ag1189
ag1223
ag1139
ag1185
ag1255
ag1275
ag1285
ag1295
ag1299
ag1329
ag851
ag555
ag412
ag1401
ag1447
ag949
ag1461
ag1515
ag1519
asg46
(lp1583
g38
ag183
ag228
ag252
ag254
ag266
ag290
ag308
ag316
ag328
ag392
ag398
ag406
ag428
ag432
ag436
ag494
ag1149
ag703
ag705
ag1011
ag777
ag749
ag773
ag847
ag913
ag927
ag929
ag953
ag955
ag787
ag991
ag993
ag1005
ag1041
ag1057
ag158
ag1093
ag522
ag717
ag1239
ag1189
ag1223
ag1139
ag1185
ag1255
ag1263
ag1299
ag1329
ag555
ag412
ag1401
ag1447
ag949
ag1515
ag1519
asg173
(lp1584
g183
ag252
ag254
ag266
ag290
ag308
ag316
ag328
ag392
ag428
ag432
ag494
ag1149
ag703
ag705
ag777
ag749
ag773
ag847
ag913
ag927
ag929
ag955
ag787
ag993
ag1005
ag1041
ag158
ag1093
ag522
ag717
ag1239
ag1187
ag1189
ag1223
ag1139
ag1185
ag1255
ag1299
ag1329
ag555
ag412
ag1401
ag1447
ag949
ag1515
ag1519
asg160
(lp1585
g183
ag228
ag246
ag252
ag254
ag266
ag290
ag308
ag316
ag328
ag356
ag370
ag392
ag428
ag430
ag432
ag512
ag573
ag575
ag1149
ag591
ag613
ag1471
ag685
ag699
ag703
ag705
ag777
ag745
ag749
ag753
ag773
ag801
ag847
ag1413
ag913
ag927
ag929
ag955
ag787
ag991
ag993
ag1005
ag1021
ag1041
ag1053
ag1313
ag1057
ag158
ag1293
ag522
ag1165
ag1169
ag717
ag1239
ag1187
ag1189
ag1223
ag1231
ag1139
ag1185
ag1255
ag1263
ag1285
ag1299
ag1329
ag1333
ag851
ag1449
ag1359
ag555
ag412
ag1401
ag1447
ag949
ag1515
ag1519
asg128
(lp1586
g38
ag183
ag222
ag224
ag228
ag252
ag254
ag266
ag290
ag316
ag376
ag392
ag398
ag428
ag432
ag436
ag494
ag512
ag1115
ag1149
ag591
ag613
ag1471
ag1163
ag677
ag1147
ag699
ag703
ag705
ag711
ag1011
ag777
ag749
ag739
ag773
ag801
ag817
ag827
ag847
ag927
ag929
ag955
ag787
ag985
ag991
ag993
ag1021
ag1041
ag1053
ag1313
ag1057
ag1293
ag522
ag1155
ag1167
ag1169
ag717
ag1239
ag1187
ag1189
ag1223
ag1139
ag1185
ag1255
ag1275
ag1285
ag1299
ag1329
ag310
ag851
ag555
ag412
ag1401
ag1447
ag949
ag1515
ag1519
asg74
(lp1587
g38
ag183
ag228
ag246
ag250
ag252
ag254
ag266
ag290
ag308
ag316
ag328
ag376
ag392
ag428
ag432
ag436
ag494
ag512
ag1149
ag591
ag613
ag677
ag699
ag703
ag705
ag733
ag777
ag745
ag749
ag753
ag773
ag801
ag817
ag837
ag847
ag1397
ag927
ag929
ag953
ag955
ag787
ag985
ag991
ag993
ag1041
ag1313
ag1057
ag522
ag1169
ag1239
ag1189
ag1223
ag1139
ag1185
ag1255
ag1263
ag1275
ag1285
ag1299
ag1329
ag851
ag1359
ag555
ag412
ag1401
ag1447
ag949
ag1515
ag1519
asg29
(lp1588
g2
ag183
ag246
ag252
ag254
ag266
ag290
ag308
ag316
ag328
ag356
ag370
ag392
ag432
ag438
ag575
ag1149
ag591
ag1163
ag685
ag703
ag705
ag1011
ag777
ag739
ag773
ag801
ag845
ag847
ag1413
ag913
ag927
ag929
ag955
ag787
ag985
ag991
ag993
ag1005
ag1021
ag1041
ag1053
ag1057
ag158
ag1093
ag522
ag717
ag1239
ag1223
ag1185
ag1255
ag1299
ag555
ag412
ag1401
ag1447
ag1519
asg172
(lp1589
g183
ag246
ag252
ag254
ag266
ag290
ag308
ag316
ag328
ag370
ag392
ag432
ag438
ag573
ag1149
ag1163
ag685
ag703
ag705
ag777
ag739
ag773
ag801
ag845
ag847
ag913
ag927
ag929
ag787
ag991
ag993
ag1003
ag1005
ag1021
ag1041
ag1057
ag158
ag1093
ag522
ag717
ag1239
ag1187
ag1223
ag1185
ag1255
ag1299
ag1333
ag555
ag412
ag1401
ag1447
ag1461
ag1519
asg118
(lp1590
g38
ag183
ag228
ag252
ag254
ag266
ag290
ag308
ag316
ag392
ag406
ag428
ag432
ag438
ag1149
ag703
ag705
ag777
ag749
ag773
ag801
ag847
ag913
ag927
ag929
ag955
ag787
ag985
ag991
ag993
ag1005
ag1021
ag1041
ag1093
ag522
ag717
ag1239
ag1223
ag1139
ag1185
ag1255
ag1299
ag1329
ag555
ag412
ag1401
ag1447
ag949
ag1515
ag1519
asg135
(lp1591
g38
ag183
ag222
ag224
ag228
ag252
ag254
ag266
ag278
ag290
ag308
ag316
ag328
ag356
ag376
ag392
ag398
ag406
ag428
ag432
ag436
ag494
ag512
ag1149
ag591
ag613
ag635
ag1471
ag677
ag685
ag699
ag703
ag705
ag711
ag733
ag777
ag749
ag753
ag739
ag773
ag801
ag809
ag817
ag827
ag837
ag847
ag1397
ag913
ag927
ag929
ag931
ag955
ag787
ag983
ag985
ag991
ag993
ag1003
ag1005
ag1041
ag1053
ag1313
ag1057
ag158
ag1093
ag1293
ag522
ag1165
ag1169
ag717
ag1239
ag1187
ag1189
ag1223
ag1139
ag1185
ag1255
ag1275
ag1285
ag1299
ag1329
ag1333
ag310
ag851
ag555
ag412
ag1401
ag1447
ag949
ag1515
ag1519
asg6
(lp1592
g2
ag38
ag183
ag252
ag254
ag266
ag290
ag308
ag316
ag328
ag370
ag392
ag406
ag428
ag432
ag438
ag575
ag1149
ag1163
ag685
ag703
ag705
ag1011
ag777
ag749
ag773
ag801
ag847
ag913
ag927
ag929
ag955
ag787
ag991
ag993
ag1003
ag1005
ag1041
ag1053
ag1057
ag1093
ag522
ag717
ag1239
ag1223
ag1139
ag1185
ag1255
ag1299
ag1329
ag1351
ag555
ag412
ag1401
ag1447
ag1515
ag1519
asg136
(lp1593
g38
ag222
ag224
ag228
ag254
ag278
ag328
ag899
ag376
ag392
ag398
ag424
ag432
ag436
ag549
ag494
ag591
ag613
ag635
ag1471
ag1147
ag699
ag703
ag711
ag777
ag773
ag817
ag827
ag847
ag1397
ag911
ag929
ag931
ag953
ag955
ag787
ag983
ag985
ag1041
ag1053
ag1313
ag1293
ag522
ag547
ag1155
ag1167
ag1169
ag1173
ag1239
ag1187
ag1189
ag1223
ag1185
ag1275
ag1285
ag1295
ag1299
ag1305
ag1329
ag310
ag851
ag1359
ag555
ag1401
ag1431
ag1447
ag949
ag1453
ag1469
ag1515
asg163
(lp1594
g183
ag246
ag252
ag254
ag266
ag290
ag308
ag316
ag328
ag370
ag392
ag432
ag438
ag575
ag1149
ag1163
ag685
ag703
ag705
ag777
ag739
ag773
ag801
ag845
ag847
ag1413
ag913
ag927
ag929
ag787
ag993
ag1003
ag1005
ag1021
ag1041
ag1057
ag158
ag1093
ag522
ag717
ag1239
ag1223
ag1185
ag1255
ag1299
ag1449
ag555
ag412
ag1401
ag1447
ag1519
asg41
(lp1595
g38
ag183
ag252
ag254
ag266
ag290
ag308
ag316
ag328
ag392
ag398
ag428
ag432
ag494
ag575
ag1149
ag591
ag703
ag705
ag777
ag749
ag773
ag847
ag913
ag927
ag929
ag955
ag787
ag993
ag1003
ag1005
ag1041
ag158
ag1093
ag522
ag1169
ag717
ag1239
ag1189
ag1223
ag1139
ag1185
ag1255
ag1275
ag1299
ag1329
ag555
ag412
ag1401
ag1447
ag1515
ag1519
asg92
(lp1596
g38
ag222
ag224
ag228
ag252
ag254
ag266
ag278
ag316
ag376
ag392
ag398
ag428
ag432
ag436
ag494
ag512
ag1115
ag1149
ag591
ag613
ag635
ag1471
ag1163
ag677
ag699
ag703
ag705
ag711
ag777
ag745
ag749
ag739
ag773
ag799
ag817
ag827
ag847
ag1397
ag927
ag929
ag931
ag935
ag955
ag787
ag991
ag993
ag1041
ag1053
ag1313
ag158
ag1293
ag522
ag1167
ag1169
ag717
ag1239
ag1187
ag1189
ag1223
ag1139
ag1185
ag1255
ag1275
ag1285
ag1299
ag1329
ag310
ag851
ag555
ag412
ag1401
ag1447
ag949
ag1515
ag1519
asg61
(lp1597
g38
ag183
ag190
ag222
ag224
ag228
ag252
ag254
ag266
ag290
ag308
ag316
ag328
ag370
ag376
ag392
ag398
ag428
ag432
ag436
ag494
ag512
ag1115
ag1149
ag591
ag613
ag1471
ag1163
ag677
ag699
ag703
ag705
ag711
ag777
ag749
ag753
ag739
ag773
ag801
ag817
ag827
ag847
ag1397
ag262
ag1413
ag927
ag929
ag955
ag787
ag985
ag991
ag993
ag1003
ag1021
ag1041
ag1053
ag1313
ag1057
ag158
ag1293
ag522
ag1169
ag717
ag1239
ag1187
ag1189
ag1223
ag1139
ag1185
ag1255
ag1275
ag1285
ag1295
ag1299
ag1329
ag851
ag555
ag412
ag1401
ag1447
ag949
ag1515
ag1519
asg31
(lp1598
g2
ag38
ag222
ag224
ag228
ag254
ag278
ag316
ag328
ag376
ag392
ag398
ag428
ag430
ag432
ag436
ag494
ag512
ag1115
ag1149
ag591
ag613
ag635
ag1471
ag677
ag699
ag703
ag705
ag711
ag777
ag749
ag753
ag773
ag809
ag817
ag827
ag847
ag1397
ag927
ag929
ag931
ag955
ag787
ag983
ag991
ag993
ag1041
ag1053
ag1313
ag1057
ag158
ag1293
ag522
ag1169
ag717
ag1239
ag1187
ag1189
ag1223
ag1139
ag1185
ag1255
ag1263
ag1275
ag1285
ag1295
ag1299
ag1329
ag310
ag851
ag1359
ag555
ag412
ag1401
ag1447
ag949
ag1469
ag1515
ag1519
asg162
(lp1599
g183
ag222
ag246
ag252
ag254
ag266
ag290
ag308
ag316
ag328
ag356
ag370
ag392
ag428
ag430
ag432
ag512
ag1115
ag573
ag1149
ag613
ag685
ag699
ag703
ag705
ag711
ag777
ag745
ag749
ag753
ag739
ag773
ag801
ag847
ag1413
ag913
ag927
ag929
ag955
ag787
ag991
ag993
ag1005
ag1021
ag1041
ag1053
ag1057
ag158
ag1093
ag1293
ag522
ag1165
ag1169
ag717
ag1239
ag1189
ag1223
ag1231
ag1139
ag1185
ag1255
ag1263
ag1299
ag1329
ag1333
ag851
ag555
ag412
ag1401
ag1447
ag1515
ag1519
asg14
(lp1600
g2
ag38
ag183
ag222
ag228
ag246
ag252
ag254
ag266
ag290
ag308
ag316
ag328
ag356
ag370
ag392
ag428
ag432
ag436
ag438
ag494
ag512
ag1115
ag573
ag575
ag1149
ag591
ag613
ag635
ag1471
ag647
ag699
ag703
ag705
ag711
ag1011
ag733
ag777
ag749
ag773
ag801
ag809
ag845
ag847
ag262
ag1413
ag913
ag927
ag929
ag955
ag787
ag991
ag993
ag1003
ag1005
ag1021
ag1041
ag1053
ag1313
ag1057
ag158
ag1093
ag1293
ag522
ag1165
ag1169
ag717
ag1239
ag1187
ag1189
ag1223
ag1231
ag1139
ag1185
ag1255
ag1263
ag1275
ag1285
ag1299
ag1329
ag1333
ag851
ag1351
ag555
ag412
ag1401
ag1447
ag949
ag1461
ag1515
ag1519
asg69
(lp1601
g38
ag222
ag224
ag228
ag254
ag278
ag376
ag392
ag398
ag432
ag436
ag494
ag512
ag1149
ag591
ag613
ag635
ag1471
ag677
ag699
ag703
ag711
ag777
ag749
ag753
ag773
ag817
ag847
ag1397
ag929
ag931
ag955
ag991
ag1041
ag1053
ag1313
ag1293
ag522
ag1169
ag1239
ag1187
ag1189
ag1223
ag1139
ag1185
ag1275
ag1285
ag1299
ag1329
ag310
ag851
ag1359
ag555
ag1401
ag1431
ag1447
ag949
ag1453
ag1469
ag1515
asg33
(lp1602
g2
ag38
ag222
ag224
ag228
ag254
ag266
ag278
ag308
ag328
ag376
ag392
ag398
ag406
ag424
ag428
ag432
ag436
ag549
ag494
ag512
ag1149
ag591
ag613
ag635
ag1471
ag677
ag699
ag703
ag705
ag711
ag733
ag777
ag745
ag749
ag753
ag739
ag773
ag799
ag817
ag827
ag847
ag1397
ag929
ag955
ag787
ag985
ag991
ag993
ag1041
ag1053
ag1313
ag1093
ag1293
ag522
ag1169
ag717
ag1239
ag1187
ag1189
ag1223
ag1139
ag1185
ag1255
ag1275
ag1285
ag1299
ag1329
ag851
ag1359
ag555
ag412
ag1401
ag1447
ag949
ag1515
asg177
(lp1603
g183
ag228
ag246
ag252
ag254
ag266
ag290
ag308
ag316
ag328
ag356
ag370
ag376
ag392
ag428
ag432
ag494
ag512
ag573
ag1149
ag613
ag685
ag703
ag705
ag1011
ag777
ag745
ag749
ag773
ag801
ag845
ag847
ag1413
ag913
ag927
ag929
ag955
ag787
ag991
ag993
ag1003
ag1005
ag1021
ag1041
ag1053
ag1057
ag158
ag1093
ag1293
ag522
ag1165
ag717
ag1239
ag1187
ag1189
ag1223
ag1139
ag1185
ag1255
ag1299
ag1333
ag851
ag555
ag412
ag1401
ag1447
ag949
ag1515
ag1519
asg122
(lp1604
g38
ag183
ag252
ag254
ag266
ag290
ag308
ag316
ag328
ag370
ag392
ag428
ag432
ag438
ag1149
ag591
ag677
ag685
ag703
ag705
ag1011
ag733
ag777
ag745
ag749
ag773
ag801
ag845
ag847
ag1413
ag913
ag927
ag929
ag955
ag787
ag985
ag993
ag1005
ag1021
ag1041
ag1057
ag158
ag1093
ag522
ag717
ag1239
ag1189
ag1223
ag1139
ag1185
ag1255
ag1299
ag1329
ag555
ag412
ag1401
ag1447
ag949
ag1515
ag1519
asg524
(lp1605
g522
asg75
(lp1606
g38
ag183
ag190
ag222
ag224
ag228
ag252
ag254
ag266
ag290
ag316
ag370
ag376
ag392
ag398
ag428
ag432
ag436
ag549
ag494
ag512
ag1115
ag573
ag1149
ag591
ag613
ag1471
ag677
ag699
ag703
ag705
ag711
ag777
ag749
ag739
ag773
ag817
ag827
ag847
ag1397
ag913
ag927
ag929
ag931
ag935
ag955
ag787
ag985
ag991
ag993
ag1021
ag1041
ag1053
ag1313
ag1057
ag1293
ag522
ag1167
ag1169
ag717
ag1239
ag1187
ag1189
ag1223
ag1139
ag1185
ag1255
ag1275
ag1285
ag1295
ag1299
ag1329
ag310
ag851
ag555
ag412
ag1401
ag1447
ag949
ag1515
ag1519
asg141
(lp1607
g38
ag183
ag224
ag254
ag266
ag290
ag308
ag316
ag328
ag376
ag392
ag406
ag428
ag432
ag494
ag1149
ag591
ag613
ag1471
ag677
ag699
ag703
ag705
ag711
ag733
ag777
ag745
ag753
ag773
ag801
ag837
ag847
ag1397
ag1413
ag927
ag929
ag955
ag787
ag991
ag999
ag1005
ag1041
ag1313
ag1293
ag522
ag1169
ag1239
ag1189
ag1223
ag1139
ag1185
ag1255
ag1263
ag1275
ag1299
ag1329
ag851
ag555
ag412
ag1401
ag1447
ag949
ag1515
ag1519
asg117
(lp1608
g38
ag222
ag224
ag228
ag1335
ag254
ag278
ag899
ag376
ag392
ag424
ag432
ag436
ag442
ag549
ag494
ag591
ag613
ag635
ag1471
ag1147
ag699
ag703
ag777
ag773
ag817
ag827
ag847
ag1397
ag911
ag929
ag931
ag953
ag955
ag967
ag983
ag1053
ag1313
ag1097
ag547
ag1167
ag1169
ag1173
ag1239
ag1187
ag1189
ag1223
ag1185
ag1241
ag1255
ag1285
ag1299
ag1329
ag310
ag851
ag1359
ag555
ag1401
ag943
ag1431
ag1447
ag949
ag1469
ag1515
asg189
(lp1609
g183
ag252
ag254
ag266
ag290
ag308
ag316
ag328
ag376
ag392
ag406
ag428
ag432
ag494
ag1149
ag591
ag1471
ag677
ag685
ag699
ag703
ag705
ag711
ag733
ag777
ag745
ag749
ag773
ag801
ag837
ag847
ag1397
ag1413
ag927
ag929
ag955
ag787
ag991
ag1041
ag1313
ag1057
ag1293
ag522
ag717
ag1239
ag1189
ag1223
ag1139
ag1185
ag1255
ag1263
ag1299
ag1329
ag851
ag555
ag412
ag1401
ag1447
ag949
ag1515
ag1519
asg48
(lp1610
g38
ag183
ag228
ag252
ag254
ag266
ag290
ag308
ag316
ag328
ag392
ag406
ag428
ag432
ag494
ag575
ag1149
ag591
ag703
ag705
ag777
ag749
ag739
ag773
ag847
ag913
ag927
ag929
ag955
ag787
ag985
ag991
ag993
ag1003
ag1005
ag1021
ag1041
ag1313
ag1057
ag158
ag1093
ag522
ag717
ag1239
ag1189
ag1223
ag1139
ag1185
ag1255
ag1299
ag1329
ag851
ag555
ag412
ag1401
ag1447
ag1515
ag1519
asg106
(lp1611
g38
ag222
ag224
ag228
ag250
ag254
ag266
ag278
ag290
ag308
ag316
ag328
ag356
ag376
ag392
ag398
ag414
ag428
ag430
ag432
ag436
ag494
ag512
ag1149
ag591
ag613
ag635
ag1471
ag677
ag699
ag703
ag705
ag711
ag733
ag777
ag745
ag749
ag753
ag773
ag809
ag817
ag837
ag847
ag1397
ag262
ag1413
ag927
ag929
ag953
ag955
ag787
ag985
ag991
ag993
ag999
ag1005
ag1027
ag1041
ag1053
ag1313
ag1057
ag1293
ag522
ag1165
ag1169
ag1239
ag1187
ag416
ag1189
ag1223
ag1231
ag1139
ag1185
ag1255
ag1263
ag1275
ag1285
ag1299
ag1329
ag1333
ag851
ag1359
ag555
ag412
ag1401
ag1447
ag949
ag1453
ag1503
ag1515
ag1519
asg21
(lp1612
g2
ag38
ag183
ag252
ag254
ag266
ag290
ag308
ag316
ag328
ag370
ag376
ag392
ag428
ag432
ag438
ag494
ag512
ag1115
ag573
ag575
ag1149
ag591
ag1471
ag647
ag1163
ag677
ag685
ag703
ag705
ag711
ag1011
ag777
ag745
ag749
ag739
ag773
ag801
ag817
ag845
ag847
ag1413
ag913
ag927
ag929
ag955
ag787
ag983
ag991
ag993
ag1003
ag1005
ag1021
ag1041
ag1053
ag1313
ag1057
ag158
ag1093
ag522
ag1169
ag717
ag1239
ag1189
ag1223
ag1139
ag1185
ag1255
ag1275
ag1285
ag1299
ag1329
ag851
ag555
ag412
ag1401
ag1447
ag949
ag1461
ag1515
ag1519
asg115
(lp1613
g38
ag183
ag228
ag252
ag254
ag266
ag290
ag308
ag316
ag328
ag392
ag398
ag428
ag432
ag436
ag494
ag1149
ag591
ag613
ag635
ag1471
ag1163
ag699
ag703
ag705
ag711
ag733
ag777
ag749
ag739
ag773
ag801
ag845
ag847
ag913
ag927
ag929
ag955
ag787
ag985
ag991
ag993
ag1003
ag1005
ag1021
ag1041
ag1053
ag1313
ag158
ag1093
ag1293
ag522
ag1169
ag717
ag1239
ag1189
ag1223
ag1139
ag1185
ag1255
ag1275
ag1285
ag1299
ag1329
ag851
ag555
ag412
ag1401
ag1447
ag949
ag1461
ag1515
ag1519
asg82
(lp1614
g38
ag222
ag224
ag228
ag236
ag250
ag252
ag254
ag266
ag278
ag328
ag376
ag390
ag392
ag398
ag414
ag428
ag430
ag432
ag436
ag494
ag512
ag1149
ag591
ag613
ag635
ag1471
ag677
ag699
ag703
ag705
ag777
ag749
ag753
ag773
ag799
ag809
ag817
ag827
ag837
ag847
ag929
ag955
ag787
ag985
ag991
ag993
ag1041
ag1053
ag1313
ag1093
ag522
ag1169
ag717
ag1239
ag1187
ag416
ag1189
ag1223
ag1139
ag1185
ag1255
ag1263
ag1275
ag1285
ag1299
ag1329
ag1333
ag310
ag851
ag1359
ag555
ag412
ag1401
ag943
ag1447
ag949
ag1453
ag1469
ag1515
ag1519
asg100
(lp1615
g38
ag183
ag224
ag228
ag250
ag252
ag254
ag266
ag308
ag328
ag376
ag392
ag398
ag406
ag414
ag428
ag432
ag436
ag494
ag1149
ag591
ag613
ag1471
ag677
ag699
ag703
ag705
ag1011
ag777
ag749
ag773
ag801
ag809
ag837
ag847
ag1413
ag927
ag929
ag955
ag787
ag985
ag991
ag993
ag1005
ag1027
ag1041
ag1313
ag1057
ag158
ag1093
ag522
ag1169
ag717
ag1239
ag1189
ag1223
ag1139
ag1185
ag1255
ag1263
ag1275
ag1285
ag1299
ag1329
ag851
ag555
ag412
ag1401
ag1447
ag949
ag1515
ag1519
asg78
(lp1616
g38
ag183
ag190
ag222
ag228
ag252
ag254
ag266
ag316
ag328
ag376
ag392
ag398
ag432
ag436
ag494
ag1149
ag591
ag613
ag1471
ag699
ag703
ag705
ag711
ag777
ag749
ag753
ag739
ag773
ag817
ag827
ag847
ag1397
ag927
ag929
ag931
ag935
ag955
ag967
ag983
ag991
ag1003
ag1041
ag1053
ag1313
ag1057
ag1293
ag1155
ag1169
ag1239
ag1187
ag1189
ag1223
ag1139
ag1185
ag1255
ag1275
ag1285
ag1295
ag1299
ag1329
ag851
ag555
ag412
ag1401
ag1447
ag949
asg123
(lp1617
g38
ag190
ag222
ag224
ag228
ag1335
ag254
ag278
ag899
ag376
ag392
ag424
ag432
ag436
ag549
ag490
ag494
ag591
ag1471
ag496
ag1147
ag699
ag711
ag777
ag745
ag773
ag817
ag827
ag847
ag1397
ag901
ag911
ag929
ag931
ag935
ag955
ag969
ag1007
ag1053
ag1313
ag1097
ag1155
ag1167
ag1169
ag1173
ag1239
ag1187
ag1189
ag1223
ag1185
ag1241
ag1285
ag1295
ag1299
ag1329
ag310
ag851
ag555
ag1401
ag943
ag1431
ag1447
ag949
ag1469
ag1515
asg25
(lp1618
g2
ag183
ag246
ag252
ag254
ag266
ag290
ag308
ag316
ag328
ag370
ag392
ag428
ag432
ag494
ag1115
ag575
ag1149
ag591
ag685
ag703
ag705
ag777
ag749
ag773
ag801
ag847
ag1413
ag913
ag927
ag929
ag955
ag787
ag985
ag991
ag993
ag1003
ag1005
ag1021
ag1041
ag1053
ag1057
ag158
ag1093
ag1293
ag522
ag1165
ag1169
ag717
ag1239
ag1187
ag1223
ag1139
ag1185
ag1255
ag1299
ag1329
ag1333
ag555
ag412
ag1401
ag1447
ag949
ag1515
ag1519
asg99
(lp1619
g38
ag222
ag224
ag228
ag254
ag266
ag278
ag316
ag376
ag392
ag398
ag428
ag432
ag436
ag494
ag512
ag1149
ag591
ag613
ag1471
ag677
ag685
ag699
ag703
ag705
ag711
ag777
ag749
ag739
ag773
ag817
ag827
ag847
ag1397
ag927
ag929
ag931
ag955
ag787
ag991
ag993
ag1041
ag1053
ag1313
ag1293
ag522
ag1167
ag1169
ag1239
ag1187
ag1189
ag1223
ag1139
ag1185
ag1255
ag1275
ag1285
ag1299
ag1329
ag310
ag851
ag555
ag412
ag1401
ag1447
ag949
ag1515
ag1519
asg107
(lp1620
g38
ag190
ag224
ag228
ag252
ag254
ag266
ag278
ag316
ag328
ag376
ag392
ag398
ag424
ag432
ag494
ag512
ag1149
ag591
ag613
ag1471
ag699
ag703
ag705
ag711
ag777
ag739
ag773
ag801
ag817
ag827
ag847
ag927
ag929
ag931
ag787
ag967
ag983
ag991
ag1041
ag1053
ag1313
ag1057
ag1293
ag1155
ag1167
ag1169
ag1239
ag1189
ag1223
ag1139
ag1185
ag1255
ag1275
ag1285
ag1295
ag1299
ag1329
ag851
ag555
ag412
ag1401
ag943
ag1447
ag949
ag1515
ag1519
asg108
(lp1621
g38
ag190
ag222
ag224
ag228
ag254
ag278
ag899
ag376
ag392
ag424
ag432
ag436
ag549
ag490
ag591
ag1471
ag496
ag1147
ag699
ag777
ag773
ag817
ag827
ag847
ag1397
ag911
ag929
ag931
ag935
ag953
ag955
ag1053
ag1313
ag1097
ag1167
ag1173
ag1239
ag1187
ag1189
ag1223
ag1185
ag1241
ag1285
ag1299
ag1329
ag310
ag851
ag555
ag943
ag1431
ag1447
ag949
ag1469
ag1515
asg134
(lp1622
g38
ag183
ag252
ag254
ag266
ag290
ag308
ag316
ag328
ag370
ag392
ag398
ag428
ag432
ag436
ag494
ag1115
ag575
ag1149
ag613
ag635
ag699
ag703
ag705
ag711
ag733
ag777
ag745
ag749
ag739
ag773
ag801
ag847
ag913
ag927
ag929
ag955
ag787
ag985
ag991
ag993
ag1005
ag1041
ag1093
ag1293
ag522
ag1169
ag717
ag1239
ag1187
ag1189
ag1223
ag1139
ag1185
ag1255
ag1263
ag1275
ag1285
ag1299
ag1329
ag851
ag555
ag412
ag1401
ag1447
ag949
ag1515
ag1519
asg89
(lp1623
g38
ag222
ag224
ag228
ag236
ag250
ag252
ag254
ag266
ag308
ag316
ag328
ag376
ag392
ag398
ag414
ag428
ag432
ag436
ag494
ag1149
ag591
ag613
ag635
ag677
ag699
ag703
ag705
ag733
ag777
ag749
ag773
ag801
ag837
ag847
ag1413
ag927
ag929
ag953
ag955
ag787
ag985
ag991
ag993
ag1005
ag1041
ag1313
ag1093
ag1293
ag522
ag1169
ag717
ag1239
ag1187
ag1189
ag1223
ag1139
ag1185
ag1255
ag1263
ag1275
ag1285
ag1299
ag1329
ag1333
ag851
ag555
ag412
ag1401
ag1447
ag949
ag1515
ag1519
asg174
(lp1624
g183
ag246
ag252
ag254
ag266
ag290
ag308
ag316
ag328
ag356
ag370
ag392
ag428
ag430
ag432
ag512
ag1115
ag573
ag1149
ag591
ag613
ag1471
ag677
ag685
ag699
ag703
ag705
ag777
ag745
ag749
ag753
ag773
ag801
ag817
ag847
ag1397
ag1413
ag913
ag927
ag929
ag955
ag787
ag991
ag993
ag1003
ag1005
ag1021
ag1041
ag1053
ag1313
ag1057
ag158
ag1293
ag522
ag1165
ag1169
ag717
ag1239
ag1187
ag1189
ag1223
ag1231
ag1139
ag1185
ag1255
ag1263
ag1299
ag1329
ag1333
ag851
ag1449
ag1359
ag555
ag412
ag1401
ag1447
ag949
ag1515
ag1519
asg125
(lp1625
g38
ag222
ag224
ag228
ag254
ag278
ag316
ag328
ag356
ag376
ag392
ag398
ag424
ag428
ag430
ag432
ag436
ag549
ag494
ag512
ag591
ag613
ag631
ag635
ag1471
ag677
ag699
ag703
ag705
ag711
ag733
ag777
ag745
ag749
ag753
ag739
ag773
ag817
ag827
ag847
ag1397
ag911
ag927
ag929
ag931
ag955
ag787
ag983
ag985
ag991
ag1041
ag1053
ag1313
ag1293
ag522
ag1167
ag1169
ag1239
ag1187
ag1189
ag1223
ag1139
ag1185
ag1255
ag1275
ag1285
ag1295
ag1299
ag1329
ag310
ag851
ag555
ag412
ag1401
ag943
ag1447
ag949
ag1469
ag1515
ag1519
asg52
(lp1626
g38
ag183
ag252
ag254
ag266
ag290
ag308
ag316
ag328
ag370
ag392
ag406
ag428
ag432
ag494
ag575
ag1149
ag677
ag703
ag705
ag777
ag749
ag773
ag847
ag913
ag927
ag929
ag955
ag787
ag991
ag993
ag1003
ag1005
ag1021
ag1041
ag158
ag1093
ag522
ag717
ag1239
ag1187
ag1189
ag1223
ag1139
ag1185
ag1255
ag1263
ag1299
ag1329
ag555
ag412
ag1401
ag1447
ag1515
ag1519
asg96
(lp1627
g38
ag183
ag190
ag222
ag224
ag228
ag252
ag254
ag266
ag278
ag290
ag316
ag328
ag356
ag376
ag392
ag398
ag424
ag428
ag432
ag436
ag494
ag1149
ag591
ag613
ag1471
ag699
ag703
ag705
ag711
ag777
ag745
ag749
ag739
ag773
ag801
ag817
ag847
ag1397
ag927
ag929
ag931
ag935
ag955
ag787
ag967
ag983
ag991
ag1041
ag1053
ag1313
ag1057
ag1293
ag1167
ag1169
ag1239
ag1187
ag1189
ag1223
ag1139
ag1185
ag1255
ag1275
ag1285
ag1295
ag1299
ag1329
ag310
ag851
ag555
ag412
ag1401
ag1447
ag949
ag1519
asg98
(lp1628
g38
ag183
ag222
ag224
ag228
ag250
ag252
ag254
ag266
ag278
ag290
ag308
ag316
ag328
ag376
ag392
ag398
ag406
ag414
ag428
ag430
ag432
ag436
ag494
ag575
ag1149
ag591
ag613
ag635
ag1471
ag677
ag699
ag703
ag705
ag777
ag749
ag753
ag773
ag799
ag801
ag817
ag847
ag1397
ag913
ag927
ag929
ag955
ag787
ag985
ag991
ag993
ag1005
ag1041
ag1053
ag1313
ag158
ag1093
ag1293
ag522
ag1165
ag1169
ag1239
ag1187
ag1189
ag1223
ag1139
ag1185
ag1255
ag1275
ag1285
ag1299
ag1329
ag851
ag1359
ag555
ag412
ag1401
ag1447
ag949
ag1515
ag1519
asg113
(lp1629
g38
ag183
ag252
ag254
ag266
ag290
ag308
ag316
ag328
ag370
ag392
ag428
ag432
ag438
ag1149
ag703
ag705
ag777
ag749
ag773
ag801
ag847
ag913
ag927
ag929
ag955
ag787
ag991
ag993
ag1005
ag1021
ag1041
ag158
ag1093
ag522
ag717
ag1239
ag1223
ag1139
ag1185
ag1255
ag1285
ag1299
ag1329
ag555
ag412
ag1401
ag1447
ag1515
ag1519
asg111
(lp1630
g38
ag190
ag222
ag224
ag228
ag1335
ag254
ag278
ag899
ag376
ag392
ag424
ag432
ag436
ag549
ag490
ag494
ag591
ag1471
ag496
ag1147
ag699
ag777
ag773
ag817
ag827
ag847
ag1397
ag911
ag929
ag931
ag935
ag953
ag955
ag969
ag983
ag1053
ag1313
ag1097
ag1155
ag1167
ag1173
ag1239
ag1187
ag1189
ag1223
ag1185
ag1241
ag1285
ag1299
ag1329
ag310
ag851
ag555
ag1401
ag943
ag1431
ag1447
ag949
ag1469
ag1515
asg105
(lp1631
g38
ag222
ag224
ag228
ag254
ag278
ag328
ag376
ag392
ag398
ag432
ag436
ag494
ag512
ag1149
ag591
ag613
ag635
ag1471
ag677
ag699
ag703
ag705
ag777
ag749
ag753
ag773
ag817
ag847
ag1397
ag929
ag955
ag787
ag991
ag1041
ag1053
ag1313
ag1293
ag522
ag547
ag1169
ag1239
ag1187
ag1189
ag1223
ag1139
ag1185
ag1275
ag1285
ag1299
ag1329
ag310
ag851
ag1359
ag555
ag412
ag1401
ag1447
ag949
ag1453
ag1515
asg30
(lp1632
g2
ag183
ag246
ag252
ag254
ag266
ag290
ag308
ag316
ag328
ag370
ag382
ag392
ag432
ag438
ag575
ag1149
ag1163
ag685
ag703
ag705
ag1011
ag777
ag739
ag773
ag801
ag845
ag847
ag913
ag927
ag929
ag787
ag985
ag991
ag993
ag1003
ag1005
ag1021
ag1041
ag1053
ag1057
ag158
ag1093
ag522
ag1165
ag717
ag1239
ag1223
ag1185
ag1255
ag1299
ag1351
ag555
ag412
ag1401
ag1447
ag1461
ag1519
asg7
(lp1633
g2
ag38
ag183
ag246
ag252
ag254
ag266
ag290
ag308
ag316
ag328
ag370
ag392
ag428
ag432
ag436
ag494
ag512
ag1115
ag573
ag575
ag1149
ag591
ag613
ag677
ag685
ag703
ag705
ag711
ag1011
ag777
ag745
ag749
ag773
ag801
ag817
ag845
ag847
ag1413
ag913
ag927
ag929
ag955
ag787
ag985
ag991
ag993
ag1003
ag1005
ag1021
ag1041
ag1053
ag1313
ag1057
ag158
ag1093
ag1293
ag522
ag1165
ag1169
ag717
ag1239
ag1187
ag1189
ag1223
ag1231
ag1139
ag1185
ag1255
ag1275
ag1299
ag1329
ag1333
ag851
ag555
ag412
ag1401
ag1447
ag949
ag1461
ag1515
ag1519
asg80
(lp1634
g38
ag183
ag252
ag254
ag266
ag290
ag308
ag316
ag328
ag370
ag392
ag428
ag432
ag1149
ag703
ag705
ag777
ag749
ag773
ag801
ag847
ag913
ag927
ag929
ag955
ag787
ag991
ag993
ag1005
ag1041
ag1093
ag522
ag717
ag1239
ag1223
ag1139
ag1185
ag1255
ag1299
ag1329
ag555
ag412
ag1401
ag1447
ag1515
ag1519
asg53
(lp1635
g38
ag228
ag250
ag252
ag254
ag266
ag278
ag290
ag308
ag316
ag328
ag376
ag392
ag398
ag406
ag414
ag428
ag432
ag436
ag494
ag1115
ag1149
ag591
ag613
ag635
ag1471
ag677
ag699
ag703
ag705
ag777
ag749
ag753
ag773
ag801
ag817
ag837
ag847
ag1397
ag913
ag927
ag929
ag955
ag787
ag985
ag991
ag993
ag1005
ag1041
ag1053
ag1313
ag158
ag1093
ag522
ag1169
ag1239
ag1189
ag1223
ag1139
ag1185
ag1255
ag1275
ag1299
ag1329
ag1333
ag851
ag1359
ag555
ag412
ag1401
ag943
ag1447
ag949
ag1515
ag1519
asg27
(lp1636
g2
ag183
ag246
ag252
ag254
ag266
ag290
ag308
ag316
ag328
ag370
ag382
ag392
ag432
ag438
ag512
ag575
ag1149
ag1471
ag647
ag685
ag703
ag705
ag777
ag739
ag773
ag801
ag845
ag847
ag1413
ag913
ag927
ag929
ag955
ag787
ag993
ag1003
ag1005
ag1021
ag1041
ag1057
ag158
ag1093
ag522
ag717
ag1239
ag1187
ag1189
ag1223
ag1231
ag1139
ag1185
ag1255
ag1299
ag1333
ag555
ag412
ag1401
ag1447
ag1461
ag1515
ag1519
asg150
(lp1637
g38
ag222
ag224
ag228
ag254
ag278
ag328
ag899
ag356
ag376
ag392
ag424
ag432
ag436
ag549
ag494
ag591
ag635
ag1471
ag1147
ag699
ag703
ag711
ag777
ag753
ag773
ag817
ag827
ag837
ag847
ag1397
ag863
ag911
ag929
ag931
ag935
ag955
ag967
ag1053
ag1313
ag547
ag1155
ag1167
ag1173
ag1239
ag1187
ag1189
ag1223
ag1185
ag1241
ag1285
ag1299
ag1329
ag310
ag851
ag1359
ag555
ag1401
ag943
ag1431
ag1447
ag949
ag1469
ag1515
asg145
(lp1638
g38
ag183
ag190
ag222
ag224
ag228
ag252
ag254
ag266
ag290
ag316
ag328
ag370
ag376
ag392
ag398
ag428
ag432
ag436
ag549
ag494
ag512
ag1115
ag575
ag1149
ag591
ag613
ag1471
ag677
ag699
ag703
ag705
ag711
ag777
ag749
ag739
ag773
ag801
ag817
ag827
ag847
ag1397
ag1413
ag927
ag929
ag931
ag955
ag787
ag967
ag983
ag991
ag1021
ag1041
ag1053
ag1313
ag1057
ag158
ag1293
ag522
ag1155
ag1167
ag1169
ag717
ag1239
ag1187
ag1189
ag1223
ag1139
ag1185
ag1255
ag1275
ag1285
ag1295
ag1299
ag1329
ag310
ag851
ag555
ag412
ag1401
ag943
ag1447
ag949
ag1515
ag1519
asg66
(lp1639
g38
ag222
ag224
ag228
ag252
ag254
ag266
ag278
ag308
ag316
ag328
ag376
ag392
ag398
ag414
ag428
ag430
ag432
ag436
ag494
ag512
ag1149
ag591
ag613
ag635
ag1471
ag677
ag699
ag703
ag705
ag733
ag777
ag749
ag753
ag773
ag799
ag817
ag847
ag929
ag955
ag787
ag985
ag991
ag993
ag1041
ag1053
ag1313
ag1093
ag522
ag1169
ag1239
ag1187
ag416
ag1189
ag1223
ag1139
ag1185
ag1255
ag1263
ag1275
ag1285
ag1299
ag1329
ag1333
ag310
ag851
ag1359
ag555
ag412
ag1401
ag1447
ag949
ag1453
ag1515
ag1519
asg67
(lp1640
g38
ag183
ag228
ag252
ag254
ag266
ag290
ag308
ag316
ag328
ag376
ag392
ag428
ag432
ag494
ag1149
ag613
ag635
ag703
ag705
ag777
ag749
ag773
ag801
ag847
ag913
ag927
ag929
ag953
ag955
ag787
ag991
ag993
ag1003
ag1005
ag1041
ag1093
ag522
ag717
ag1239
ag1187
ag1189
ag1223
ag1139
ag1185
ag1255
ag1299
ag1329
ag555
ag412
ag1401
ag1447
ag1515
ag1519
asg137
(lp1641
g38
ag183
ag222
ag228
ag252
ag254
ag266
ag290
ag308
ag316
ag328
ag376
ag392
ag398
ag406
ag428
ag432
ag436
ag494
ag1115
ag575
ag1149
ag591
ag635
ag677
ag699
ag703
ag705
ag1011
ag777
ag749
ag739
ag773
ag801
ag827
ag847
ag913
ag927
ag929
ag955
ag787
ag983
ag985
ag991
ag993
ag1003
ag1005
ag1041
ag1053
ag1313
ag1057
ag158
ag1093
ag1293
ag522
ag1169
ag717
ag1239
ag1189
ag1223
ag1139
ag1185
ag1255
ag1275
ag1285
ag1299
ag1329
ag851
ag555
ag412
ag1401
ag1447
ag949
ag1515
ag1519
asg147
(lp1642
g38
ag183
ag190
ag224
ag228
ag246
ag252
ag254
ag266
ag290
ag308
ag316
ag376
ag392
ag398
ag428
ag432
ag436
ag494
ag1149
ag591
ag1471
ag699
ag703
ag705
ag777
ag749
ag739
ag773
ag801
ag827
ag845
ag847
ag927
ag929
ag955
ag787
ag985
ag991
ag993
ag1041
ag1053
ag1313
ag522
ag1169
ag717
ag1239
ag1189
ag1223
ag1139
ag1185
ag1255
ag1275
ag1285
ag1299
ag1329
ag851
ag555
ag412
ag1401
ag1447
ag949
ag1515
ag1519
asg148
(lp1643
g38
ag222
ag224
ag228
ag254
ag278
ag328
ag376
ag392
ag424
ag432
ag436
ag549
ag494
ag512
ag591
ag613
ag635
ag1471
ag1147
ag699
ag703
ag711
ag777
ag773
ag817
ag827
ag837
ag847
ag1397
ag911
ag929
ag931
ag953
ag955
ag983
ag991
ag1041
ag1053
ag1313
ag1293
ag547
ag1155
ag1167
ag1169
ag1173
ag1239
ag1187
ag1189
ag1223
ag1185
ag1275
ag1285
ag1295
ag1299
ag1329
ag310
ag851
ag1359
ag555
ag1401
ag943
ag1431
ag1447
ag949
ag1453
ag1469
ag1515
ag1519
asg138
(lp1644
g38
ag222
ag224
ag228
ag254
ag278
ag328
ag376
ag392
ag398
ag432
ag436
ag494
ag512
ag1149
ag591
ag613
ag635
ag1471
ag677
ag699
ag703
ag777
ag773
ag801
ag817
ag827
ag847
ag1397
ag929
ag931
ag955
ag787
ag983
ag991
ag1041
ag1053
ag1313
ag1293
ag522
ag547
ag1169
ag1173
ag1239
ag1187
ag1189
ag1223
ag1139
ag1185
ag1275
ag1285
ag1299
ag1329
ag310
ag851
ag1359
ag555
ag412
ag1401
ag1431
ag1447
ag949
ag1453
ag1469
ag1515
asg17
(lp1645
g2
ag38
ag222
ag224
ag228
ag254
ag278
ag290
ag316
ag328
ag376
ag392
ag398
ag424
ag428
ag430
ag432
ag436
ag494
ag512
ag573
ag1149
ag591
ag613
ag635
ag1471
ag677
ag699
ag703
ag705
ag711
ag733
ag777
ag749
ag753
ag773
ag801
ag817
ag827
ag847
ag1397
ag913
ag929
ag931
ag935
ag955
ag787
ag991
ag993
ag1041
ag1053
ag1313
ag1293
ag522
ag1155
ag1169
ag717
ag1239
ag1187
ag1189
ag1223
ag1139
ag1185
ag1255
ag1275
ag1285
ag1299
ag1329
ag310
ag851
ag1359
ag555
ag412
ag1401
ag1431
ag1447
ag949
ag1469
ag1515
ag1519
asg86
(lp1646
g38
ag222
ag224
ag228
ag254
ag278
ag899
ag376
ag392
ag424
ag432
ag436
ag549
ag490
ag591
ag1471
ag1147
ag699
ag777
ag773
ag817
ag827
ag837
ag847
ag1397
ag911
ag929
ag931
ag935
ag955
ag1053
ag1313
ag547
ag1155
ag1167
ag1173
ag1239
ag1187
ag1189
ag1223
ag1185
ag1241
ag1285
ag1299
ag1329
ag310
ag851
ag555
ag943
ag1431
ag1447
ag949
ag1469
ag1515
asg20
(lp1647
g2
ag183
ag246
ag252
ag254
ag266
ag290
ag308
ag316
ag328
ag356
ag370
ag376
ag392
ag428
ag430
ag432
ag436
ag448
ag494
ag512
ag573
ag1149
ag591
ag613
ag1471
ag685
ag699
ag703
ag705
ag733
ag777
ag745
ag749
ag753
ag773
ag801
ag847
ag1413
ag913
ag927
ag929
ag955
ag787
ag985
ag991
ag993
ag1003
ag1005
ag1021
ag1041
ag1053
ag1313
ag1057
ag158
ag1093
ag1293
ag522
ag1165
ag1169
ag717
ag1239
ag1187
ag1189
ag1223
ag1231
ag1139
ag1185
ag1255
ag1263
ag1275
ag1285
ag1299
ag1329
ag1333
ag851
ag1449
ag1359
ag555
ag412
ag1401
ag1447
ag949
ag1461
ag1515
ag1519
asg110
(lp1648
g38
ag222
ag224
ag228
ag254
ag266
ag278
ag328
ag356
ag376
ag392
ag398
ag414
ag430
ag432
ag436
ag494
ag512
ag1149
ag591
ag613
ag631
ag635
ag1471
ag677
ag699
ag703
ag705
ag777
ag749
ag753
ag773
ag799
ag817
ag827
ag847
ag1397
ag929
ag931
ag955
ag787
ag991
ag993
ag1041
ag1053
ag1313
ag1293
ag522
ag1169
ag1239
ag1187
ag1189
ag1223
ag1139
ag1185
ag1255
ag1263
ag1275
ag1285
ag1299
ag1329
ag1333
ag310
ag851
ag1359
ag555
ag412
ag1401
ag943
ag1447
ag949
ag1453
ag1469
ag1515
ag1519
asg65
(lp1649
g38
ag183
ag252
ag254
ag266
ag290
ag308
ag316
ag328
ag370
ag392
ag406
ag428
ag432
ag494
ag1149
ag703
ag705
ag1011
ag777
ag749
ag739
ag773
ag817
ag847
ag913
ag927
ag929
ag955
ag787
ag985
ag991
ag993
ag1003
ag1005
ag1041
ag1313
ag158
ag1093
ag522
ag1165
ag717
ag1239
ag1189
ag1223
ag1139
ag1185
ag1255
ag1275
ag1299
ag1329
ag851
ag555
ag412
ag1401
ag1447
ag949
ag1515
ag1519
asg124
(lp1650
g38
ag190
ag222
ag224
ag228
ag278
ag392
ag398
ag424
ag432
ag549
ag591
ag1471
ag677
ag699
ag711
ag777
ag739
ag773
ag817
ag827
ag911
ag931
ag967
ag983
ag1053
ag1313
ag1155
ag1167
ag1169
ag1173
ag1239
ag1187
ag1223
ag1185
ag1275
ag1285
ag1295
ag1299
ag1329
ag310
ag851
ag1359
ag1401
ag943
ag1447
ag949
ag1469
asg167
(lp1651
g183
ag246
ag252
ag254
ag266
ag290
ag308
ag316
ag328
ag370
ag376
ag382
ag392
ag432
ag438
ag575
ag1149
ag1163
ag685
ag703
ag705
ag1011
ag777
ag739
ag773
ag801
ag845
ag847
ag913
ag927
ag929
ag787
ag991
ag993
ag1005
ag1021
ag1041
ag1057
ag158
ag1093
ag522
ag717
ag1239
ag1223
ag1185
ag1255
ag1299
ag555
ag412
ag1401
ag1447
ag1519
asg42
(lp1652
g38
ag222
ag224
ag228
ag252
ag254
ag266
ag278
ag328
ag376
ag392
ag398
ag414
ag424
ag428
ag432
ag436
ag494
ag512
ag1149
ag591
ag613
ag635
ag1471
ag677
ag699
ag703
ag705
ag733
ag777
ag749
ag753
ag773
ag799
ag817
ag847
ag1397
ag929
ag955
ag787
ag985
ag991
ag993
ag1005
ag1041
ag1053
ag1313
ag158
ag1093
ag1293
ag522
ag1169
ag717
ag1239
ag1187
ag1189
ag1223
ag1139
ag1185
ag1255
ag1275
ag1285
ag1299
ag1329
ag851
ag1359
ag555
ag412
ag1401
ag1431
ag1447
ag949
ag1515
asg4
(lp1653
g2
ag38
ag183
ag190
ag222
ag224
ag228
ag246
ag252
ag254
ag266
ag290
ag308
ag316
ag328
ag370
ag376
ag392
ag398
ag428
ag432
ag436
ag494
ag512
ag1115
ag573
ag575
ag1149
ag591
ag613
ag1471
ag677
ag685
ag699
ag703
ag705
ag711
ag1011
ag777
ag749
ag739
ag773
ag801
ag817
ag827
ag845
ag847
ag1397
ag1413
ag913
ag927
ag929
ag955
ag787
ag985
ag991
ag993
ag1003
ag1005
ag1021
ag1041
ag1053
ag1313
ag1057
ag158
ag1093
ag522
ag1169
ag717
ag1239
ag1187
ag1189
ag1223
ag1139
ag1185
ag1255
ag1275
ag1285
ag1295
ag1299
ag1329
ag851
ag555
ag412
ag1401
ag1447
ag949
ag1515
ag1519
asg64
(lp1654
g38
ag222
ag224
ag228
ag254
ag278
ag290
ag316
ag328
ag376
ag392
ag398
ag424
ag428
ag430
ag432
ag436
ag549
ag494
ag512
ag573
ag1149
ag591
ag613
ag635
ag1471
ag677
ag699
ag703
ag705
ag711
ag733
ag777
ag749
ag739
ag773
ag801
ag817
ag827
ag847
ag1397
ag911
ag929
ag931
ag935
ag955
ag787
ag991
ag1041
ag1053
ag1313
ag1293
ag522
ag1165
ag1167
ag1169
ag1239
ag1187
ag1189
ag1223
ag1139
ag1185
ag1255
ag1275
ag1285
ag1295
ag1299
ag1329
ag310
ag851
ag555
ag412
ag1401
ag1431
ag1447
ag949
ag1453
ag1469
ag1515
ag1519
asg50
(lp1655
g38
ag224
ag228
ag250
ag252
ag254
ag266
ag278
ag290
ag308
ag316
ag328
ag376
ag392
ag398
ag406
ag428
ag432
ag436
ag494
ag1149
ag591
ag613
ag1471
ag677
ag699
ag703
ag705
ag777
ag749
ag773
ag801
ag817
ag827
ag847
ag913
ag927
ag929
ag955
ag787
ag985
ag991
ag993
ag1005
ag1041
ag1053
ag1313
ag158
ag1093
ag1293
ag522
ag1169
ag1239
ag1189
ag1223
ag1139
ag1185
ag1255
ag1275
ag1299
ag1329
ag851
ag555
ag412
ag1401
ag943
ag1447
ag949
ag1515
ag1519
asg43
(lp1656
g38
ag228
ag250
ag254
ag266
ag290
ag308
ag316
ag328
ag376
ag392
ag398
ag428
ag432
ag436
ag494
ag1149
ag591
ag677
ag699
ag703
ag705
ag733
ag777
ag745
ag749
ag773
ag801
ag817
ag837
ag847
ag1397
ag1413
ag927
ag929
ag953
ag955
ag787
ag991
ag1005
ag1021
ag1041
ag1313
ag1293
ag522
ag1169
ag1239
ag1189
ag1223
ag1139
ag1185
ag1255
ag1263
ag1275
ag1285
ag1299
ag1329
ag851
ag555
ag412
ag1401
ag1447
ag949
ag1515
ag1519
asg19
(lp1657
g2
ag38
ag183
ag228
ag252
ag254
ag266
ag278
ag290
ag308
ag316
ag328
ag376
ag392
ag398
ag406
ag428
ag432
ag436
ag494
ag1149
ag591
ag613
ag635
ag1471
ag677
ag699
ag703
ag705
ag711
ag733
ag777
ag749
ag773
ag827
ag847
ag927
ag929
ag955
ag787
ag983
ag985
ag991
ag993
ag1005
ag1041
ag1053
ag1313
ag158
ag1093
ag1293
ag522
ag1169
ag1239
ag1189
ag1223
ag1139
ag1185
ag1255
ag1275
ag1285
ag1295
ag1299
ag1329
ag310
ag851
ag555
ag412
ag1401
ag1447
ag949
ag1515
ag1519
asg12
(lp1658
g2
ag183
ag246
ag252
ag254
ag266
ag290
ag308
ag316
ag328
ag356
ag370
ag376
ag392
ag428
ag432
ag436
ag438
ag494
ag512
ag1115
ag575
ag1149
ag591
ag647
ag685
ag703
ag705
ag1011
ag777
ag749
ag739
ag773
ag801
ag845
ag847
ag1413
ag913
ag927
ag929
ag787
ag991
ag993
ag1003
ag1005
ag1021
ag1041
ag1053
ag1313
ag1057
ag158
ag1093
ag522
ag1165
ag1169
ag717
ag1239
ag1189
ag1223
ag1139
ag1185
ag1255
ag1299
ag1333
ag555
ag412
ag1401
ag1447
ag1461
ag1515
ag1519
asg28
(lp1659
g2
ag38
ag183
ag246
ag252
ag254
ag266
ag290
ag308
ag316
ag392
ag398
ag406
ag428
ag432
ag438
ag573
ag1149
ag1471
ag1163
ag703
ag705
ag1011
ag777
ag749
ag773
ag801
ag845
ag847
ag913
ag927
ag929
ag955
ag787
ag983
ag985
ag991
ag993
ag1003
ag1005
ag1041
ag1053
ag1057
ag1093
ag522
ag717
ag1239
ag1223
ag1139
ag1185
ag1255
ag1299
ag1329
ag1351
ag555
ag412
ag1401
ag1447
ag1461
ag1515
ag1519
asg93
(lp1660
g38
ag190
ag222
ag224
ag228
ag254
ag278
ag316
ag376
ag392
ag398
ag424
ag432
ag549
ag494
ag512
ag591
ag613
ag1471
ag677
ag699
ag705
ag711
ag777
ag739
ag773
ag817
ag827
ag911
ag931
ag991
ag1053
ag1313
ag1155
ag1167
ag1169
ag1173
ag1239
ag1187
ag1223
ag1185
ag1275
ag1285
ag1295
ag1299
ag1329
ag310
ag851
ag1401
ag943
ag1447
ag949
ag1469
asg120
(lp1661
g38
ag190
ag222
ag224
ag228
ag1335
ag254
ag278
ag304
ag376
ag392
ag424
ag432
ag436
ag549
ag494
ag591
ag611
ag635
ag1471
ag1147
ag699
ag703
ag711
ag733
ag777
ag749
ag773
ag817
ag827
ag847
ag1397
ag863
ag911
ag929
ag931
ag935
ag955
ag967
ag983
ag1053
ag1313
ag547
ag1155
ag1167
ag1169
ag1173
ag1239
ag1187
ag1189
ag1223
ag1139
ag1185
ag1241
ag1275
ag1285
ag1295
ag1299
ag1329
ag310
ag851
ag555
ag1401
ag1431
ag1447
ag949
ag1469
ag1515
asg104
(lp1662
g38
ag190
ag222
ag224
ag228
ag254
ag278
ag392
ag424
ag432
ag436
ag549
ag490
ag494
ag591
ag613
ag1471
ag677
ag699
ag711
ag777
ag773
ag817
ag827
ag911
ag931
ag983
ag1053
ag1313
ag1155
ag1167
ag1169
ag1173
ag1239
ag1187
ag1223
ag1185
ag1241
ag1275
ag1285
ag1295
ag1299
ag1329
ag310
ag851
ag1401
ag943
ag1431
ag1447
ag949
ag1469
ag1515
asg22
(lp1663
g2
ag38
ag183
ag252
ag254
ag266
ag290
ag308
ag316
ag328
ag392
ag428
ag432
ag494
ag575
ag1149
ag591
ag613
ag635
ag703
ag705
ag777
ag745
ag749
ag773
ag801
ag847
ag913
ag927
ag929
ag955
ag787
ag991
ag993
ag1005
ag1041
ag1313
ag158
ag1093
ag522
ag1169
ag717
ag1239
ag1189
ag1223
ag1139
ag1185
ag1255
ag1275
ag1299
ag1329
ag851
ag555
ag412
ag1401
ag1447
ag949
ag1515
ag1519
asg151
(lp1664
g38
ag222
ag224
ag228
ag254
ag278
ag290
ag316
ag376
ag392
ag398
ag432
ag436
ag494
ag512
ag591
ag613
ag631
ag635
ag1471
ag677
ag699
ag703
ag705
ag711
ag733
ag777
ag745
ag749
ag739
ag773
ag817
ag827
ag847
ag1397
ag927
ag929
ag931
ag955
ag787
ag985
ag991
ag1053
ag1313
ag1293
ag522
ag547
ag1155
ag1167
ag1169
ag1239
ag1187
ag1189
ag1223
ag1139
ag1185
ag1255
ag1275
ag1285
ag1295
ag1299
ag1329
ag310
ag851
ag555
ag412
ag1401
ag1447
ag949
ag1469
ag1515
ag1519
asg131
(lp1665
g38
ag183
ag222
ag224
ag228
ag250
ag252
ag254
ag266
ag278
ag290
ag308
ag316
ag328
ag370
ag376
ag392
ag398
ag414
ag428
ag432
ag436
ag494
ag1115
ag1149
ag591
ag613
ag635
ag1471
ag677
ag685
ag699
ag703
ag705
ag733
ag777
ag749
ag753
ag739
ag773
ag799
ag801
ag817
ag847
ag1397
ag1413
ag913
ag927
ag929
ag955
ag787
ag985
ag991
ag993
ag1003
ag1005
ag1041
ag1053
ag1313
ag1057
ag158
ag1093
ag522
ag1169
ag717
ag1239
ag1187
ag1189
ag1223
ag1139
ag1185
ag1255
ag1275
ag1285
ag1299
ag1329
ag1333
ag851
ag555
ag412
ag1401
ag1447
ag949
ag1515
ag1519
asg170
(lp1666
g183
ag246
ag252
ag254
ag266
ag290
ag308
ag316
ag328
ag356
ag370
ag376
ag392
ag428
ag432
ag436
ag512
ag1115
ag573
ag1149
ag613
ag1471
ag685
ag699
ag703
ag705
ag1011
ag777
ag745
ag749
ag753
ag773
ag847
ag262
ag1413
ag913
ag927
ag929
ag955
ag787
ag991
ag993
ag1005
ag1021
ag1041
ag1053
ag1313
ag1057
ag158
ag1093
ag1293
ag522
ag1165
ag1169
ag717
ag1239
ag1187
ag1223
ag1231
ag1139
ag1185
ag1255
ag1263
ag1299
ag1329
ag1333
ag851
ag555
ag412
ag1401
ag1447
ag1461
ag1515
ag1519
asg133
(lp1667
g38
ag190
ag222
ag224
ag228
ag254
ag278
ag290
ag376
ag392
ag398
ag424
ag428
ag432
ag436
ag549
ag494
ag512
ag591
ag613
ag635
ag1471
ag677
ag699
ag703
ag711
ag777
ag749
ag739
ag773
ag801
ag817
ag827
ag847
ag911
ag929
ag931
ag955
ag983
ag991
ag1053
ag1313
ag1293
ag1167
ag1169
ag1173
ag1239
ag1187
ag1189
ag1223
ag1139
ag1185
ag1255
ag1275
ag1285
ag1295
ag1299
ag1329
ag310
ag851
ag1401
ag943
ag1447
ag949
ag1469
ag1515
asg175
(lp1668
g183
ag252
ag254
ag266
ag290
ag308
ag316
ag328
ag370
ag392
ag398
ag428
ag432
ag438
ag494
ag1115
ag573
ag575
ag1149
ag1163
ag677
ag703
ag705
ag1011
ag777
ag745
ag749
ag773
ag801
ag847
ag1413
ag913
ag927
ag929
ag955
ag787
ag985
ag991
ag993
ag1005
ag1021
ag1041
ag158
ag1093
ag522
ag717
ag1239
ag1223
ag1139
ag1185
ag1255
ag1299
ag1329
ag555
ag412
ag1401
ag1447
ag1515
ag1519
asg152
(lp1669
g38
ag183
ag252
ag254
ag266
ag290
ag308
ag316
ag328
ag356
ag370
ag392
ag398
ag428
ag432
ag438
ag494
ag1115
ag575
ag1149
ag591
ag613
ag1471
ag677
ag703
ag705
ag711
ag733
ag777
ag745
ag749
ag739
ag773
ag801
ag817
ag827
ag847
ag1413
ag913
ag927
ag929
ag955
ag787
ag991
ag993
ag1003
ag1005
ag1021
ag1041
ag1053
ag1313
ag1057
ag158
ag1093
ag1293
ag522
ag1169
ag717
ag1239
ag1189
ag1223
ag1231
ag1139
ag1185
ag1255
ag1263
ag1275
ag1285
ag1299
ag1329
ag1333
ag851
ag555
ag412
ag1401
ag1447
ag949
ag1515
ag1519
asg11
(lp1670
g2
ag38
ag183
ag228
ag246
ag252
ag254
ag266
ag290
ag308
ag316
ag328
ag370
ag392
ag428
ag432
ag436
ag512
ag1115
ag573
ag575
ag1149
ag613
ag1471
ag647
ag677
ag685
ag703
ag705
ag711
ag1011
ag777
ag745
ag749
ag773
ag801
ag845
ag847
ag913
ag927
ag929
ag955
ag787
ag983
ag991
ag993
ag1003
ag1005
ag1021
ag1041
ag1053
ag1313
ag1057
ag158
ag1093
ag1293
ag522
ag1165
ag1169
ag717
ag1239
ag1187
ag1189
ag1223
ag1231
ag1139
ag1185
ag1255
ag1299
ag1329
ag851
ag555
ag412
ag1401
ag1447
ag1461
ag1515
ag1519
asg71
(lp1671
g38
ag190
ag222
ag224
ag228
ag254
ag278
ag316
ag370
ag376
ag392
ag398
ag432
ag436
ag549
ag494
ag512
ag1149
ag591
ag613
ag635
ag1471
ag677
ag1147
ag699
ag703
ag705
ag711
ag777
ag749
ag739
ag773
ag817
ag827
ag847
ag1397
ag929
ag931
ag935
ag955
ag787
ag991
ag1041
ag1053
ag1313
ag1293
ag522
ag1167
ag1169
ag1239
ag1187
ag1189
ag1223
ag1139
ag1185
ag1255
ag1275
ag1285
ag1295
ag1299
ag1329
ag310
ag851
ag555
ag412
ag1401
ag943
ag1447
ag949
ag1469
ag1515
ag1519
asg119
(lp1672
g38
ag222
ag224
ag228
ag254
ag278
ag376
ag392
ag424
ag432
ag436
ag549
ag494
ag591
ag635
ag1471
ag1147
ag699
ag703
ag711
ag777
ag773
ag817
ag827
ag847
ag1397
ag863
ag911
ag929
ag931
ag935
ag955
ag787
ag1053
ag1313
ag547
ag1155
ag1167
ag1169
ag1173
ag1239
ag1187
ag1189
ag1223
ag1139
ag1185
ag1241
ag1275
ag1285
ag1299
ag1329
ag1333
ag310
ag851
ag1359
ag555
ag1401
ag1431
ag1447
ag949
ag1469
ag1515
asg5
(lp1673
g2
ag183
ag222
ag246
ag252
ag254
ag266
ag290
ag308
ag316
ag328
ag392
ag428
ag432
ag494
ag512
ag1115
ag573
ag575
ag1149
ag613
ag703
ag705
ag711
ag777
ag749
ag773
ag847
ag913
ag927
ag929
ag955
ag787
ag991
ag993
ag1005
ag1021
ag1041
ag1053
ag1313
ag1057
ag158
ag1093
ag522
ag1169
ag717
ag1239
ag1187
ag1189
ag1223
ag1231
ag1139
ag1185
ag1255
ag1263
ag1285
ag1299
ag1329
ag851
ag555
ag412
ag1401
ag1447
ag1515
ag1519
asg114
(lp1674
g38
ag222
ag224
ag228
ag254
ag266
ag278
ag290
ag316
ag328
ag376
ag392
ag398
ag428
ag430
ag432
ag436
ag494
ag512
ag573
ag1149
ag591
ag613
ag631
ag635
ag1471
ag677
ag699
ag703
ag705
ag711
ag733
ag777
ag745
ag749
ag739
ag773
ag817
ag827
ag847
ag1397
ag927
ag929
ag931
ag955
ag787
ag985
ag991
ag993
ag1005
ag1041
ag1053
ag1313
ag158
ag1093
ag1293
ag522
ag1169
ag1239
ag1187
ag1189
ag1223
ag1139
ag1185
ag1255
ag1275
ag1285
ag1299
ag1329
ag310
ag851
ag1359
ag555
ag412
ag1401
ag1447
ag949
ag1453
ag1469
ag1515
ag1519
asg109
(lp1675
g38
ag183
ag190
ag222
ag224
ag228
ag252
ag254
ag266
ag290
ag316
ag370
ag376
ag392
ag398
ag428
ag432
ag436
ag494
ag512
ag1115
ag1149
ag591
ag613
ag1471
ag1163
ag677
ag699
ag703
ag705
ag711
ag777
ag749
ag753
ag739
ag773
ag817
ag827
ag847
ag1397
ag927
ag929
ag935
ag955
ag787
ag985
ag991
ag993
ag1021
ag1041
ag1053
ag1313
ag1057
ag1293
ag522
ag1167
ag1169
ag717
ag1239
ag1187
ag1189
ag1223
ag1139
ag1185
ag1255
ag1275
ag1285
ag1295
ag1299
ag1329
ag851
ag555
ag412
ag1401
ag1447
ag949
ag1461
ag1515
ag1519
asg13
(lp1676
g2
ag38
ag183
ag222
ag224
ag228
ag236
ag250
ag252
ag254
ag266
ag278
ag290
ag308
ag328
ag376
ag392
ag398
ag406
ag414
ag428
ag430
ag432
ag436
ag494
ag512
ag1115
ag1149
ag591
ag613
ag635
ag1471
ag677
ag699
ag703
ag705
ag1011
ag733
ag777
ag749
ag753
ag773
ag799
ag801
ag817
ag847
ag929
ag955
ag787
ag985
ag991
ag993
ag1003
ag1005
ag1041
ag1053
ag1313
ag1057
ag158
ag1093
ag1293
ag522
ag1165
ag1169
ag717
ag1239
ag1187
ag416
ag1189
ag1223
ag1139
ag1185
ag1255
ag1263
ag1275
ag1285
ag1299
ag1329
ag1333
ag851
ag1359
ag555
ag412
ag1401
ag1447
ag949
ag1515
ag1519
asg45
(lp1677
g38
ag183
ag228
ag252
ag254
ag266
ag290
ag308
ag316
ag328
ag392
ag398
ag406
ag428
ag432
ag494
ag1149
ag591
ag613
ag703
ag705
ag733
ag777
ag749
ag773
ag847
ag927
ag929
ag953
ag955
ag787
ag985
ag991
ag1005
ag1041
ag1313
ag1057
ag158
ag1093
ag1293
ag522
ag717
ag1239
ag1189
ag1223
ag1139
ag1185
ag1255
ag1263
ag1275
ag1299
ag1329
ag851
ag555
ag412
ag1401
ag1447
ag1515
ag1519
asg126
(lp1678
g38
ag183
ag228
ag252
ag254
ag266
ag290
ag308
ag316
ag328
ag356
ag392
ag428
ag432
ag494
ag1149
ag591
ag699
ag703
ag705
ag1011
ag733
ag777
ag749
ag753
ag773
ag847
ag913
ag927
ag929
ag955
ag787
ag985
ag991
ag993
ag1003
ag1005
ag1041
ag1057
ag1093
ag522
ag717
ag1239
ag1189
ag1223
ag1139
ag1185
ag1255
ag1263
ag1275
ag1299
ag1329
ag555
ag412
ag1401
ag1447
ag1515
ag1519
asg165
(lp1679
g183
ag246
ag252
ag254
ag266
ag290
ag308
ag316
ag328
ag356
ag392
ag428
ag432
ag494
ag573
ag1149
ag613
ag1471
ag677
ag685
ag699
ag703
ag705
ag777
ag745
ag749
ag753
ag773
ag817
ag847
ag1413
ag913
ag927
ag929
ag955
ag787
ag991
ag993
ag1005
ag1021
ag1041
ag1053
ag1313
ag1057
ag158
ag1093
ag1293
ag522
ag1165
ag1169
ag717
ag1239
ag1187
ag1189
ag1223
ag1231
ag1139
ag1185
ag1255
ag1263
ag1299
ag1329
ag1333
ag851
ag555
ag1375
ag412
ag1401
ag1447
ag1461
ag1515
ag1519
asg63
(lp1680
g38
ag183
ag228
ag252
ag254
ag266
ag278
ag290
ag308
ag316
ag328
ag376
ag392
ag398
ag428
ag432
ag436
ag494
ag512
ag1149
ag591
ag613
ag1471
ag677
ag699
ag703
ag705
ag711
ag1011
ag733
ag777
ag749
ag739
ag773
ag817
ag827
ag847
ag913
ag927
ag929
ag955
ag787
ag983
ag985
ag991
ag993
ag1003
ag1005
ag1041
ag1053
ag1313
ag158
ag1093
ag1293
ag522
ag1169
ag717
ag1239
ag1187
ag1189
ag1223
ag1139
ag1185
ag1255
ag1275
ag1299
ag1329
ag851
ag1359
ag555
ag412
ag1401
ag1447
ag949
ag1515
ag1519
asg88
(lp1681
g38
ag222
ag224
ag228
ag254
ag278
ag328
ag376
ag392
ag424
ag432
ag436
ag494
ag512
ag591
ag613
ag635
ag1471
ag677
ag699
ag703
ag711
ag777
ag753
ag773
ag801
ag817
ag827
ag837
ag847
ag1397
ag929
ag931
ag955
ag985
ag991
ag1041
ag1053
ag1313
ag1293
ag522
ag547
ag1169
ag1239
ag1187
ag1189
ag1223
ag1139
ag1185
ag1255
ag1275
ag1285
ag1299
ag1329
ag310
ag851
ag1359
ag555
ag412
ag1401
ag1431
ag1447
ag949
ag1453
ag1469
ag1515
asg70
(lp1682
g38
ag224
ag228
ag236
ag250
ag254
ag266
ag308
ag328
ag376
ag392
ag398
ag406
ag414
ag428
ag430
ag432
ag436
ag494
ag512
ag1149
ag591
ag613
ag1471
ag677
ag699
ag703
ag705
ag733
ag777
ag749
ag773
ag809
ag817
ag837
ag847
ag1397
ag1413
ag929
ag953
ag955
ag787
ag985
ag991
ag1005
ag1041
ag1053
ag1313
ag1093
ag1293
ag522
ag547
ag1165
ag1169
ag1239
ag1187
ag1189
ag1223
ag1139
ag1185
ag1255
ag1263
ag1275
ag1285
ag1299
ag1329
ag1333
ag851
ag1359
ag555
ag412
ag1401
ag1447
ag949
ag1515
ag1519
asg9
(lp1683
g2
ag183
ag222
ag246
ag252
ag254
ag266
ag290
ag308
ag316
ag328
ag356
ag370
ag376
ag392
ag406
ag428
ag432
ag436
ag438
ag448
ag494
ag512
ag1115
ag573
ag1149
ag1471
ag677
ag685
ag699
ag703
ag705
ag711
ag1011
ag733
ag777
ag745
ag749
ag753
ag773
ag801
ag809
ag817
ag845
ag847
ag1413
ag913
ag927
ag929
ag953
ag955
ag787
ag983
ag991
ag993
ag1003
ag1005
ag1021
ag1041
ag1053
ag1313
ag1057
ag158
ag1093
ag1293
ag522
ag1165
ag717
ag1239
ag1187
ag1223
ag1231
ag1139
ag1185
ag1255
ag1263
ag1275
ag1299
ag1329
ag1333
ag851
ag1449
ag555
ag1375
ag412
ag1401
ag1447
ag1461
ag1515
ag1519
asg10
(lp1684
g2
ag38
ag183
ag222
ag228
ag252
ag254
ag266
ag290
ag308
ag316
ag328
ag370
ag376
ag392
ag398
ag428
ag432
ag436
ag494
ag512
ag1115
ag573
ag575
ag1149
ag591
ag1471
ag677
ag685
ag703
ag705
ag711
ag1011
ag777
ag749
ag739
ag773
ag801
ag847
ag1413
ag913
ag927
ag929
ag955
ag787
ag983
ag991
ag993
ag1003
ag1005
ag1021
ag1041
ag1053
ag1313
ag1057
ag158
ag1093
ag522
ag1169
ag717
ag1239
ag1189
ag1223
ag1139
ag1185
ag1255
ag1275
ag1285
ag1299
ag1329
ag1333
ag851
ag555
ag412
ag1401
ag1447
ag949
ag1515
ag1519
asg16
(lp1685
g2
ag38
ag222
ag224
ag228
ag254
ag266
ag278
ag308
ag316
ag328
ag376
ag392
ag398
ag428
ag432
ag436
ag549
ag494
ag512
ag1115
ag1149
ag591
ag613
ag635
ag1471
ag677
ag699
ag703
ag705
ag711
ag733
ag777
ag749
ag773
ag799
ag817
ag827
ag847
ag1397
ag929
ag931
ag955
ag787
ag991
ag993
ag1041
ag1053
ag1313
ag1093
ag1293
ag522
ag1169
ag717
ag1239
ag1187
ag416
ag1189
ag1223
ag1139
ag1185
ag1255
ag1275
ag1285
ag1299
ag1329
ag851
ag1359
ag555
ag412
ag1401
ag1447
ag949
ag1515
ag1519
asg166
(lp1686
g183
ag246
ag252
ag254
ag266
ag290
ag308
ag316
ag328
ag370
ag382
ag392
ag432
ag438
ag573
ag575
ag1149
ag647
ag1163
ag685
ag691
ag703
ag705
ag777
ag739
ag773
ag801
ag845
ag847
ag913
ag927
ag929
ag955
ag787
ag993
ag1003
ag1005
ag1021
ag1041
ag1057
ag158
ag1093
ag522
ag1165
ag717
ag1239
ag1223
ag1185
ag1255
ag1299
ag1449
ag555
ag412
ag1401
ag1447
ag1519
asg81
(lp1687
g38
ag183
ag252
ag254
ag266
ag290
ag308
ag316
ag328
ag356
ag392
ag428
ag430
ag432
ag494
ag1115
ag575
ag1149
ag613
ag699
ag703
ag705
ag777
ag749
ag773
ag847
ag913
ag927
ag929
ag955
ag787
ag993
ag1005
ag1021
ag1041
ag1053
ag1057
ag158
ag1093
ag522
ag1169
ag717
ag1239
ag1187
ag1189
ag1223
ag1139
ag1185
ag1255
ag1275
ag1299
ag1329
ag555
ag412
ag1401
ag1447
ag949
ag1515
ag1519
asg153
(lp1688
g38
ag222
ag224
ag228
ag250
ag252
ag254
ag266
ag278
ag308
ag328
ag376
ag392
ag398
ag406
ag414
ag428
ag430
ag432
ag436
ag494
ag512
ag1149
ag591
ag613
ag635
ag1471
ag677
ag699
ag703
ag705
ag733
ag777
ag749
ag753
ag773
ag799
ag817
ag827
ag847
ag1397
ag929
ag955
ag787
ag985
ag991
ag993
ag1005
ag1041
ag1053
ag1313
ag158
ag1093
ag1293
ag522
ag1169
ag717
ag1239
ag1187
ag1189
ag1223
ag1139
ag1185
ag1255
ag1275
ag1285
ag1295
ag1299
ag1329
ag851
ag1359
ag555
ag412
ag1401
ag1447
ag949
ag1515
ag1519
asg47
(lp1689
g38
ag183
ag228
ag252
ag254
ag266
ag290
ag308
ag316
ag328
ag356
ag392
ag398
ag406
ag428
ag432
ag494
ag1149
ag613
ag703
ag705
ag777
ag749
ag773
ag801
ag847
ag1413
ag927
ag929
ag953
ag955
ag787
ag985
ag991
ag1005
ag1041
ag1313
ag1057
ag522
ag1169
ag1239
ag1189
ag1223
ag1139
ag1185
ag1255
ag1263
ag1275
ag1285
ag1299
ag1329
ag851
ag555
ag1375
ag412
ag1401
ag1447
ag949
ag1515
ag1519
asg24
(lp1690
g2
ag38
ag222
ag224
ag228
ag252
ag254
ag266
ag278
ag290
ag308
ag316
ag328
ag376
ag392
ag398
ag428
ag430
ag432
ag436
ag494
ag512
ag1115
ag1149
ag591
ag613
ag631
ag635
ag1471
ag677
ag699
ag703
ag705
ag711
ag733
ag777
ag749
ag753
ag739
ag773
ag817
ag827
ag847
ag262
ag927
ag929
ag931
ag955
ag787
ag983
ag985
ag991
ag993
ag1005
ag1041
ag1053
ag1313
ag1057
ag158
ag1093
ag1293
ag522
ag1169
ag717
ag1239
ag1187
ag1189
ag1223
ag1139
ag1185
ag1255
ag1275
ag1285
ag1299
ag1329
ag310
ag851
ag1359
ag555
ag412
ag1401
ag1447
ag949
ag1515
ag1519
asg185
(lp1691
g183
ag252
ag254
ag266
ag290
ag308
ag316
ag328
ag392
ag406
ag428
ag432
ag494
ag1149
ag591
ag613
ag635
ag1471
ag677
ag685
ag699
ag703
ag705
ag777
ag745
ag749
ag773
ag801
ag817
ag847
ag1413
ag913
ag927
ag929
ag955
ag787
ag985
ag991
ag1005
ag1021
ag1041
ag1313
ag1057
ag1293
ag522
ag1169
ag717
ag1239
ag1187
ag1189
ag1223
ag1139
ag1185
ag1255
ag1263
ag1275
ag1285
ag1299
ag1329
ag851
ag555
ag412
ag1401
ag1447
ag949
ag1515
ag1519
asg142
(lp1692
g38
ag183
ag252
ag254
ag266
ag290
ag308
ag316
ag328
ag376
ag392
ag406
ag428
ag432
ag494
ag1149
ag591
ag613
ag677
ag703
ag705
ag733
ag777
ag745
ag749
ag753
ag773
ag801
ag847
ag927
ag929
ag953
ag955
ag787
ag985
ag991
ag1041
ag1313
ag1057
ag1093
ag1293
ag522
ag1169
ag717
ag1239
ag1189
ag1223
ag1139
ag1185
ag1255
ag1263
ag1285
ag1299
ag1329
ag851
ag555
ag412
ag1401
ag1447
ag1515
ag1519
asg90
(lp1693
g38
ag222
ag224
ag228
ag1335
ag254
ag278
ag290
ag376
ag392
ag424
ag428
ag432
ag436
ag549
ag494
ag512
ag591
ag635
ag1471
ag1147
ag699
ag703
ag711
ag733
ag777
ag745
ag773
ag817
ag827
ag847
ag1397
ag262
ag911
ag929
ag931
ag953
ag955
ag983
ag1041
ag1053
ag1313
ag1293
ag522
ag547
ag1155
ag1167
ag1169
ag1173
ag1239
ag1187
ag1189
ag1223
ag1139
ag1185
ag1275
ag1285
ag1295
ag1299
ag1329
ag310
ag851
ag555
ag1401
ag1431
ag1447
ag949
ag1453
ag1469
ag1515
ag1519
asg140
(lp1694
g38
ag183
ag228
ag250
ag252
ag254
ag266
ag290
ag308
ag316
ag328
ag356
ag392
ag406
ag428
ag432
ag494
ag1149
ag591
ag677
ag699
ag703
ag705
ag777
ag749
ag773
ag801
ag837
ag847
ag927
ag929
ag953
ag955
ag787
ag985
ag991
ag1041
ag1313
ag1057
ag1293
ag522
ag1169
ag1239
ag1189
ag1223
ag1139
ag1185
ag1255
ag1263
ag1275
ag1299
ag1329
ag851
ag555
ag412
ag1401
ag1447
ag949
ag1515
ag1519
asg26
(lp1695
g2
ag38
ag222
ag224
ag228
ag252
ag254
ag266
ag278
ag290
ag316
ag328
ag356
ag376
ag392
ag398
ag428
ag430
ag432
ag436
ag494
ag512
ag1149
ag591
ag613
ag635
ag1471
ag677
ag699
ag703
ag705
ag711
ag733
ag777
ag749
ag753
ag739
ag773
ag801
ag817
ag827
ag847
ag1397
ag262
ag927
ag929
ag931
ag955
ag787
ag985
ag991
ag993
ag1005
ag1041
ag1053
ag1313
ag1293
ag522
ag1165
ag1169
ag1239
ag1187
ag1189
ag1223
ag1139
ag1185
ag1255
ag1275
ag1285
ag1299
ag1329
ag310
ag851
ag1359
ag555
ag412
ag1401
ag943
ag1447
ag949
ag1469
ag1515
ag1519
asg58
(lp1696
g38
ag183
ag190
ag222
ag224
ag228
ag254
ag266
ag290
ag316
ag370
ag376
ag392
ag398
ag428
ag432
ag436
ag494
ag512
ag1115
ag1149
ag591
ag613
ag1471
ag677
ag699
ag703
ag705
ag711
ag777
ag749
ag753
ag739
ag773
ag817
ag827
ag847
ag1397
ag927
ag929
ag931
ag955
ag787
ag985
ag991
ag993
ag1041
ag1053
ag1313
ag1057
ag1293
ag522
ag1167
ag1169
ag717
ag1239
ag1187
ag1189
ag1223
ag1139
ag1185
ag1255
ag1275
ag1285
ag1295
ag1299
ag1329
ag310
ag851
ag555
ag412
ag1401
ag1447
ag949
ag1515
ag1519
asg127
(lp1697
g38
ag190
ag222
ag224
ag228
ag278
ag376
ag392
ag398
ag424
ag432
ag549
ag591
ag1471
ag677
ag699
ag711
ag777
ag739
ag773
ag817
ag827
ag911
ag931
ag967
ag1053
ag1313
ag1155
ag1167
ag1169
ag1173
ag1239
ag1187
ag1223
ag1185
ag1275
ag1285
ag1295
ag1299
ag1329
ag310
ag851
ag1401
ag943
ag1447
ag949
ag1469
asg84
(lp1698
g38
ag190
ag222
ag224
ag228
ag254
ag278
ag899
ag376
ag392
ag424
ag432
ag436
ag549
ag490
ag494
ag591
ag635
ag1471
ag1147
ag699
ag703
ag711
ag777
ag773
ag817
ag827
ag847
ag1397
ag863
ag911
ag929
ag931
ag935
ag955
ag983
ag1053
ag1313
ag547
ag1155
ag1167
ag1169
ag1173
ag1239
ag1187
ag1189
ag1223
ag1185
ag1241
ag1275
ag1285
ag1295
ag1299
ag1329
ag310
ag851
ag555
ag1401
ag943
ag1431
ag1447
ag949
ag1469
ag1515
asg94
(lp1699
g38
ag222
ag224
ag228
ag250
ag254
ag266
ag290
ag308
ag328
ag356
ag376
ag392
ag414
ag428
ag430
ag432
ag436
ag494
ag512
ag1149
ag591
ag613
ag635
ag1471
ag677
ag699
ag703
ag705
ag733
ag777
ag745
ag749
ag753
ag773
ag809
ag817
ag837
ag847
ag1397
ag262
ag1413
ag927
ag929
ag955
ag787
ag985
ag991
ag999
ag1005
ag1027
ag1041
ag1053
ag1313
ag1293
ag522
ag1169
ag1239
ag1187
ag1189
ag1223
ag1139
ag1185
ag1255
ag1263
ag1275
ag1285
ag1299
ag1329
ag1333
ag310
ag851
ag1359
ag555
ag412
ag1401
ag1447
ag949
ag1453
ag1503
ag1515
ag1519
asg18
(lp1700
g2
ag38
ag183
ag246
ag252
ag254
ag266
ag290
ag308
ag316
ag328
ag370
ag376
ag392
ag428
ag432
ag438
ag573
ag575
ag1149
ag647
ag1163
ag685
ag703
ag705
ag1011
ag777
ag749
ag739
ag773
ag801
ag845
ag847
ag913
ag927
ag929
ag955
ag787
ag991
ag993
ag1003
ag1005
ag1021
ag1041
ag1053
ag1057
ag158
ag1093
ag522
ag1165
ag717
ag1239
ag1223
ag1139
ag1185
ag1255
ag1299
ag555
ag412
ag1401
ag1447
ag1461
ag1515
ag1519
asa.