(lp0
(dp1
S'junicomm'
p2
(lp3
sS'popuariz'
p4
(lp5
VBrewster (043)
p6
aVPresidio (377)
p7
asS'amyrbals'
p8
(lp9
sS'kalmlati'
p10
(lp11
sS'zantflav'
p12
(lp13
sS'cornrugo'
p14
(lp15
sS'persborb'
p16
(lp17
VNacogdoches (347)
p18
aVSabine (403)
p19
aVShelby (419)
p20
aVSan Patricio (409)
p21
aVOrange (361)
p22
aVNewton (351)
p23
aVTyler (457)
p24
aVJasper (241)
p25
aVLiberty (291)
p26
aVSan Jacinto (407)
p27
aVNueces (355)
p28
aVSan Augustine (405)
p29
aVAngelina (005)
p30
aVHardin (199)
p31
aVPolk (373)
p32
aVBrazoria (039)
p33
asS'pithguad'
p34
(lp35
sS'alnurugo'
p36
(lp37
sS'chamthyo'
p38
(lp39
sS'bursfaga'
p40
(lp41
sS'fraxtexe'
p42
(lp43
VMcLennan (309)
p44
aVBandera (019)
p45
aVReal (385)
p46
aVCoryell (099)
p47
aVHamilton (193)
p48
aVLive Oak (297)
p49
aVPalo Pinto (363)
p50
aVBell (027)
p51
aVKerr (265)
p52
aVKendall (259)
p53
aVBosque (035)
p54
aVWilliamson (491)
p55
aVHays (209)
p56
aVTravis (453)
p57
asS'tremmicr'
p58
(lp59
sS'quergamb'
p60
(lp61
VJeff Davis (243)
p62
asS'pinuglab'
p63
(lp64
sS'juniscop'
p65
(lp66
VLubbock (303)
p67
aVRandall (381)
p68
asS'cratsali'
p69
(lp70
sS'juniashe'
p71
(lp72
VHood (221)
p73
aVKimble (267)
p74
ag44
ag45
aVSterling (431)
p75
ag51
aVBurnet (053)
p76
aVSan Saba (411)
p77
aVTerrell (443)
p78
aVMason (319)
p79
aVDallas (113)
p80
ag54
ag55
ag56
aVLampasas (281)
p81
ag57
aVComal (091)
p82
asS'alnusinu'
p83
(lp84
sS'fraxcusp'
p85
(lp86
sS'planaqua'
p87
(lp88
VBrazos (041)
p89
ag22
aVVan Zandt (467)
p90
aVHenderson (213)
p91
aVJefferson (245)
p92
aVWashington (477)
p93
aVBurleson (051)
p94
aVMarion (315)
p95
aVChambers (071)
p96
asS'cuprbake'
p97
(lp98
sS'stewmala'
p99
(lp100
g23
asS'illiparv'
p101
(lp102
sS'ilexkrug'
p103
(lp104
sS'morurubr'
p105
(lp106
VFrio (163)
p107
aVZavala (507)
p108
ag73
ag74
ag18
aVRockwall (397)
p109
aVFayette (149)
p110
aVJohnson (251)
p111
aVTitus (449)
p112
ag44
aVComanche (093)
p113
aVWise (497)
p114
ag45
aVKarnes (255)
p115
aVDelta (119)
p116
aVMedina (325)
p117
aVSomervell (425)
p118
aVMontague (337)
p119
aVBexar (029)
p120
ag46
ag19
aVUvalde (463)
p121
aVWilson (493)
p122
aVBlanco (031)
p123
aVFranklin (159)
p124
aVCamp (063)
p125
aVHopkins (223)
p126
aVLee (287)
p127
ag47
ag20
aVWood (499)
p128
ag48
aVGillespie (171)
p129
aVRains (379)
p130
aVEdwards (137)
p131
ag49
aVCherokee (073)
p132
ag50
aVMorris (343)
p133
aVParker (367)
p134
aVMontgomery (339)
p135
ag51
aVLavaca (285)
p136
aVCass (067)
p137
ag52
ag53
ag21
aVClay (077)
p138
aVRusk (401)
p139
ag89
aVBastrop (021)
p140
aVMatagorda (321)
p141
ag22
aVMadison (313)
p142
ag76
aVMilam (331)
p143
ag23
aVCollin (085)
p144
aVFreestone (161)
p145
aVAustin (015)
p146
aVPanola (365)
p147
aVLeon (289)
p148
aVHunt (231)
p149
aVColorado (089)
p150
aVDeWitt (123)
p151
aVGuadalupe (187)
p152
aVLlano (299)
p153
ag77
ag79
aVErath (143)
p154
aVFalls (145)
p155
aVJack (237)
p156
aVKinney (271)
p157
ag24
aVGregg (183)
p158
aVHarrison (203)
p159
aVAtascosa (013)
p160
aVLamar (277)
p161
ag90
ag91
aVBee (025)
p162
ag25
ag26
ag92
aVGrimes (185)
p163
ag27
aVBowie (037)
p164
ag28
aVHarris (201)
p165
ag29
aVCooke (097)
p166
ag30
ag80
aVHouston (225)
p167
aVWaller (473)
p168
ag93
ag31
aVWalker (471)
p169
aVSmith (423)
p170
aVVictoria (469)
p171
aVJackson (239)
p172
aVGalveston (167)
p173
aVFort Bend (157)
p174
ag32
ag54
aVCalhoun (057)
p175
ag94
aVRed River (387)
p176
aVGrayson (181)
p177
aVRobertson (395)
p178
ag55
ag56
ag81
aVTarrant (439)
p179
aVGonzales (177)
p180
aVKaufman (257)
p181
aVWharton (481)
p182
ag57
aVHill (217)
p183
aVRefugio (391)
p184
ag82
aVEllis (139)
p185
aVMills (333)
p186
aVDenton (121)
p187
ag95
aVUpshur (459)
p188
aVGoliad (175)
p189
aVTrinity (455)
p190
aVLimestone (293)
p191
aVNavarro (349)
p192
aVCaldwell (055)
p193
aVFannin (147)
p194
ag96
ag33
asS'vibuprun'
p195
(lp196
sS'rhuslaur'
p197
(lp198
sS'rhuscopa'
p199
(lp200
g18
ag109
ag110
ag112
ag116
ag19
aVTaylor (441)
p201
ag124
ag125
ag126
ag127
ag20
ag128
ag130
ag132
ag133
ag135
ag51
ag137
ag139
ag89
ag140
ag142
ag143
ag23
ag144
ag147
ag148
ag149
ag24
ag158
ag159
ag161
ag90
ag91
ag25
ag26
ag163
ag27
ag164
ag165
ag29
ag30
ag80
ag167
ag168
ag93
ag31
ag169
ag170
ag32
ag94
ag176
ag177
ag178
ag180
ag181
ag95
ag188
ag190
ag194
asS'ximeamer'
p202
(lp203
sS'nyssogec'
p204
(lp205
sS'pinuocci'
p206
(lp207
sS'prunalle'
p208
(lp209
sS'castozar'
p210
(lp211
sS'exotpani'
p212
(lp213
sS'querwisl'
p214
(lp215
sS'aesccali'
p216
(lp217
sS'thujocci'
p218
(lp219
sS'juglmajo'
p220
(lp221
g62
ag45
ag46
ag201
ag52
ag81
asS'gledtria'
p222
(lp223
g18
ag109
ag110
ag111
ag112
ag44
ag114
ag115
ag116
ag119
ag120
ag19
ag122
ag124
ag125
ag126
ag127
aVArmstrong (011)
p224
ag20
ag128
ag130
ag132
ag133
ag135
ag136
ag137
ag139
ag89
ag140
ag22
ag142
ag143
aVTom Green (451)
p225
ag23
ag144
ag145
ag146
ag147
ag148
ag149
ag150
ag151
ag152
ag155
ag24
ag158
ag159
ag161
ag90
ag91
ag25
ag26
ag163
ag27
ag164
ag29
ag166
ag30
ag80
ag167
ag168
ag93
ag31
ag169
ag170
ag32
ag94
ag176
ag177
ag178
ag55
ag179
ag180
ag181
ag183
ag185
ag187
ag95
ag188
ag190
ag191
ag192
ag193
ag194
ag96
asS'prunpens'
p226
(lp227
sS'hamavirg'
p228
(lp229
g45
ag23
ag24
ag25
ag31
ag32
asS'salilasi'
p230
(lp231
sS'catabign'
p232
(lp233
sS'cercocci'
p234
(lp235
sS'carylaci'
p236
(lp237
sS'salilaso'
p238
(lp239
sS'prunvirg'
p240
(lp241
VHansford (195)
p242
aVRoberts (393)
p243
aVPotter (375)
p244
ag68
asS'erytherb'
p245
(lp246
g110
ag135
ag136
ag137
ag140
ag141
ag22
ag23
ag146
ag147
ag150
ag151
ag24
aVCameron (061)
p247
ag25
ag26
ag92
ag163
ag27
ag28
ag165
ag168
ag31
ag169
aVKenedy (261)
p248
ag171
ag172
ag173
ag174
ag32
ag175
ag180
ag182
ag184
ag193
ag96
ag33
aVWillacy (489)
p249
asS'zantclav'
p250
(lp251
g18
ag110
ag19
ag127
ag20
ag132
ag135
ag136
ag139
ag89
ag140
ag22
ag142
ag143
ag23
ag145
ag146
ag147
ag148
ag150
ag151
ag155
ag24
ag159
ag91
ag25
ag163
ag27
ag29
ag30
ag80
ag167
ag168
ag93
ag31
ag169
ag32
ag94
ag178
ag55
ag180
ag181
ag185
ag190
ag191
ag192
ag193
asS'magnpyra'
p252
(lp253
sS'sambmexi'
p254
(lp255
sS'fraxdipe'
p256
(lp257
sS'pinuvirg'
p258
(lp259
sS'prunlyon'
p260
(lp261
sS'pinuteoc'
p262
(lp263
sS'bursmicr'
p264
(lp265
sS'gledaqua'
p266
(lp267
g18
ag19
ag20
ag135
ag137
ag139
ag22
ag147
ag24
ag158
ag159
ag25
ag26
ag163
ag27
ag164
ag165
ag29
ag30
ag168
ag31
ag174
ag32
ag95
ag96
ag33
asS'ulmusero'
p268
(lp269
sS'fraxnigr'
p270
(lp271
sS'pinupatu'
p272
(lp273
sS'juniflac'
p274
(lp275
sS'queroblo'
p276
(lp277
sS'sambcall'
p278
(lp279
sS'erytflab'
p280
(lp281
sS'prunsubc'
p282
(lp283
sS'carypall'
p284
(lp285
sS'cratsucc'
p286
(lp287
sS'taxucana'
p288
(lp289
sS'diosvirg'
p290
(lp291
g18
ag109
ag110
ag112
ag116
ag19
ag124
ag125
ag126
ag20
ag128
ag130
ag132
ag133
ag135
ag137
ag139
ag89
ag22
ag142
ag76
ag23
ag144
ag145
ag147
ag148
ag149
ag24
ag158
ag159
ag161
ag90
ag91
ag25
ag26
ag92
ag163
ag27
ag164
ag29
ag30
ag80
ag167
ag31
ag169
ag170
ag32
ag94
ag176
ag177
ag178
ag181
ag183
ag95
ag188
ag190
ag194
asS'dodovisc'
p292
(lp293
sS'photarbu'
p294
(lp295
sS'poputrem'
p296
(lp297
sS'esenberl'
p298
(lp299
sS'pinucube'
p300
(lp301
sS'diostexa'
p302
(lp303
g107
ag108
ag74
aVStarr (427)
p304
aVMcMullen (311)
p305
ag45
ag115
ag117
ag120
ag46
ag121
ag122
aVHidalgo (215)
p306
ag123
aVMenard (327)
p307
ag127
aVBrooks (047)
p308
aVJim Hogg (247)
p309
ag129
ag131
ag49
aVDimmit (127)
p310
aVDuval (131)
p311
ag51
ag52
ag53
ag21
ag89
aVSutton (435)
p312
ag140
ag76
ag143
ag6
aVLa Salle (283)
p313
ag152
ag153
ag77
ag78
ag79
ag157
ag247
ag160
ag162
ag28
aVMcCulloch (307)
p314
aVJim Wells (249)
p315
aVWebb (479)
p316
ag248
aVBrown (049)
p317
ag94
ag55
ag56
aVMaverick (323)
p318
ag57
aVVal Verde (465)
p319
ag184
ag82
aVPecos (371)
p320
aVZapata (505)
p321
ag193
ag249
asS'abiegran'
p322
(lp323
sS'euonocci'
p324
(lp325
sS'rhustyph'
p326
(lp327
sS'vibuobov'
p328
(lp329
sS'rhusinte'
p330
(lp331
sS'torrcali'
p332
(lp333
sS'lagurace'
p334
(lp335
sS'guaiangu'
p336
(lp337
g107
ag108
ag304
ag117
ag120
ag121
ag306
ag308
ag309
ag310
ag311
ag313
ag78
ag157
ag247
ag316
ag248
ag318
ag319
ag320
ag321
ag249
asS'cordbois'
p338
(lp339
g304
ag306
ag247
ag321
asS'styrplat'
p340
(lp341
g45
ag120
ag123
ag53
ag152
ag56
ag57
ag82
asS'ilexmyrt'
p342
(lp343
sS'cataspec'
p344
(lp345
sS'amelalni'
p346
(lp347
sS'jacqkeye'
p348
(lp349
sS'salialax'
p350
(lp351
sS'guaisanc'
p352
(lp353
sS'popudelt'
p354
(lp355
VWichita (485)
p356
aVYoung (503)
p357
ag73
aVNolan (353)
p358
ag18
aVKing (269)
p359
aVBriscoe (045)
p360
ag109
ag110
ag111
ag242
ag112
ag44
aVDonley (129)
p361
aVHall (191)
p362
ag113
ag114
ag45
ag115
ag116
ag117
ag118
ag119
ag120
ag243
ag19
ag121
aVWheeler (483)
p363
ag122
ag123
aVFisher (151)
p364
aVJones (253)
p365
ag201
aVShackelford (417)
p366
aVStonewall (433)
p367
ag124
ag125
ag126
ag127
ag47
ag224
aVDickens (125)
p368
aVGray (179)
p369
aVKent (263)
p370
aVWilbarger (487)
p371
ag20
ag128
aVEastland (133)
p372
aVArcher (009)
p373
ag48
ag130
aVRunnels (399)
p374
aVSherman (421)
p375
aVHutchinson (233)
p376
ag132
ag50
ag133
aVMoore (341)
p377
aVChildress (075)
p378
aVCarson (065)
p379
ag134
ag135
ag51
aVCottle (101)
p380
ag136
ag137
aVBaylor (023)
p381
aVHemphill (211)
p382
ag53
ag138
ag139
aVFoard (155)
p383
ag89
ag140
aVCrosby (107)
p384
ag141
ag22
ag142
ag76
ag143
ag23
ag144
ag145
ag146
ag147
ag148
ag149
ag150
ag151
ag152
aVCollingsworth (087)
p385
ag154
ag155
ag156
ag24
aVHaskell (207)
p386
ag158
ag159
ag161
ag90
ag91
ag25
ag26
ag163
ag27
ag164
ag165
ag29
ag166
ag30
ag80
ag167
ag68
ag168
ag93
ag31
ag169
aVCallahan (059)
p387
aVHardeman (197)
p388
ag170
ag171
ag172
ag317
ag173
ag174
ag32
ag54
ag175
ag94
ag176
ag177
ag178
ag55
ag56
ag81
ag179
ag180
aVStephens (429)
p389
ag181
aVMotley (345)
p390
ag182
ag57
aVKnox (275)
p391
ag183
ag184
ag82
ag185
ag186
aVColeman (083)
p392
ag187
ag95
ag188
ag189
ag190
ag191
aVOchiltree (357)
p393
ag192
ag193
ag194
ag33
aVThrockmorton (447)
p394
aVLipscomb (295)
p395
asS'krugferr'
p396
(lp397
sS'saligeye'
p398
(lp399
sS'pinutorr'
p400
(lp401
sS'querariz'
p402
(lp403
sS'nemocoll'
p404
(lp405
sS'quermyrt'
p406
(lp407
sS'cornstol'
p408
(lp409
sS'querloba'
p410
(lp411
sS'prunilic'
p412
(lp413
sS'alnuserr'
p414
(lp415
g18
ag19
ag20
ag128
ag132
ag137
ag139
ag143
ag23
ag147
ag24
ag158
ag159
ag25
ag164
ag29
ag30
ag167
ag31
ag170
ag32
ag95
ag188
ag190
asS'piceenge'
p416
(lp417
sS'coccarge'
p418
(lp419
sS'piceglau'
p420
(lp421
sS'abieconc'
p422
(lp423
sS'tsugmert'
p424
(lp425
sS'maludive'
p426
(lp427
sS'celttenu'
p428
(lp429
g19
ag128
ag23
ag29
ag176
ag188
asS'queralba'
p430
(lp431
g18
ag19
ag20
ag132
ag135
ag137
ag139
ag22
ag23
ag147
ag24
ag158
ag159
ag25
ag26
ag27
ag164
ag29
ag30
ag167
ag31
ag169
ag32
ag95
ag188
ag190
ag96
asS'rhuskear'
p432
(lp433
sS'quermacd'
p434
(lp435
sS'querilic'
p436
(lp437
sS'celtlind'
p438
(lp439
sS'nyssaqua'
p440
(lp441
g19
ag22
ag23
ag24
ag25
ag26
ag92
ag31
asS'zantcori'
p442
(lp443
sS'ilexmont'
p444
(lp445
sS'ceregiga'
p446
(lp447
sS'annoglab'
p448
(lp449
sS'pinustrb'
p450
(lp451
sS'robipseu'
p452
(lp453
sS'salicaro'
p454
(lp455
g73
ag45
ag46
ag121
ag123
ag129
ag52
ag53
asS'morumicr'
p456
(lp457
g62
aVCoke (081)
p458
ag113
ag45
ag120
ag368
ag374
aVMitchell (335)
p459
ag383
ag312
ag384
ag225
ag154
ag68
ag317
ag56
ag390
ag82
ag320
ag392
asS'bourovat'
p460
(lp461
sS'cercbrev'
p462
(lp463
g62
asS'ilexopac'
p464
(lp465
g18
ag112
ag19
ag125
ag20
ag128
ag132
ag133
ag135
ag137
ag139
ag89
ag22
ag142
ag23
ag147
ag24
ag158
ag159
ag25
ag26
ag163
ag27
ag164
ag165
ag29
ag30
ag167
ag31
ag169
ag170
ag32
ag95
ag188
ag190
ag96
asS'saliscou'
p466
(lp467
sS'cornrace'
p468
(lp469
sS'euonatro'
p470
(lp471
g116
ag51
ag161
ag166
ag80
ag179
ag181
asS'ilexvert'
p472
(lp473
sS'pinunels'
p474
(lp475
sS'carytome'
p476
(lp477
g18
ag112
ag116
ag19
ag124
ag125
ag126
ag127
ag20
ag128
ag130
ag132
ag133
ag135
ag137
ag139
ag89
ag140
ag142
ag23
ag145
ag147
ag148
ag24
ag158
ag159
ag161
ag90
ag91
ag25
ag26
ag163
ag27
ag164
ag29
ag30
ag167
ag31
ag169
ag170
ag32
ag94
ag176
ag178
ag95
ag188
ag190
asS'abiebals'
p478
(lp479
sS'yuccrost'
p480
(lp481
sS'quershum'
p482
(lp483
g73
ag74
ag18
ag109
ag110
ag111
ag112
ag44
ag113
ag114
ag45
ag116
ag118
ag119
ag120
ag46
ag19
ag123
ag201
ag124
ag125
ag126
ag127
ag47
ag20
ag128
ag372
ag48
ag129
ag130
ag132
ag50
ag133
ag134
ag135
ag51
ag137
ag52
ag53
ag139
ag89
ag140
ag22
ag142
ag76
ag143
ag23
ag144
ag145
ag146
ag147
ag148
ag149
ag150
ag152
ag153
ag77
ag79
ag154
ag155
ag24
ag158
ag159
ag161
ag90
ag91
ag25
ag26
ag163
ag27
ag164
ag165
ag29
ag166
ag30
ag80
ag167
ag314
ag168
ag93
ag31
ag169
ag387
ag170
ag317
ag174
ag32
ag54
ag94
ag176
ag177
ag178
ag55
ag56
ag81
ag179
ag180
ag181
ag182
ag57
ag183
ag82
ag185
ag186
ag392
ag187
ag95
ag188
ag190
ag191
ag192
ag193
ag194
ag96
asS'juniocci'
p484
(lp485
sS'taxomucr'
p486
(lp487
sS'junihori'
p488
(lp489
sS'lyonferr'
p490
(lp491
sS'prunumbe'
p492
(lp493
g18
ag19
ag20
ag132
ag135
ag137
ag139
ag23
ag147
ag24
ag159
ag25
ag27
ag165
ag29
ag30
ag32
ag95
asS'cowamexi'
p494
(lp495
sS'aescsylv'
p496
(lp497
sS'schochry'
p498
(lp499
sS'myricali'
p500
(lp501
sS'querinca'
p502
(lp503
g112
ag124
ag128
ag145
ag146
ag148
ag178
ag181
ag191
asS'cratdoug'
p504
(lp505
sS'salisitc'
p506
(lp507
sS'magnfras'
p508
(lp509
sS'quergarr'
p510
(lp511
sS'lithdens'
p512
(lp513
sS'tsughete'
p514
(lp515
sS'maclpomi'
p516
(lp517
g109
ag110
ag112
ag44
ag116
ag123
ag124
ag126
ag127
ag128
ag130
ag133
ag136
ag53
ag89
ag140
ag142
ag143
ag144
ag145
ag146
ag148
ag149
ag150
ag152
ag155
ag161
ag90
ag91
ag163
ag164
ag80
ag168
ag93
ag94
ag176
ag177
ag178
ag55
ag56
ag180
ag181
ag57
ag82
ag185
ag191
ag192
ag193
ag194
asS'prunfrem'
p518
(lp519
sS'picesitc'
p520
(lp521
sS'rhamcaro'
p522
(lp523
g74
ag18
ag113
ag45
ag46
ag19
ag123
ag47
ag20
ag48
ag129
ag131
ag132
ag137
ag52
ag53
ag76
ag147
ag153
ag77
ag79
ag24
ag159
ag25
ag26
ag164
ag29
ag30
ag80
ag168
ag93
ag317
ag56
ag81
ag179
ag82
ag186
ag187
ag95
ag188
asS'exoscari'
p524
(lp525
sS'cupaglab'
p526
(lp527
sS'betuuber'
p528
(lp529
sS'quernigr'
p530
(lp531
g18
ag110
ag112
ag116
ag19
ag124
ag125
ag126
ag127
ag20
ag128
ag130
ag132
ag133
ag135
ag136
ag137
ag139
ag89
ag140
ag141
ag22
ag142
ag23
ag146
ag147
ag150
ag24
ag158
ag159
ag90
ag91
ag25
ag26
ag163
ag27
ag164
ag165
ag29
ag30
ag167
ag168
ag93
ag31
ag169
ag170
ag172
ag173
ag174
ag32
ag175
ag94
ag182
ag95
ag188
ag190
ag33
asS'sophaffi'
p532
(lp533
g109
ag111
ag44
ag114
ag45
ag118
ag120
ag46
ag122
ag123
ag47
ag48
ag129
aVSchleicher (413)
p534
ag52
ag53
ag76
ag144
ag153
ag80
ag54
ag177
ag56
ag81
ag179
ag57
ag183
ag82
ag185
ag186
ag187
ag194
asS'castdent'
p535
(lp536
sS'pinusero'
p537
(lp538
sS'ostrknow'
p539
(lp540
sS'corndrum'
p541
(lp542
g356
ag73
ag109
ag110
ag111
ag44
ag113
ag114
ag115
ag116
ag117
ag118
ag120
ag122
ag123
ag127
ag47
ag48
ag129
ag134
ag51
ag136
ag137
ag382
ag52
ag53
ag89
ag140
ag141
ag142
ag76
ag143
ag144
ag146
ag149
ag150
ag151
ag152
ag153
ag77
ag79
ag154
ag155
ag161
ag90
ag164
ag165
ag166
ag80
ag93
ag171
ag172
ag173
ag174
ag54
ag175
ag94
ag176
ag177
ag178
ag55
ag56
ag81
ag179
ag180
ag181
ag182
ag57
ag183
ag184
ag82
ag185
ag186
ag187
ag189
ag190
ag192
ag193
ag194
ag33
asS'ilexvomi'
p543
(lp544
g110
ag115
ag127
ag135
ag136
ag21
ag89
ag140
ag141
ag22
ag23
ag146
ag150
ag151
ag152
ag24
ag162
ag25
ag26
ag92
ag163
ag27
ag28
ag165
ag168
ag93
ag31
ag169
ag171
ag172
ag173
ag174
ag32
ag175
ag94
ag180
ag182
ag184
ag189
ag190
ag193
ag96
ag33
asS'pinuooca'
p545
(lp546
sS'ceanarbo'
p547
(lp548
sS'cithfrut'
p549
(lp550
sS'leucretu'
p551
(lp552
g74
ag62
ag46
ag121
ag131
ag312
ag78
ag319
aVCrockett (105)
p553
asS'staptrif'
p554
(lp555
sS'gordlasi'
p556
(lp557
sS'lyonflor'
p558
(lp559
sS'pinumont'
p560
(lp561
sS'salilaev'
p562
(lp563
sS'acersacc'
p564
(lp565
sS'cercbetu'
p566
(lp567
sS'pinumono'
p568
(lp569
sS'rhizmang'
p570
(lp571
VKleberg (273)
p572
aVAransas (007)
p573
asS'fraxprof'
p574
(lp575
sS'junipinc'
p576
(lp577
g73
aVDawson (115)
p578
ag358
aVHoward (227)
p579
ag359
ag360
ag62
ag458
ag361
ag362
aVAndrews (003)
p580
ag118
ag243
ag363
ag201
aVBorden (033)
p581
ag224
ag368
ag369
ag370
ag48
aVGarza (169)
p582
ag459
aVIrion (235)
p583
ag378
aVCulberson (109)
p584
ag379
ag380
ag244
ag382
ag225
aVScurry (415)
p585
ag78
ag385
ag68
ag314
ag388
ag81
ag390
ag319
ag186
asS'platwrig'
p586
(lp587
sS'betunana'
p588
(lp589
sS'cotiobov'
p590
(lp591
g45
ag53
asS'pinuatte'
p592
(lp593
sS'cuprariz'
p594
(lp595
sS'nolibige'
p596
(lp597
sS'castpumi'
p598
(lp599
g18
ag19
ag20
ag132
ag137
ag139
ag22
ag23
ag147
ag24
ag158
ag159
ag25
ag27
ag164
ag29
ag30
ag167
ag31
ag169
ag32
ag95
ag188
ag190
asS'magnvirg'
p600
(lp601
g18
ag19
ag20
ag135
ag22
ag23
ag24
ag25
ag26
ag27
ag29
ag30
ag31
ag32
ag190
asS'guapdisc'
p602
(lp603
sS'quergris'
p604
(lp605
g62
asS'fraxamer'
p606
(lp607
g18
ag112
ag116
ag19
ag124
ag125
ag126
ag20
ag128
ag130
ag132
ag133
ag135
ag137
ag139
ag89
ag142
ag23
ag146
ag147
ag148
ag150
ag24
ag158
ag159
ag161
ag90
ag91
ag25
ag26
ag163
ag27
ag164
ag29
ag30
ag80
ag167
ag168
ag93
ag31
ag169
ag170
ag32
ag94
ag176
ag181
ag95
ag188
ag190
ag194
asS'abieamab'
p608
(lp609
sS'gymilati'
p610
(lp611
sS'acercirc'
p612
(lp613
sS'abiemagn'
p614
(lp615
sS'cyrirace'
p616
(lp617
g23
ag24
ag25
ag31
ag32
ag190
asS'acergran'
p618
(lp619
g62
ag45
ag53
asS'pinugreg'
p620
(lp621
sS'mastfoet'
p622
(lp623
sS'salipeti'
p624
(lp625
sS'pinuresi'
p626
(lp627
sS'fraxlati'
p628
(lp629
sS'fraxberl'
p630
(lp631
g304
ag305
ag115
ag306
ag308
ag309
ag49
ag310
ag311
ag313
ag247
ag160
ag162
ag28
ag315
ag316
ag248
ag318
ag321
ag249
asS'pinubalf'
p632
(lp633
sS'ficucitr'
p634
(lp635
sS'abiebrac'
p636
(lp637
sS'pinuradi'
p638
(lp639
sS'myrcfrag'
p640
(lp641
sS'quervelu'
p642
(lp643
g18
ag112
ag19
ag124
ag125
ag20
ag132
ag133
ag135
ag137
ag139
ag142
ag23
ag147
ag24
ag158
ag159
ag25
ag26
ag163
ag27
ag164
ag165
ag29
ag30
ag167
ag168
ag31
ag169
ag170
ag32
ag176
ag95
ag188
ag190
asS'aescparv'
p644
(lp645
sS'pinucont'
p646
(lp647
sS'sabapalm'
p648
(lp649
sS'betuocci'
p650
(lp651
sS'larrdiva'
p652
(lp653
g108
ag62
aVReagan (383)
p654
aVWard (475)
p655
aVEctor (135)
p656
ag309
aVMidland (329)
p657
aVUpton (461)
p658
ag310
ag311
ag584
ag6
aVWinkler (495)
p659
aVReeves (389)
p660
aVHudspeth (229)
p661
ag78
aVCrane (103)
p662
ag157
aVEl Paso (141)
p663
ag316
aVLoving (301)
p664
ag318
ag319
ag320
ag321
ag7
ag553
asS'sapidrum'
p665
(lp666
g356
ag357
ag73
ag358
ag74
ag359
ag109
ag62
ag110
ag111
ag458
ag44
ag361
ag362
ag113
ag114
ag45
ag115
ag118
ag119
ag120
ag46
ag243
ag363
ag122
ag67
ag306
ag123
ag364
ag307
ag654
ag655
ag365
ag201
ag366
ag367
ag581
ag47
ag368
ag369
ag370
ag371
ag656
ag75
ag372
ag373
ag658
ag48
ag129
aVLamb (279)
p667
ag582
ag534
ag131
ag374
ag459
ag376
ag583
ag50
ag378
ag584
ag134
aVGlasscock (173)
p668
ag135
ag51
ag380
ag136
ag381
ag382
ag52
ag53
ag21
ag138
ag383
ag312
ag140
ag141
ag76
ag225
ag144
ag146
ag6
ag585
ag150
aVConcho (095)
p669
ag151
ag152
ag153
ag660
ag77
ag661
ag78
ag79
ag385
ag154
ag156
ag247
ag386
ag165
ag166
ag80
ag68
ag314
ag168
ag387
ag388
ag663
ag171
ag172
ag317
ag174
ag54
ag175
ag664
ag177
ag55
ag56
ag81
ag179
ag180
ag389
ag181
ag390
ag182
ag57
ag319
ag391
ag183
ag184
ag82
ag185
ag186
ag320
ag392
ag187
ag189
ag7
ag193
ag194
ag33
ag394
ag553
asS'pinuaris'
p670
(lp671
sS'rhampurs'
p672
(lp673
sS'artetrid'
p674
(lp675
sS'maluangu'
p676
(lp677
g135
asS'rhusglab'
p678
(lp679
g18
ag109
ag111
ag112
ag113
ag116
ag124
ag125
ag126
ag47
ag224
ag128
ag372
ag48
ag130
ag132
ag133
ag137
ag382
ag139
ag89
ag144
ag149
ag154
ag158
ag159
ag161
ag90
ag91
ag164
ag80
ag93
ag170
ag32
ag54
ag176
ag177
ag179
ag181
ag183
ag185
ag187
ag95
ag188
ag192
ag194
asS'nectcori'
p680
(lp681
sS'pinucari'
p682
(lp683
sS'eysepoly'
p684
(lp685
sS'heliparv'
p686
(lp687
g247
asS'eugeconf'
p688
(lp689
sS'illiflor'
p690
(lp691
sS'haleparv'
p692
(lp693
sS'juglmicr'
p694
(lp695
g62
ag121
ag131
ag312
ag319
asS'pteltrif'
p696
(lp697
g108
ag73
ag74
ag18
ag109
ag62
ag110
ag111
ag112
ag44
aVFloyd (153)
p698
ag45
ag116
ag118
ag46
ag243
ag19
ag121
ag123
ag124
ag125
ag126
ag127
ag20
ag128
ag129
ag130
ag131
ag132
ag133
ag135
ag51
ag244
ag136
ag137
ag382
ag52
ag53
ag139
ag89
ag140
ag142
ag76
ag143
ag23
ag144
ag145
ag146
ag147
ag148
ag149
ag150
ag151
ag154
ag155
ag157
ag24
ag158
ag159
ag161
ag90
ag91
ag25
ag26
ag163
ag27
ag164
ag165
ag29
ag30
ag80
ag167
ag168
ag93
ag31
ag169
ag170
ag171
ag173
ag32
ag54
ag94
ag176
ag177
ag178
ag55
ag56
ag179
ag180
ag318
ag181
ag57
ag319
ag183
ag82
ag185
ag95
ag188
ag190
ag191
ag192
ag193
ag194
asS'abiefras'
p699
(lp700
sS'acernegu'
p701
(lp702
g73
ag18
ag109
ag110
ag111
ag112
ag44
ag113
ag114
ag45
ag115
ag116
ag118
ag119
ag120
ag19
ag122
ag123
ag124
ag125
ag126
ag127
ag47
ag20
ag128
ag372
ag48
ag130
ag132
ag50
ag133
ag134
ag135
ag51
ag136
ag137
ag52
ag53
ag138
ag139
ag89
ag140
ag141
ag22
ag142
ag76
ag143
ag23
ag144
ag145
ag146
ag147
ag148
ag149
ag150
ag151
ag152
ag154
ag155
ag156
ag24
ag158
ag159
ag161
ag90
ag91
ag25
ag26
ag92
ag163
ag27
ag164
ag165
ag29
ag166
ag30
ag80
ag167
ag168
ag93
ag31
ag169
ag170
ag171
ag172
ag173
ag174
ag32
ag54
ag175
ag94
ag176
ag177
ag178
ag55
ag56
ag81
ag179
ag180
ag181
ag182
ag57
ag183
ag82
ag185
ag186
ag187
ag95
ag188
ag189
ag190
ag191
ag192
ag193
ag194
ag96
ag33
asS'pinudoug'
p703
(lp704
sS'yucccarn'
p705
(lp706
sS'cornnutt'
p707
(lp708
sS'fraxcaro'
p709
(lp710
g19
ag22
ag23
ag24
ag25
ag92
ag27
ag30
ag31
ag169
ag32
asS'crattrac'
p711
(lp712
g62
ag45
asS'prunnigr'
p713
(lp714
sS'fraxvelu'
p715
(lp716
g62
asS'caryflor'
p717
(lp718
sS'querlaur'
p719
(lp720
g22
ag23
ag24
ag25
ag26
ag27
ag28
ag31
ag169
ag32
ag175
asS'pisttexa'
p721
(lp722
sS'acerleuc'
p723
(lp724
g19
asS'eugeaxil'
p725
(lp726
sS'ilexcori'
p727
(lp728
g23
ag24
ag25
ag31
ag32
asS'thujplic'
p729
(lp730
sS'crateryt'
p731
(lp732
sS'pinuhart'
p733
(lp734
sS'arbumenz'
p735
(lp736
sS'metotoxi'
p737
(lp738
sS'alvaamor'
p739
(lp740
sS'pinusabi'
p741
(lp742
sS'prunamer'
p743
(lp744
sS'cornstri'
p745
(lp746
g18
ag137
ag22
ag23
ag159
ag92
ag164
ag31
ag95
ag188
asS'yuccscho'
p747
(lp748
sS'yuccaloi'
p749
(lp750
sS'vibutril'
p751
(lp752
sS'bumetena'
p753
(lp754
sS'fremmexi'
p755
(lp756
sS'salipyri'
p757
(lp758
sS'platrace'
p759
(lp760
sS'rhodmacr'
p761
(lp762
sS'eugerhom'
p763
(lp764
sS'lirituli'
p765
(lp766
sS'pinupalu'
p767
(lp768
g19
ag23
ag24
ag25
ag29
ag31
ag190
ag96
asS'ulmurubr'
p769
(lp770
g73
ag109
ag111
ag112
ag44
ag114
ag116
ag118
ag119
ag124
ag125
ag126
ag47
ag128
ag48
ag130
ag133
ag134
ag51
ag137
ag53
ag142
ag143
ag144
ag145
ag148
ag149
ag154
ag155
ag158
ag159
ag161
ag90
ag91
ag164
ag166
ag80
ag167
ag170
ag54
ag176
ag177
ag178
ag55
ag56
ag179
ag181
ag57
ag183
ag82
ag185
ag187
ag95
ag188
ag191
ag192
ag194
asS'tsugcana'
p771
(lp772
sS'maytphyl'
p773
(lp774
sS'coccuvif'
p775
(lp776
sS'toxivern'
p777
(lp778
g18
ag20
ag23
ag25
ag29
asS'caryilli'
p779
(lp780
g73
ag18
ag109
ag110
ag111
ag112
ag44
ag114
ag115
ag116
ag119
ag120
ag19
ag122
ag123
ag124
ag125
ag126
ag127
ag20
ag128
ag130
ag132
ag50
ag133
ag134
ag135
ag136
ag137
ag139
ag89
ag140
ag22
ag142
ag143
ag225
ag23
ag144
ag145
ag146
ag147
ag148
ag149
ag150
ag151
ag152
ag153
ag77
ag155
ag24
ag158
ag159
ag160
ag161
ag90
ag91
ag25
ag26
ag163
ag27
ag164
ag165
ag29
ag166
ag30
ag80
ag167
ag168
ag93
ag31
ag169
ag170
ag174
ag32
ag94
ag176
ag177
ag178
ag55
ag179
ag180
ag181
ag57
ag183
ag185
ag187
ag95
ag188
ag190
ag191
ag192
ag193
ag194
ag96
asS'tremlama'
p781
(lp782
sS'betualle'
p783
(lp784
sS'fraxanom'
p785
(lp786
sS'pithpall'
p787
(lp788
g304
ag306
ag308
ag309
ag49
ag311
ag247
ag28
ag315
ag316
ag248
ag321
ag249
asS'salimack'
p789
(lp790
sS'carymyri'
p791
(lp792
g116
ag92
ag27
ag164
ag29
asS'querchry'
p793
(lp794
sS'garrelli'
p795
(lp796
sS'franalat'
p797
(lp798
sS'malucoro'
p799
(lp800
sS'clusrose'
p801
(lp802
sS'robikels'
p803
(lp804
sS'betupopu'
p805
(lp806
sS'picebrew'
p807
(lp808
sS'thriradi'
p809
(lp810
sS'saliexig'
p811
(lp812
g356
ag360
aVCastro (069)
p813
ag62
ag242
ag361
ag362
ag698
aVSwisher (437)
p814
aVOldham (359)
p815
ag243
ag363
ag224
ag368
ag369
aVHartley (205)
p816
ag667
ag375
ag376
ag377
ag378
ag379
ag244
ag382
ag141
aVBailey (017)
p817
ag659
aVDallam (111)
p818
ag152
ag385
ag247
ag164
aVParmer (369)
p819
ag166
ag68
ag388
ag663
ag393
aVDeaf Smith (117)
p820
ag395
asS'abieproc'
p821
(lp822
sS'betulent'
p823
(lp824
sS'cercmicr'
p825
(lp826
sS'quermueh'
p827
(lp828
g74
ag109
ag112
ag44
ag45
ag116
ag46
ag123
ag307
ag124
ag126
ag47
ag128
ag129
ag130
ag51
ag52
ag53
ag76
ag144
ag145
ag149
ag153
ag77
ag79
ag155
ag161
ag90
ag91
ag164
ag166
ag80
ag314
ag54
ag176
ag177
ag55
ag56
ag81
ag181
ag57
ag183
ag185
ag191
ag192
ag194
asS'magngran'
p829
(lp830
g19
ag20
ag135
ag22
ag23
ag24
ag25
ag26
ag27
ag29
ag30
ag31
ag169
ag32
ag190
asS'aescpavi'
p831
(lp832
g18
ag110
ag112
ag45
ag120
ag46
ag19
ag121
ag124
ag125
ag126
ag20
ag128
ag132
ag133
ag135
ag136
ag137
ag52
ag53
ag139
ag140
ag23
ag146
ag147
ag150
ag151
ag152
ag24
ag158
ag159
ag25
ag163
ag27
ag164
ag29
ag30
ag168
ag93
ag31
ag170
ag172
ag174
ag32
ag56
ag180
ag182
ag57
ag82
ag95
ag188
ag193
asS'alnuoblo'
p833
(lp834
sS'pinuprin'
p835
(lp836
sS'carytexa'
p837
(lp838
g18
ag112
ag116
ag19
ag122
ag124
ag125
ag126
ag127
ag20
ag128
ag129
ag130
ag132
ag133
ag135
ag136
ag137
ag139
ag89
ag140
ag142
ag143
ag145
ag146
ag147
ag148
ag150
ag152
ag153
ag158
ag159
ag160
ag161
ag90
ag91
ag163
ag164
ag29
ag30
ag167
ag93
ag169
ag170
ag32
ag94
ag176
ag178
ag180
ag95
ag188
ag190
ag191
ag193
asS'pinuflex'
p839
(lp840
sS'prunmuns'
p841
(lp842
g138
ag144
ag175
ag177
ag81
ag57
ag194
asS'drypdive'
p843
(lp844
sS'castalni'
p845
(lp846
sS'cephocci'
p847
(lp848
g73
ag74
ag18
ag109
ag62
ag110
ag111
ag112
ag44
ag113
ag114
ag45
ag116
ag118
ag119
ag243
ag19
ag363
ag123
ag124
ag125
ag126
ag127
ag47
ag20
ag128
ag48
ag129
ag130
ag459
ag132
ag133
ag134
ag135
ag51
ag136
ag137
ag382
ag52
ag53
ag21
ag138
ag139
ag89
ag140
ag141
ag22
ag142
ag76
ag143
ag23
ag144
ag145
ag146
ag147
ag148
ag149
ag150
ag151
ag154
ag155
ag156
ag24
ag247
ag158
ag159
ag161
ag90
ag91
ag25
ag26
ag92
ag163
ag27
ag164
ag28
ag165
ag29
ag166
ag30
ag80
ag167
ag68
ag168
ag93
ag31
ag169
ag248
ag170
ag171
ag172
ag173
ag174
ag32
ag54
ag175
ag94
ag176
ag177
ag178
ag55
ag56
ag81
ag179
ag180
ag181
ag182
ag57
ag183
ag184
ag185
ag186
ag187
ag95
ag188
ag189
ag190
ag191
ag192
ag193
ag194
ag96
ag33
ag249
asS'ulmualat'
p849
(lp850
g18
ag109
ag110
ag112
ag116
ag19
ag124
ag125
ag126
ag127
ag20
ag128
ag130
ag132
ag133
ag135
ag137
ag139
ag89
ag140
ag22
ag142
ag23
ag144
ag145
ag147
ag148
ag149
ag152
ag24
ag158
ag159
ag161
ag90
ag91
ag25
ag26
ag163
ag27
ag164
ag29
ag30
ag80
ag167
ag93
ag31
ag169
ag170
ag32
ag94
ag176
ag177
ag178
ag180
ag181
ag187
ag95
ag188
ag190
ag193
ag194
ag96
asS'amelarbo'
p851
(lp852
sS'coluelli'
p853
(lp854
sS'burssima'
p855
(lp856
sS'yucctrec'
p857
(lp858
g107
ag108
ag304
ag305
ag306
ag308
ag309
ag49
ag310
ag311
ag21
ag313
ag247
ag160
ag162
ag28
ag315
ag316
ag248
ag175
ag318
ag184
ag321
ag249
asS'queragri'
p859
(lp860
sS'cornalte'
p861
(lp862
sS'pinuayac'
p863
(lp864
sS'alnutenu'
p865
(lp866
sS'querdunn'
p867
(lp868
sS'ungnspec'
p869
(lp870
g62
ag123
ag51
ag6
ag78
ag157
ag55
ag56
ag57
ag82
asS'picepung'
p871
(lp872
sS'pinupung'
p873
(lp874
sS'vibulent'
p875
(lp876
sS'ehreanac'
p877
(lp878
g115
ag117
ag120
ag122
ag21
ag669
ag151
ag152
ag247
ag28
ag248
ag171
ag172
ag175
ag184
ag189
asS'pseumenz'
p879
(lp880
sS'prosjuli'
p881
(lp882
g356
ag107
ag108
aVLynn (305)
p883
ag357
ag73
ag578
ag358
ag579
aVYoakum (501)
p884
ag74
ag359
ag360
ag304
ag813
ag109
ag62
ag110
ag111
ag458
ag44
ag305
ag361
aVHale (189)
p885
ag362
ag113
ag114
ag698
ag580
ag45
ag115
ag117
ag118
ag814
ag815
ag119
ag120
ag46
ag243
ag121
ag122
ag67
aVHockley (219)
p886
ag306
ag123
ag364
ag307
ag654
ag655
ag365
ag201
ag366
ag367
ag127
ag581
ag308
ag47
aVCochran (079)
p887
ag368
ag370
ag371
ag656
aVTerry (445)
p888
ag309
ag75
ag657
ag372
ag373
ag658
ag48
ag129
ag667
ag582
aVGaines (165)
p889
ag534
ag131
ag374
ag49
aVMartin (317)
p890
ag459
ag583
ag50
ag378
ag310
ag311
ag584
ag379
ag134
ag668
ag51
ag380
ag244
ag136
ag381
ag52
ag53
ag21
ag138
ag383
ag89
ag312
ag140
ag384
ag142
ag76
ag143
ag225
ag145
ag817
ag6
ag148
ag659
ag585
ag150
ag669
ag151
ag313
ag152
ag153
ag660
ag77
ag661
ag78
ag79
ag385
ag154
ag662
ag155
ag156
ag157
ag247
ag386
ag160
ag162
ag163
ag28
ag819
ag80
ag68
ag314
ag93
ag169
ag315
ag387
ag388
ag663
ag316
ag248
ag171
ag317
ag54
ag175
ag94
ag664
ag178
ag55
ag56
ag81
ag179
ag180
ag389
ag318
ag181
ag390
ag57
ag319
ag391
ag183
ag184
ag82
ag185
ag186
ag320
ag392
ag187
ag321
ag189
ag191
ag7
ag192
ag193
ag820
ag394
ag553
ag249
asS'tilihete'
p891
(lp892
sS'ilexlong'
p893
(lp894
sS'prunhort'
p895
(lp896
sS'yuccglor'
p897
(lp898
sS'juglnigr'
p899
(lp900
g18
ag109
ag110
ag112
ag44
ag115
ag116
ag19
ag122
ag124
ag125
ag126
ag127
ag20
ag128
ag130
ag132
ag133
ag135
ag51
ag136
ag137
ag139
ag89
ag140
ag142
ag143
ag144
ag145
ag146
ag147
ag148
ag149
ag150
ag151
ag152
ag155
ag24
ag158
ag159
ag161
ag90
ag91
ag25
ag163
ag27
ag164
ag29
ag166
ag30
ag80
ag167
ag168
ag93
ag169
ag170
ag32
ag94
ag176
ag177
ag178
ag55
ag56
ag180
ag181
ag57
ag183
ag185
ag95
ag188
ag190
ag191
ag192
ag193
ag194
asS'canewint'
p901
(lp902
sS'forephil'
p903
(lp904
sS'alnurubr'
p905
(lp906
sS'pinuelli'
p907
(lp908
sS'betunigr'
p909
(lp910
g18
ag19
ag125
ag20
ag132
ag133
ag135
ag137
ag139
ag142
ag23
ag147
ag24
ag158
ag159
ag25
ag26
ag163
ag27
ag164
ag29
ag30
ag167
ag31
ag169
ag170
ag32
ag95
ag188
ag190
asS'cladkent'
p911
(lp912
sS'acacmacr'
p913
(lp914
sS'salifluv'
p915
(lp916
sS'acermacr'
p917
(lp918
sS'querimbr'
p919
(lp920
sS'gymnluci'
p921
(lp922
sS'acerglab'
p923
(lp924
sS'magnashe'
p925
(lp926
sS'picemari'
p927
(lp928
sS'ulmuamer'
p929
(lp930
g356
ag357
ag73
ag18
ag109
ag110
ag111
ag112
ag44
ag113
ag114
ag116
ag118
ag119
ag19
ag123
ag124
ag125
ag126
ag127
ag47
ag20
ag128
ag372
ag373
ag48
ag130
ag374
ag132
ag50
ag133
ag134
ag135
ag51
ag136
ag137
ag138
ag139
ag89
ag140
ag22
ag142
ag76
ag143
ag23
ag144
ag145
ag146
ag147
ag148
ag149
ag150
ag151
ag152
ag153
ag77
ag154
ag155
ag156
ag24
ag158
ag159
ag161
ag90
ag91
ag25
ag26
ag163
ag27
ag164
ag165
ag29
ag166
ag30
ag80
ag167
ag93
ag31
ag169
ag170
ag317
ag32
ag54
ag94
ag176
ag177
ag178
ag55
ag56
ag81
ag179
ag180
ag389
ag181
ag57
ag183
ag82
ag185
ag186
ag392
ag187
ag95
ag188
ag190
ag191
ag192
ag193
ag194
asS'sequgiga'
p931
(lp932
sS'sassalbi'
p933
(lp934
g18
ag112
ag116
ag19
ag124
ag125
ag126
ag20
ag128
ag132
ag133
ag135
ag137
ag139
ag89
ag22
ag142
ag23
ag147
ag148
ag24
ag158
ag159
ag161
ag91
ag25
ag26
ag163
ag27
ag164
ag165
ag29
ag30
ag167
ag31
ag169
ag170
ag32
ag176
ag95
ag188
ag190
asS'haledipt'
p935
(lp936
g19
ag135
ag22
ag23
ag24
ag25
ag26
ag92
ag27
ag165
ag31
asS'cletacum'
p937
(lp938
sS'cuprmacn'
p939
(lp940
sS'amphlati'
p941
(lp942
sS'pinumuri'
p943
(lp944
sS'myrihete'
p945
(lp946
sS'cuprmacr'
p947
(lp948
sS'sorbscop'
p949
(lp950
sS'acacchor'
p951
(lp952
sS'torrtaxi'
p953
(lp954
sS'pinucemb'
p955
(lp956
g62
ag46
asS'popuhinc'
p957
(lp958
sS'cratchry'
p959
(lp960
sS'pinuwash'
p961
(lp962
sS'sabamino'
p963
(lp964
g18
ag110
ag19
ag123
ag125
ag20
ag128
ag130
ag132
ag135
ag136
ag53
ag21
ag139
ag89
ag141
ag22
ag142
ag23
ag146
ag147
ag150
ag151
ag24
ag158
ag159
ag90
ag91
ag25
ag26
ag92
ag163
ag27
ag165
ag29
ag30
ag80
ag167
ag168
ag93
ag31
ag169
ag170
ag171
ag172
ag174
ag32
ag175
ag180
ag181
ag182
ag184
ag188
ag190
ag96
ag33
asS'quergrav'
p965
(lp966
g62
asS'ardiesca'
p967
(lp968
sS'coccdive'
p969
(lp970
sS'canoholo'
p971
(lp972
sS'acacrigi'
p973
(lp974
g304
ag305
ag115
ag121
ag306
ag308
ag309
ag49
ag310
ag311
ag21
ag313
ag157
ag247
ag162
ag28
ag315
ag316
ag248
ag318
ag572
ag319
ag321
ag249
asS'quergrac'
p975
(lp976
sS'pinucoop'
p977
(lp978
sS'tsugcaro'
p979
(lp980
sS'myriceri'
p981
(lp982
g18
ag110
ag112
ag44
ag19
ag125
ag127
ag20
ag128
ag132
ag133
ag135
ag137
ag21
ag139
ag89
ag140
ag22
ag142
ag143
ag23
ag145
ag146
ag147
ag148
ag155
ag24
ag158
ag159
ag90
ag91
ag25
ag26
ag92
ag163
ag27
ag28
ag165
ag29
ag30
ag167
ag93
ag31
ag169
ag170
ag32
ag94
ag178
ag180
ag95
ag188
ag190
ag191
asS'symptinc'
p983
(lp984
g135
ag137
ag22
ag23
ag24
ag159
ag25
ag30
ag31
ag32
ag95
asS'prunmexi'
p985
(lp986
g73
ag18
ag109
ag110
ag111
ag44
ag113
ag116
ag118
ag124
ag126
ag127
ag47
ag128
ag48
ag130
ag132
ag50
ag134
ag135
ag51
ag139
ag89
ag140
ag142
ag76
ag143
ag144
ag145
ag146
ag148
ag149
ag150
ag153
ag154
ag155
ag156
ag24
ag158
ag161
ag90
ag91
ag25
ag163
ag27
ag165
ag30
ag80
ag167
ag168
ag93
ag31
ag169
ag170
ag317
ag174
ag32
ag54
ag94
ag176
ag177
ag178
ag55
ag81
ag179
ag180
ag181
ag182
ag57
ag183
ag185
ag186
ag188
ag190
ag191
ag192
ag193
ag194
asS'washfili'
p987
(lp988
sS'ilexcass'
p989
(lp990
sS'osmaamer'
p991
(lp992
sS'querphel'
p993
(lp994
g18
ag112
ag116
ag19
ag124
ag125
ag126
ag20
ag128
ag132
ag133
ag135
ag137
ag139
ag22
ag142
ag23
ag147
ag24
ag158
ag159
ag25
ag26
ag163
ag27
ag164
ag165
ag29
ag30
ag167
ag168
ag31
ag169
ag170
ag173
ag174
ag32
ag95
ag188
ag190
ag33
asS'salibebb'
p995
(lp996
sS'tetrbico'
p997
(lp998
sS'pinupinc'
p999
(lp1000
sS'eugefoet'
p1001
(lp1002
sS'chryicac'
p1003
(lp1004
sS'juglcali'
p1005
(lp1006
sS'alnurhom'
p1007
(lp1008
sS'salidisc'
p1009
(lp1010
sS'querrubr'
p1011
(lp1012
sS'querstel'
p1013
(lp1014
g356
ag357
ag73
ag358
ag74
ag18
ag359
ag109
ag110
ag111
ag112
ag458
ag44
ag362
ag113
ag114
ag45
ag116
ag118
ag119
ag120
ag46
ag19
ag122
ag123
ag364
ag307
ag365
ag201
ag366
ag367
ag124
ag125
ag126
ag127
ag47
ag368
ag370
ag371
ag20
ag128
ag372
ag373
ag48
ag129
ag130
ag374
ag459
ag132
ag50
ag133
ag378
ag134
ag135
ag51
ag380
ag136
ag137
ag381
ag52
ag53
ag138
ag139
ag383
ag89
ag140
ag141
ag142
ag76
ag143
ag23
ag144
ag145
ag146
ag147
ag148
ag149
ag585
ag150
ag669
ag151
ag152
ag153
ag77
ag79
ag385
ag154
ag155
ag156
ag24
ag386
ag158
ag159
ag161
ag90
ag91
ag25
ag26
ag163
ag27
ag164
ag165
ag29
ag166
ag30
ag80
ag167
ag314
ag168
ag93
ag31
ag169
ag387
ag388
ag170
ag171
ag172
ag317
ag174
ag32
ag54
ag94
ag176
ag177
ag178
ag55
ag56
ag81
ag179
ag180
ag389
ag181
ag182
ag57
ag391
ag183
ag82
ag185
ag186
ag392
ag187
ag95
ag188
ag190
ag191
ag192
ag193
ag194
ag96
ag394
asS'acerbarb'
p1015
(lp1016
g18
ag19
ag20
ag23
ag147
ag24
ag158
ag159
ag25
ag29
ag30
ag32
asS'popuhete'
p1017
(lp1018
sS'querdoug'
p1019
(lp1020
sS'pinupond'
p1021
(lp1022
sS'yuccmoha'
p1023
(lp1024
sS'pinuechi'
p1025
(lp1026
g18
ag112
ag19
ag125
ag20
ag132
ag133
ag135
ag137
ag139
ag22
ag23
ag147
ag24
ag158
ag159
ag91
ag25
ag26
ag163
ag27
ag164
ag165
ag29
ag30
ag167
ag31
ag169
ag170
ag32
ag95
ag188
ag190
asS'bumelanu'
p1027
(lp1028
g356
ag107
ag108
ag357
ag73
ag358
ag74
ag18
ag304
ag109
ag110
ag111
ag112
ag44
ag305
ag113
ag114
ag45
ag115
ag116
ag117
ag118
ag119
ag120
ag46
ag19
ag121
ag122
ag306
ag123
ag364
ag307
ag365
ag201
ag366
ag124
ag125
ag126
ag127
ag308
ag47
ag371
ag309
ag20
ag128
ag372
ag373
ag48
ag129
ag130
ag534
ag131
ag374
ag49
ag132
ag50
ag133
ag310
ag311
ag134
ag135
ag51
ag136
ag137
ag381
ag382
ag52
ag53
ag21
ag138
ag139
ag89
ag312
ag140
ag141
ag22
ag142
ag76
ag143
ag225
ag23
ag144
ag145
ag146
ag147
ag148
ag149
ag150
ag669
ag151
ag313
ag152
ag153
ag77
ag79
ag154
ag155
ag156
ag157
ag24
ag247
ag386
ag158
ag159
ag160
ag161
ag90
ag91
ag162
ag25
ag26
ag92
ag163
ag27
ag164
ag28
ag165
ag29
ag166
ag30
ag80
ag167
ag314
ag168
ag93
ag31
ag169
ag315
ag387
ag316
ag248
ag170
ag171
ag172
ag317
ag173
ag174
ag32
ag54
ag175
ag94
ag176
ag177
ag178
ag55
ag56
ag81
ag179
ag180
ag389
ag318
ag181
ag390
ag182
ag57
ag319
ag183
ag184
ag82
ag185
ag186
ag392
ag187
ag321
ag95
ag188
ag189
ag190
ag191
ag192
ag193
ag194
ag96
ag33
ag394
ag553
ag249
asS'eysetexa'
p1029
(lp1030
g107
ag108
ag304
ag305
ag45
ag115
ag117
ag120
ag46
ag121
ag306
ag123
ag308
ag309
ag129
ag131
ag49
ag310
ag311
ag51
ag136
ag52
ag53
ag21
ag76
ag6
ag313
ag153
ag78
ag79
ag157
ag160
ag162
ag28
ag315
ag316
ag55
ag56
ag318
ag572
ag57
ag319
ag82
ag320
ag321
ag189
ag553
asS'nysssylv'
p1031
(lp1032
g18
ag112
ag116
ag19
ag124
ag125
ag126
ag20
ag128
ag130
ag132
ag133
ag135
ag137
ag139
ag89
ag22
ag142
ag23
ag145
ag147
ag148
ag24
ag158
ag159
ag161
ag90
ag91
ag25
ag26
ag163
ag27
ag164
ag29
ag30
ag167
ag31
ag169
ag170
ag32
ag176
ag178
ag95
ag188
ag190
asS'fraxgreg'
p1033
(lp1034
g319
asS'aralspin'
p1035
(lp1036
g18
ag19
ag20
ag132
ag135
ag137
ag139
ag23
ag147
ag24
ag158
ag159
ag25
ag26
ag164
ag165
ag29
ag30
ag31
ag95
asS'carycord'
p1037
(lp1038
g18
ag112
ag19
ag124
ag125
ag126
ag20
ag128
ag130
ag132
ag133
ag135
ag137
ag139
ag89
ag142
ag23
ag145
ag147
ag148
ag24
ag158
ag159
ag90
ag91
ag25
ag26
ag163
ag27
ag164
ag29
ag30
ag80
ag167
ag31
ag169
ag170
ag32
ag176
ag178
ag95
ag188
ag190
asS'cornocci'
p1039
(lp1040
sS'arctprin'
p1041
(lp1042
sS'querdura'
p1043
(lp1044
g73
ag358
ag74
ag111
ag458
ag44
ag113
ag45
ag117
ag118
ag46
ag122
ag123
ag364
ag307
ag201
ag47
ag372
ag48
ag129
ag131
ag583
ag50
ag51
ag52
ag53
ag312
ag141
ag76
ag151
ag153
ag77
ag79
ag154
ag26
ag166
ag30
ag80
ag314
ag169
ag387
ag171
ag317
ag54
ag175
ag177
ag55
ag56
ag81
ag179
ag180
ag57
ag183
ag82
ag186
ag194
ag33
ag394
asS'querarka'
p1045
(lp1046
sS'cuprsarg'
p1047
(lp1048
sS'bacchali'
p1049
(lp1050
g18
ag112
ag19
ag124
ag125
ag126
ag20
ag128
ag132
ag133
ag135
ag137
ag139
ag89
ag141
ag22
ag142
ag23
ag147
ag148
ag150
ag24
ag158
ag159
ag90
ag91
ag25
ag26
ag92
ag163
ag27
ag164
ag165
ag29
ag30
ag80
ag167
ag168
ag31
ag169
ag170
ag172
ag173
ag174
ag32
ag175
ag176
ag180
ag182
ag95
ag188
ag190
ag96
ag33
asS'alnumari'
p1051
(lp1052
sS'salisess'
p1053
(lp1054
sS'pincpube'
p1055
(lp1056
sS'condhook'
p1057
(lp1058
g107
ag108
ag304
ag110
ag305
ag115
ag117
ag120
ag121
ag122
ag306
ag308
ag309
ag49
ag310
ag311
ag136
ag21
ag140
ag141
ag150
ag151
ag313
ag152
ag157
ag247
ag160
ag162
ag28
ag315
ag316
ag248
ag171
ag172
ag175
ag56
ag180
ag318
ag57
ag184
ag82
ag321
ag189
ag193
ag249
asS'rhusovat'
p1059
(lp1060
sS'fraxgood'
p1061
(lp1062
sS'dryplate'
p1063
(lp1064
sS'ilexlaev'
p1065
(lp1066
sS'rhodmaxi'
p1067
(lp1068
sS'pinulaws'
p1069
(lp1070
sS'rhambetu'
p1071
(lp1072
g62
asS'saliseri'
p1073
(lp1074
sS'corycorn'
p1075
(lp1076
sS'sequsemp'
p1077
(lp1078
sS'dalespin'
p1079
(lp1080
sS'aescglab'
p1081
(lp1082
g109
ag111
ag112
ag44
ag114
ag45
ag116
ag118
ag119
ag46
ag121
ag123
ag124
ag125
ag126
ag47
ag128
ag129
ag130
ag132
ag133
ag51
ag137
ag52
ag139
ag76
ag144
ag145
ag149
ag153
ag158
ag161
ag90
ag91
ag164
ag166
ag80
ag387
ag170
ag54
ag176
ag177
ag81
ag179
ag181
ag183
ag185
ag187
ag188
ag192
ag194
asS'acacberl'
p1083
(lp1084
g107
ag108
ag304
ag305
ag115
ag117
ag120
ag121
ag306
ag308
ag309
ag49
ag310
ag311
ag21
ag6
ag313
ag78
ag157
ag160
ag162
ag28
ag315
ag316
ag174
ag318
ag572
ag319
ag321
ag189
asS'betupapy'
p1085
(lp1086
sS'acerspic'
p1087
(lp1088
sS'prunangu'
p1089
(lp1090
g356
ag357
ag73
ag18
ag359
ag360
ag109
ag111
ag44
ag361
ag362
ag113
ag114
ag118
ag815
ag119
ag243
ag19
ag363
ag365
ag366
ag367
ag127
ag581
ag47
ag224
ag368
ag369
ag370
ag371
ag20
ag372
ag373
ag48
ag376
ag132
ag50
ag378
ag379
ag134
ag135
ag51
ag380
ag244
ag381
ag382
ag138
ag139
ag383
ag89
ag384
ag142
ag76
ag143
ag23
ag144
ag145
ag146
ag147
ag148
ag659
ag153
ag79
ag385
ag154
ag155
ag156
ag24
ag386
ag159
ag91
ag25
ag26
ag163
ag27
ag165
ag29
ag166
ag30
ag80
ag167
ag68
ag168
ag93
ag169
ag387
ag388
ag32
ag54
ag94
ag177
ag178
ag55
ag81
ag179
ag389
ag181
ag390
ag57
ag391
ag183
ag185
ag186
ag187
ag190
ag191
ag393
ag192
ag194
ag394
ag395
asS'picechih'
p1091
(lp1092
sS'sorbamer'
p1093
(lp1094
sS'quergeor'
p1095
(lp1096
sS'stewovat'
p1097
(lp1098
sS'acacwrig'
p1099
(lp1100
g107
ag108
ag304
ag120
ag306
ag307
ag201
ag308
ag309
ag534
ag374
ag310
ag669
ag313
ag157
ag247
ag387
ag316
ag248
ag318
ag319
ag392
ag321
ag553
ag249
asS'prunmyrt'
p1101
(lp1102
sS'larilari'
p1103
(lp1104
sS'licatria'
p1105
(lp1106
sS'abielasi'
p1107
(lp1108
sS'oxydarbo'
p1109
(lp1110
g158
asS'ilexambi'
p1111
(lp1112
g18
ag19
ag20
ag132
ag135
ag139
ag23
ag147
ag24
ag158
ag25
ag26
ag27
ag29
ag30
ag31
ag170
ag32
ag188
ag190
asS'pinualbi'
p1113
(lp1114
sS'castchry'
p1115
(lp1116
sS'chamnoot'
p1117
(lp1118
sS'clifmono'
p1119
(lp1120
sS'magnmacr'
p1121
(lp1122
sS'ostrvirg'
p1123
(lp1124
g18
ag19
ag20
ag132
ag135
ag137
ag139
ag23
ag147
ag24
ag158
ag159
ag25
ag26
ag27
ag164
ag165
ag29
ag30
ag167
ag31
ag169
ag32
ag95
ag190
asS'cornsess'
p1125
(lp1126
sS'myriinod'
p1127
(lp1128
sS'cercledi'
p1129
(lp1130
sS'condglob'
p1131
(lp1132
sS'cuprguad'
p1133
(lp1134
sS'junivirg'
p1135
(lp1136
g356
ag18
ag109
ag110
ag111
ag112
ag114
ag116
ag119
ag19
ag124
ag125
ag126
ag127
ag20
ag128
ag373
ag130
ag132
ag133
ag134
ag135
ag137
ag138
ag139
ag89
ag140
ag142
ag143
ag23
ag144
ag145
ag146
ag147
ag148
ag149
ag150
ag155
ag156
ag24
ag158
ag159
ag161
ag90
ag91
ag25
ag163
ag27
ag164
ag29
ag166
ag30
ag80
ag167
ag168
ag93
ag169
ag170
ag32
ag94
ag176
ag177
ag178
ag179
ag181
ag185
ag187
ag95
ag188
ag190
ag191
ag192
ag193
ag194
asS'caesmexi'
p1137
(lp1138
g306
ag247
asS'saliluci'
p1139
(lp1140
sS'quertome'
p1141
(lp1142
sS'foreangu'
p1143
(lp1144
g107
ag108
ag304
ag305
ag115
ag120
ag122
ag306
ag308
ag309
ag49
ag310
ag311
ag21
ag141
ag6
ag313
ag157
ag247
ag160
ag162
ag28
ag315
ag316
ag248
ag173
ag175
ag318
ag319
ag184
ag321
ag7
ag33
ag249
asS'sapisapo'
p1145
(lp1146
sS'rhuslanc'
p1147
(lp1148
g73
ag74
ag62
ag111
ag113
ag118
ag120
ag123
ag307
ag201
ag47
ag224
ag48
ag129
ag374
ag50
ag134
ag52
ag53
ag89
ag312
ag140
ag76
ag225
ag146
ag669
ag153
ag77
ag79
ag154
ag25
ag167
ag314
ag387
ag317
ag54
ag56
ag81
ag179
ag57
ag183
ag82
ag186
ag392
asS'sabamexi'
p1149
(lp1150
sS'foresegr'
p1151
(lp1152
sS'piscpisc'
p1153
(lp1154
sS'pinuedul'
p1155
(lp1156
sS'hamepate'
p1157
(lp1158
sS'arbuariz'
p1159
(lp1160
sS'opunfulg'
p1161
(lp1162
sS'acacroem'
p1163
(lp1164
g108
ag579
ag74
ag45
ag117
ag120
ag46
ag121
ag123
ag307
ag365
ag201
ag129
ag131
ag52
ag53
ag312
ag153
ag78
ag157
ag317
ag56
ag318
ag57
ag319
ag82
ag320
asS'pinulong'
p1165
(lp1166
sS'ilexamel'
p1167
(lp1168
sS'cuprgove'
p1169
(lp1170
sS'junieryt'
p1171
(lp1172
g62
asS'ceanspin'
p1173
(lp1174
sS'acerpens'
p1175
(lp1176
sS'salihind'
p1177
(lp1178
sS'taxodist'
p1179
(lp1180
g18
ag110
ag45
ag115
ag120
ag19
ag122
ag123
ag20
ag132
ag133
ag135
ag136
ag137
ag53
ag139
ag22
ag23
ag146
ag147
ag150
ag151
ag152
ag24
ag158
ag159
ag25
ag26
ag27
ag164
ag29
ag30
ag167
ag168
ag93
ag31
ag169
ag170
ag171
ag174
ag32
ag56
ag180
ag182
ag82
ag95
ag188
ag190
ag193
asS'cithberl'
p1181
(lp1182
g247
asS'cornglab'
p1183
(lp1184
sS'sheparge'
p1185
(lp1186
sS'salitrac'
p1187
(lp1188
sS'celtlaev'
p1189
(lp1190
g356
ag357
ag73
ag358
ag18
ag359
ag360
ag109
ag62
ag110
ag111
ag112
ag44
ag362
ag113
ag114
ag45
ag115
ag116
ag117
ag118
ag119
ag120
ag19
ag121
ag122
ag123
ag364
ag365
ag201
ag366
ag367
ag124
ag125
ag126
ag127
ag47
ag368
ag370
ag371
ag20
ag128
ag372
ag373
ag48
ag130
ag374
ag132
ag50
ag133
ag378
ag134
ag135
ag51
ag380
ag136
ag137
ag381
ag53
ag138
ag139
ag383
ag89
ag140
ag22
ag142
ag76
ag143
ag23
ag144
ag145
ag146
ag147
ag148
ag149
ag150
ag669
ag151
ag152
ag154
ag155
ag156
ag24
ag386
ag158
ag159
ag161
ag90
ag91
ag25
ag26
ag163
ag27
ag164
ag165
ag29
ag166
ag30
ag80
ag167
ag168
ag93
ag31
ag169
ag387
ag388
ag170
ag171
ag172
ag317
ag174
ag32
ag54
ag94
ag176
ag177
ag178
ag55
ag56
ag81
ag179
ag180
ag389
ag181
ag390
ag182
ag57
ag391
ag183
ag82
ag185
ag186
ag392
ag187
ag95
ag188
ag189
ag190
ag191
ag192
ag193
ag194
ag394
asS'pinumich'
p1191
(lp1192
sS'sorbsitc'
p1193
(lp1194
sS'chilline'
p1195
(lp1196
g108
ag62
ag584
ag6
ag660
ag661
ag78
ag663
ag664
ag319
ag320
ag7
asS'zantamer'
p1197
(lp1198
sS'cappflex'
p1199
(lp1200
sS'rapapunc'
p1201
(lp1202
sS'ellirace'
p1203
(lp1204
sS'cordsebe'
p1205
(lp1206
sS'querchap'
p1207
(lp1208
sS'ulmucras'
p1209
(lp1210
g107
ag108
ag357
ag73
ag18
ag304
ag109
ag110
ag111
ag112
ag44
ag305
ag113
ag114
ag45
ag115
ag116
ag117
ag118
ag119
ag120
ag121
ag122
ag306
ag123
ag124
ag125
ag126
ag127
ag308
ag47
ag309
ag20
ag128
ag48
ag129
ag130
ag49
ag132
ag50
ag133
ag310
ag311
ag134
ag135
ag51
ag136
ag137
ag52
ag53
ag21
ag138
ag139
ag89
ag140
ag142
ag76
ag143
ag144
ag145
ag146
ag147
ag148
ag149
ag150
ag151
ag313
ag152
ag154
ag155
ag156
ag157
ag247
ag158
ag159
ag160
ag161
ag90
ag91
ag162
ag163
ag164
ag28
ag165
ag166
ag80
ag167
ag168
ag93
ag169
ag315
ag316
ag248
ag170
ag171
ag172
ag174
ag54
ag175
ag94
ag176
ag177
ag178
ag55
ag56
ag81
ag179
ag180
ag181
ag182
ag57
ag183
ag184
ag82
ag185
ag186
ag187
ag321
ag95
ag188
ag189
ag190
ag191
ag192
ag193
ag194
ag249
asS'salitaxi'
p1211
(lp1212
sS'calyzuzy'
p1213
(lp1214
sS'querglau'
p1215
(lp1216
g74
ag45
ag117
ag46
ag121
ag307
ag52
ag53
asS'pinucoul'
p1217
(lp1218
sS'pinupseu'
p1219
(lp1220
sS'caryovat'
p1221
(lp1222
g18
ag19
ag20
ag137
ag139
ag23
ag147
ag24
ag159
ag25
ag26
ag29
ag30
ag31
ag32
ag176
ag95
asS'taxuflor'
p1223
(lp1224
sS'styrgran'
p1225
(lp1226
g19
ag23
ag24
ag25
ag26
ag30
ag31
ag170
ag96
asS'rhusmicr'
p1227
(lp1228
g74
ag360
ag62
ag458
ag45
ag117
ag46
ag121
ag307
ag654
ag655
ag75
ag657
ag658
ag534
ag131
ag374
ag583
ag668
ag52
ag53
ag383
ag312
ag225
ag6
ag669
ag313
ag660
ag661
ag78
ag79
ag662
ag157
ag314
ag663
ag319
ag320
ag392
ag7
ag553
asS'quermich'
p1229
(lp1230
g18
ag19
ag20
ag139
ag22
ag23
ag147
ag24
ag159
ag25
ag26
ag92
ag29
ag30
ag31
ag173
ag32
ag33
asS'acersacr'
p1231
(lp1232
sS'pinuclau'
p1233
(lp1234
sS'pinubank'
p1235
(lp1236
sS'vibunudu'
p1237
(lp1238
g19
ag20
ag137
ag23
ag24
ag25
ag92
ag29
ag30
ag31
ag178
ag95
ag190
asS'fraxpapi'
p1239
(lp1240
sS'quertoum'
p1241
(lp1242
sS'pinumaxi'
p1243
(lp1244
sS'picerube'
p1245
(lp1246
sS'popubals'
p1247
(lp1248
sS'liqustyr'
p1249
(lp1250
g18
ag112
ag19
ag124
ag125
ag126
ag20
ag128
ag132
ag133
ag135
ag137
ag139
ag22
ag23
ag147
ag24
ag158
ag159
ag91
ag25
ag26
ag27
ag164
ag29
ag30
ag167
ag31
ag169
ag170
ag32
ag176
ag95
ag188
ag190
asS'querprin'
p1251
(lp1252
sS'lysimicr'
p1253
(lp1254
sS'querfalc'
p1255
(lp1256
g18
ag112
ag19
ag124
ag125
ag126
ag20
ag128
ag132
ag133
ag135
ag137
ag139
ag89
ag22
ag142
ag23
ag147
ag148
ag24
ag158
ag159
ag161
ag91
ag25
ag26
ag163
ag27
ag164
ag165
ag29
ag30
ag167
ag168
ag31
ag169
ag170
ag173
ag174
ag32
ag176
ag95
ag188
ag190
ag33
asS'viburufi'
p1257
(lp1258
g18
ag109
ag111
ag112
ag44
ag113
ag116
ag118
ag119
ag19
ag121
ag123
ag124
ag125
ag126
ag127
ag47
ag20
ag128
ag48
ag129
ag130
ag132
ag133
ag135
ag51
ag137
ag52
ag53
ag139
ag89
ag140
ag142
ag76
ag143
ag23
ag144
ag145
ag147
ag148
ag149
ag153
ag79
ag154
ag155
ag24
ag158
ag159
ag161
ag90
ag91
ag25
ag26
ag163
ag27
ag164
ag165
ag29
ag166
ag30
ag80
ag167
ag93
ag31
ag169
ag170
ag317
ag32
ag54
ag94
ag176
ag177
ag178
ag55
ag56
ag81
ag179
ag180
ag181
ag57
ag183
ag82
ag185
ag186
ag187
ag95
ag188
ag190
ag191
ag192
ag193
ag194
ag33
asS'yuccfaxo'
p1259
(lp1260
sS'solaeria'
p1261
(lp1262
g247
ag249
asS'geniclus'
p1263
(lp1264
sS'conoerec'
p1265
(lp1266
sS'fraxpenn'
p1267
(lp1268
g73
ag18
ag109
ag110
ag111
ag112
ag44
ag114
ag116
ag118
ag119
ag19
ag124
ag125
ag126
ag127
ag47
ag20
ag128
ag48
ag130
ag132
ag50
ag133
ag134
ag135
ag51
ag136
ag137
ag138
ag139
ag89
ag140
ag141
ag22
ag142
ag76
ag143
ag23
ag144
ag145
ag146
ag147
ag148
ag149
ag150
ag152
ag155
ag156
ag24
ag158
ag159
ag161
ag90
ag91
ag25
ag26
ag163
ag27
ag164
ag165
ag29
ag166
ag30
ag80
ag167
ag168
ag93
ag31
ag169
ag170
ag171
ag172
ag173
ag174
ag32
ag54
ag175
ag94
ag176
ag177
ag178
ag55
ag56
ag81
ag179
ag180
ag181
ag182
ag57
ag183
ag185
ag187
ag95
ag188
ag190
ag191
ag192
ag193
ag194
ag33
asS'celtocci'
p1269
(lp1270
sS'salinigr'
p1271
(lp1272
g356
ag107
ag108
ag357
ag73
ag74
ag18
ag359
ag109
ag62
ag110
ag111
ag112
ag458
ag44
ag305
ag362
ag113
ag114
ag698
ag45
ag115
ag116
ag117
ag118
ag119
ag120
ag46
ag19
ag121
ag122
ag123
ag307
ag365
ag201
ag366
ag367
ag124
ag125
ag126
ag127
ag47
ag368
ag371
ag20
ag128
ag372
ag373
ag48
ag129
ag130
ag374
ag49
ag132
ag50
ag133
ag378
ag310
ag134
ag135
ag51
ag380
ag136
ag137
ag381
ag52
ag53
ag21
ag138
ag139
ag383
ag89
ag140
ag141
ag22
ag142
ag76
ag143
ag225
ag23
ag144
ag145
ag146
ag147
ag148
ag149
ag150
ag669
ag151
ag313
ag152
ag153
ag77
ag79
ag385
ag154
ag155
ag156
ag24
ag386
ag158
ag159
ag160
ag161
ag90
ag91
ag162
ag25
ag26
ag163
ag27
ag164
ag165
ag29
ag166
ag30
ag80
ag167
ag314
ag168
ag93
ag31
ag169
ag387
ag388
ag663
ag170
ag171
ag172
ag317
ag174
ag32
ag54
ag175
ag94
ag176
ag177
ag178
ag55
ag56
ag81
ag179
ag180
ag389
ag318
ag181
ag390
ag182
ag57
ag391
ag183
ag184
ag82
ag185
ag186
ag392
ag187
ag95
ag188
ag189
ag190
ag191
ag192
ag193
ag194
ag96
ag33
ag820
ag394
asS'robivisc'
p1273
(lp1274
sS'rhamcroc'
p1275
(lp1276
sS'avicgerm'
p1277
(lp1278
g92
asS'prospube'
p1279
(lp1280
g663
asS'koebspin'
p1281
(lp1282
g304
ag62
ag306
ag656
ag584
ag6
ag313
ag660
ag661
ag247
ag663
ag7
asS'cererobi'
p1283
(lp1284
sS'psidlong'
p1285
(lp1286
sS'junisili'
p1287
(lp1288
g18
ag110
ag89
ag140
ag22
ag26
ag173
ag33
asS'junioste'
p1289
(lp1290
sS'surimari'
p1291
(lp1292
sS'bumecela'
p1293
(lp1294
g304
ag306
ag308
ag309
ag311
ag141
ag247
ag160
ag28
ag315
ag248
ag172
ag175
ag321
ag249
asS'querhypo'
p1295
(lp1296
g62
asS'pithflex'
p1297
(lp1298
g304
ag306
ag308
ag247
ag28
ag248
ag321
ag249
asS'quernutt'
p1299
(lp1300
g25
ag26
asS'thrimorr'
p1301
(lp1302
sS'yuccelat'
p1303
(lp1304
g62
ag584
ag660
ag661
ag663
ag7
asS'sambcana'
p1305
(lp1306
g18
ag109
ag110
ag112
ag44
ag114
ag115
ag116
ag120
ag19
ag124
ag125
ag126
ag127
ag47
ag20
ag128
ag130
ag132
ag133
ag135
ag51
ag136
ag137
ag382
ag21
ag139
ag89
ag140
ag142
ag143
ag23
ag144
ag145
ag146
ag147
ag148
ag149
ag150
ag151
ag152
ag155
ag24
ag247
ag158
ag159
ag161
ag90
ag91
ag25
ag163
ag27
ag164
ag28
ag165
ag29
ag166
ag30
ag80
ag167
ag168
ag93
ag169
ag170
ag171
ag172
ag174
ag32
ag94
ag176
ag177
ag178
ag55
ag179
ag180
ag181
ag182
ag57
ag184
ag185
ag187
ag95
ag188
ag189
ag190
ag191
ag192
ag193
ag194
asS'pisorotu'
p1307
(lp1308
sS'picrpent'
p1309
(lp1310
sS'cerctras'
p1311
(lp1312
sS'ulmuthom'
p1313
(lp1314
sS'coluarbo'
p1315
(lp1316
sS'agavutah'
p1317
(lp1318
sS'ostrchis'
p1319
(lp1320
sS'prunsero'
p1321
(lp1322
g107
ag74
ag18
ag109
ag62
ag112
ag45
ag116
ag117
ag120
ag46
ag19
ag123
ag124
ag125
ag126
ag20
ag128
ag129
ag130
ag132
ag133
ag135
ag137
ag52
ag53
ag139
ag89
ag142
ag76
ag23
ag145
ag147
ag148
ag149
ag153
ag79
ag24
ag158
ag159
ag161
ag90
ag91
ag25
ag26
ag163
ag27
ag164
ag165
ag29
ag30
ag167
ag168
ag31
ag169
ag170
ag32
ag176
ag56
ag181
ag57
ag82
ag95
ag188
ag190
asS'pinutaed'
p1323
(lp1324
g18
ag110
ag112
ag19
ag124
ag125
ag20
ag128
ag132
ag133
ag135
ag137
ag139
ag89
ag140
ag22
ag142
ag23
ag146
ag147
ag24
ag158
ag159
ag161
ag25
ag26
ag92
ag163
ag27
ag164
ag165
ag29
ag30
ag167
ag168
ag31
ag169
ag170
ag32
ag176
ag182
ag95
ag188
ag190
asS'rhodcata'
p1325
(lp1326
sS'sambmela'
p1327
(lp1328
sS'rhamcali'
p1329
(lp1330
sS'yucctorr'
p1331
(lp1332
g62
ag584
ag6
ag661
ag78
ag157
ag663
ag319
ag7
asS'saliflor'
p1333
(lp1334
sS'querkell'
p1335
(lp1336
sS'tiliamer'
p1337
(lp1338
sS'bumelyci'
p1339
(lp1340
g23
ag24
ag25
ag92
ag31
asS'juglhind'
p1341
(lp1342
sS'celtreti'
p1343
(lp1344
g356
ag357
ag358
ag359
ag360
ag62
ag458
ag361
ag362
ag45
ag117
ag815
ag46
ag243
ag363
ag364
ag365
ag201
ag366
ag367
ag581
ag224
ag368
ag369
ag370
ag371
ag656
ag373
ag582
ag534
ag131
ag374
ag459
ag376
ag378
ag379
ag380
ag244
ag381
ag382
ag52
ag53
ag21
ag383
ag312
ag384
ag225
ag23
ag585
ag669
ag385
ag386
ag91
ag166
ag80
ag68
ag387
ag388
ag663
ag317
ag56
ag390
ag391
ag82
ag392
ag187
ag393
ag820
ag394
ag395
asS'magnacum'
p1345
(lp1346
sS'pinulumh'
p1347
(lp1348
sS'leitflor'
p1349
(lp1350
g92
ag96
ag33
asS'acacgreg'
p1351
(lp1352
g107
ag108
ag304
ag62
ag305
ag115
ag117
ag120
ag121
ag122
ag306
ag654
ag655
ag201
ag308
ag656
ag309
ag75
ag657
ag658
ag534
ag374
ag49
ag459
ag583
ag310
ag311
ag668
ag225
ag6
ag659
ag669
ag313
ag77
ag78
ag662
ag157
ag247
ag160
ag162
ag28
ag314
ag315
ag316
ag248
ag664
ag318
ag319
ag320
ag392
ag321
ag189
ag7
ag553
ag249
asS'acacfarn'
p1353
(lp1354
g108
ag304
ag305
ag306
ag308
ag309
ag49
ag310
ag311
ag313
ag78
ag247
ag28
ag315
ag316
ag248
ag318
ag321
ag249
asS'pinumtez'
p1355
(lp1356
sS'pinurigi'
p1357
(lp1358
sS'reynsept'
p1359
(lp1360
sS'hypetrif'
p1361
(lp1362
sS'chamlaws'
p1363
(lp1364
sS'guetelli'
p1365
(lp1366
sS'quercocc'
p1367
(lp1368
sS'pseusarg'
p1369
(lp1370
sS'salibonp'
p1371
(lp1372
sS'querhava'
p1373
(lp1374
g883
ag884
ag580
ag243
ag363
ag67
ag655
ag365
ag201
ag367
ag887
ag368
ag370
ag656
ag888
ag657
ag582
ag889
ag380
ag817
ag659
ag385
ag662
ag388
ag390
ag395
asS'querbico'
p1375
(lp1376
sS'myripens'
p1377
(lp1378
sS'foreacum'
p1379
(lp1380
g112
ag125
ag128
ag133
ag137
ag22
ag144
ag92
ag164
ag80
ag31
ag171
ag32
ag95
ag188
ag190
ag96
asS'fagugran'
p1381
(lp1382
g18
ag19
ag20
ag22
ag23
ag24
ag25
ag27
ag29
ag30
ag31
ag32
ag190
asS'amyrelem'
p1383
(lp1384
sS'asimparv'
p1385
(lp1386
sS'magntrip'
p1387
(lp1388
sS'pinuenge'
p1389
(lp1390
sS'fraxquad'
p1391
(lp1392
sS'querajoe'
p1393
(lp1394
sS'cornflor'
p1395
(lp1396
g18
ag112
ag116
ag19
ag124
ag125
ag126
ag20
ag128
ag132
ag133
ag136
ag137
ag139
ag89
ag140
ag22
ag142
ag23
ag146
ag147
ag148
ag24
ag158
ag159
ag161
ag25
ag27
ag164
ag29
ag30
ag80
ag167
ag93
ag31
ag169
ag170
ag32
ag94
ag176
ag178
ag95
ag188
ag190
asS'cercmacr'
p1397
(lp1398
g304
ag305
ag306
ag308
ag309
ag311
ag247
ag248
ag249
asS'acactort'
p1399
(lp1400
g107
ag108
ag304
ag305
ag117
ag120
ag121
ag306
ag308
ag309
ag49
ag310
ag311
ag21
ag313
ag247
ag160
ag162
ag28
ag315
ag316
ag248
ag180
ag318
ag184
ag321
ag249
asS'guetscab'
p1401
(lp1402
sS'queremor'
p1403
(lp1404
g62
asS'cratcolu'
p1405
(lp1406
sS'stapbola'
p1407
(lp1408
sS'diphsali'
p1409
(lp1410
sS'platocci'
p1411
(lp1412
g107
ag108
ag18
ag109
ag110
ag111
ag112
ag44
ag115
ag116
ag120
ag19
ag122
ag124
ag125
ag126
ag127
ag20
ag128
ag130
ag132
ag133
ag135
ag136
ag137
ag139
ag89
ag140
ag22
ag142
ag143
ag23
ag144
ag145
ag146
ag147
ag148
ag149
ag150
ag151
ag152
ag155
ag24
ag158
ag159
ag160
ag161
ag90
ag91
ag25
ag26
ag163
ag27
ag164
ag165
ag29
ag30
ag80
ag167
ag168
ag93
ag31
ag169
ag170
ag174
ag32
ag94
ag176
ag177
ag178
ag179
ag180
ag181
ag182
ag57
ag183
ag185
ag95
ag188
ag190
ag191
ag192
ag193
ag194
ag96
asS'pseumacr'
p1413
(lp1414
sS'quermacr'
p1415
(lp1416
g73
ag109
ag110
ag111
ag44
ag113
ag114
ag118
ag123
ag126
ag127
ag47
ag48
ag129
ag49
ag134
ag51
ag136
ag53
ag89
ag140
ag141
ag76
ag143
ag144
ag146
ag150
ag151
ag152
ag153
ag77
ag79
ag154
ag155
ag163
ag166
ag80
ag168
ag93
ag387
ag171
ag172
ag174
ag54
ag175
ag94
ag177
ag178
ag55
ag56
ag81
ag179
ag180
ag181
ag182
ag57
ag183
ag82
ag185
ag186
ag187
ag191
ag192
ag193
ag33
asS'querlyra'
p1417
(lp1418
g18
ag112
ag19
ag125
ag20
ag132
ag133
ag135
ag137
ag139
ag140
ag141
ag22
ag142
ag23
ag147
ag24
ag158
ag159
ag25
ag26
ag163
ag27
ag164
ag165
ag29
ag30
ag167
ag168
ag31
ag169
ag170
ag173
ag174
ag32
ag95
ag188
ag190
ag96
ag33
asS'zantfaga'
p1419
(lp1420
g304
ag115
ag306
ag308
ag309
ag49
ag21
ag141
ag247
ag162
ag28
ag315
ag248
ag173
ag175
ag180
ag184
ag321
ag189
ag33
ag249
asS'sererepe'
p1421
(lp1422
sS'querlaev'
p1423
(lp1424
sS'pinulamb'
p1425
(lp1426
sS'crosrhac'
p1427
(lp1428
sS'querelli'
p1429
(lp1430
sS'vauqcali'
p1431
(lp1432
sS'sorbdeco'
p1433
(lp1434
sS'pinuleio'
p1435
(lp1436
sS'fremcali'
p1437
(lp1438
sS'taxubrev'
p1439
(lp1440
sS'asimtril'
p1441
(lp1442
g18
ag19
ag20
ag139
ag23
ag147
ag24
ag158
ag159
ag25
ag29
ag30
ag167
ag31
ag32
ag190
asS'ceanthyr'
p1443
(lp1444
sS'querrugo'
p1445
(lp1446
g62
asS'cappcyno'
p1447
(lp1448
sS'bourradu'
p1449
(lp1450
sS'popufrem'
p1451
(lp1452
g663
asS'junidepp'
p1453
(lp1454
g62
asS'hippmanc'
p1455
(lp1456
sS'gymndioi'
p1457
(lp1458
sS'sophsecu'
p1459
(lp1460
g74
ag62
ag45
ag117
ag120
ag46
ag121
ag655
ag131
ag311
ag6
ag78
ag662
ag315
ag175
ag56
ag57
ag319
ag82
ag7
asS'olneteso'
p1461
(lp1462
sS'styramer'
p1463
(lp1464
g18
ag19
ag20
ag139
ag22
ag23
ag147
ag24
ag158
ag159
ag25
ag26
ag163
ag29
ag30
ag31
ag170
ag32
ag95
asS'chryoliv'
p1465
(lp1466
sS'holaemor'
p1467
(lp1468
sS'leucpulv'
p1469
(lp1470
g306
ag247
ag249
asS'querenge'
p1471
(lp1472
sS'vauqpauc'
p1473
(lp1474
sS'pinustro'
p1475
(lp1476
g62
asS'umbecali'
p1477
(lp1478
sS'querpalu'
p1479
(lp1480
sS'manibaha'
p1481
(lp1482
sS'popugran'
p1483
(lp1484
sS'lysilati'
p1485
(lp1486
sS'halecaro'
p1487
(lp1488
sS'ptelcren'
p1489
(lp1490
sS'libodecu'
p1491
(lp1492
sS'arbutexa'
p1493
(lp1494
g45
ag123
ag53
ag56
ag82
asS'acernigr'
p1495
(lp1496
sS'popuangu'
p1497
(lp1498
sS'quermohr'
p1499
(lp1500
g358
ag62
ag458
ag362
ag364
ag654
ag201
ag224
ag368
ag370
ag75
ag534
ag374
ag459
ag583
ag668
ag225
ag585
ag78
ag387
ag320
ag553
asS'salihook'
p1501
(lp1502
sS'savibaha'
p1503
(lp1504
sS'sapibilo'
p1505
(lp1506
sS'pinutrop'
p1507
(lp1508
sS'pinuquad'
p1509
(lp1510
sS'yuccbrev'
p1511
(lp1512
sS'chiovirg'
p1513
(lp1514
g18
ag19
ag20
ag22
ag23
ag147
ag24
ag159
ag25
ag26
ag92
ag27
ag165
ag29
ag30
ag167
ag31
ag169
ag32
ag190
ag96
asS'salipell'
p1515
(lp1516
sS'sambglau'
p1517
(lp1518
sS'acoewrig'
p1519
(lp1520
sS'schafrut'
p1521
(lp1522
sS'pithungu'
p1523
(lp1524
sS'royselat'
p1525
(lp1526
sS'robineom'
p1527
(lp1528
sS'acerrubr'
p1529
(lp1530
g18
ag112
ag116
ag19
ag124
ag125
ag126
ag20
ag128
ag132
ag133
ag137
ag139
ag22
ag23
ag147
ag24
ag158
ag159
ag25
ag26
ag92
ag27
ag164
ag29
ag30
ag167
ag31
ag170
ag32
ag95
ag188
ag190
ag96
asS'saliamyg'
p1531
(lp1532
g242
ag815
ag816
ag375
ag377
ag244
ag818
ag68
ag663
ag820
asS'sambvelu'
p1533
(lp1534
sS'cerccana'
p1535
(lp1536
g73
ag358
ag18
ag109
ag111
ag112
ag44
ag113
ag114
ag45
ag116
ag118
ag119
ag46
ag19
ag123
ag124
ag125
ag126
ag127
ag47
ag20
ag128
ag48
ag130
ag459
ag132
ag133
ag134
ag135
ag51
ag137
ag52
ag53
ag139
ag89
ag140
ag22
ag142
ag76
ag143
ag23
ag144
ag145
ag6
ag147
ag148
ag149
ag78
ag154
ag155
ag24
ag247
ag158
ag159
ag161
ag90
ag91
ag25
ag26
ag163
ag27
ag164
ag165
ag29
ag166
ag30
ag80
ag167
ag93
ag31
ag169
ag170
ag317
ag32
ag54
ag94
ag176
ag177
ag178
ag55
ag56
ag81
ag179
ag318
ag181
ag57
ag183
ag82
ag185
ag186
ag187
ag95
ag188
ag190
ag191
ag192
ag194
ag553
ag249
asS'colucube'
p1537
(lp1538
sS'vaccarbo'
p1539
(lp1540
g18
ag110
ag112
ag19
ag125
ag20
ag128
ag132
ag133
ag135
ag136
ag137
ag21
ag139
ag89
ag140
ag22
ag142
ag23
ag145
ag146
ag147
ag148
ag150
ag151
ag24
ag158
ag159
ag90
ag91
ag25
ag163
ag27
ag164
ag165
ag29
ag30
ag167
ag168
ag93
ag31
ag169
ag170
ag171
ag32
ag94
ag176
ag178
ag180
ag95
ag188
ag190
asS'larilyal'
p1541
(lp1542
sS'amelsang'
p1543
(lp1544
sS'ilexdeci'
p1545
(lp1546
g18
ag109
ag110
ag111
ag112
ag44
ag115
ag116
ag120
ag19
ag122
ag124
ag125
ag126
ag127
ag47
ag20
ag128
ag48
ag130
ag132
ag133
ag135
ag51
ag136
ag137
ag53
ag139
ag89
ag140
ag22
ag142
ag143
ag23
ag144
ag145
ag146
ag147
ag148
ag149
ag150
ag151
ag152
ag155
ag24
ag158
ag159
ag161
ag90
ag91
ag162
ag25
ag26
ag163
ag27
ag164
ag165
ag29
ag30
ag80
ag167
ag168
ag93
ag31
ag169
ag170
ag171
ag172
ag174
ag32
ag54
ag94
ag176
ag177
ag178
ag55
ag56
ag180
ag181
ag182
ag57
ag183
ag82
ag185
ag95
ag188
ag189
ag190
ag191
ag192
ag193
ag194
asS'cercflor'
p1547
(lp1548
sS'quervirg'
p1549
(lp1550
g107
ag108
ag73
ag358
ag74
ag110
ag458
ag44
ag305
ag113
ag45
ag115
ag117
ag118
ag120
ag46
ag121
ag122
ag123
ag307
ag201
ag366
ag127
ag308
ag47
ag372
ag48
ag129
ag534
ag131
ag374
ag49
ag583
ag310
ag311
ag51
ag136
ag52
ag53
ag21
ag312
ag140
ag141
ag22
ag76
ag225
ag146
ag150
ag669
ag151
ag313
ag152
ag153
ag77
ag79
ag154
ag157
ag160
ag162
ag92
ag28
ag80
ag314
ag93
ag315
ag387
ag248
ag171
ag172
ag317
ag173
ag174
ag54
ag175
ag94
ag177
ag55
ag56
ag81
ag179
ag180
ag389
ag318
ag182
ag57
ag319
ag184
ag82
ag186
ag392
ag189
ag193
ag96
ag33
ag553
asS'quermari'
p1551
(lp1552
g357
ag73
ag18
ag109
ag110
ag111
ag112
ag44
ag113
ag114
ag45
ag115
ag116
ag117
ag118
ag119
ag120
ag46
ag19
ag122
ag123
ag366
ag124
ag125
ag126
ag127
ag47
ag20
ag128
ag372
ag48
ag129
ag130
ag49
ag132
ag50
ag133
ag134
ag135
ag51
ag136
ag137
ag52
ag53
ag138
ag139
ag89
ag140
ag22
ag142
ag76
ag143
ag23
ag144
ag145
ag146
ag147
ag148
ag149
ag150
ag151
ag152
ag153
ag77
ag79
ag154
ag155
ag156
ag24
ag158
ag159
ag160
ag161
ag90
ag91
ag162
ag25
ag26
ag163
ag27
ag164
ag165
ag29
ag166
ag30
ag80
ag167
ag314
ag168
ag93
ag31
ag169
ag387
ag170
ag171
ag172
ag317
ag174
ag32
ag54
ag175
ag94
ag176
ag177
ag178
ag55
ag56
ag81
ag179
ag180
ag389
ag181
ag182
ag57
ag183
ag184
ag82
ag185
ag186
ag392
ag187
ag95
ag188
ag189
ag190
ag191
ag192
ag193
ag194
ag96
ag394
asS'caryglab'
p1553
(lp1554
g112
ag23
asS'pinudura'
p1555
(lp1556
sS'rhuschor'
p1557
(lp1558
sS'byrsluci'
p1559
(lp1560
sS'pinujeff'
p1561
(lp1562
sS'swiemaha'
p1563
(lp1564
sS'querpung'
p1565
(lp1566
g74
ag46
ag534
ag131
ag52
ag312
ag553
asS'pinuculm'
p1567
(lp1568
sS'saliarbu'
p1569
(lp1570
sS'lariocci'
p1571
(lp1572
sS'simaglau'
p1573
(lp1574
sS'pruncaro'
p1575
(lp1576
g44
ag132
ag135
ag140
ag141
ag24
ag25
ag26
ag27
ag165
ag30
ag31
ag169
ag32
asS'prunemar'
p1577
(lp1578
sS'amelutah'
p1579
(lp1580
sS'querturb'
p1581
(lp1582
sS'maluioen'
p1583
(lp1584
g123
ag129
asS'aescocta'
p1585
(lp1586
sS'junicali'
p1587
(lp1588
sS'amelinte'
p1589
(lp1590
sS'parkacul'
p1591
(lp1592
g304
ag247
ag321
asS'calypall'
p1593
(lp1594
sS'ficuaure'
p1595
(lp1596
sS'carpcaro'
p1597
(lp1598
g18
ag112
ag19
ag124
ag125
ag20
ag128
ag132
ag133
ag135
ag137
ag139
ag22
ag23
ag147
ag24
ag158
ag159
ag90
ag91
ag25
ag26
ag27
ag164
ag29
ag30
ag167
ag31
ag169
ag170
ag32
ag95
ag188
ag190
asS'poputric'
p1599
(lp1600
sS'juglcine'
p1601
(lp1602
sS'tilicaro'
p1603
(lp1604
g18
ag45
ag46
ag19
ag121
ag123
ag20
ag132
ag135
ag137
ag53
ag139
ag89
ag142
ag23
ag147
ag148
ag24
ag159
ag161
ag25
ag163
ag27
ag164
ag165
ag29
ag30
ag167
ag31
ag169
ag32
ag82
ag95
ag190
ag33
asS'querogle'
p1605
(lp1606
sS'junimono'
p1607
(lp1608
g62
ag376
ag68
asS'caryaqua'
p1609
(lp1610
g18
ag112
ag116
ag19
ag125
ag20
ag128
ag132
ag133
ag135
ag137
ag139
ag89
ag22
ag23
ag147
ag24
ag158
ag159
ag25
ag26
ag163
ag27
ag164
ag29
ag30
ag31
ag169
ag170
ag32
ag55
ag95
ag188
ag190
asa(dp1611
g578
(lp1612
g576
ag881
asg376
(lp1613
g354
ag665
ag811
ag1089
ag1343
ag1607
asg127
(lp1614
g105
ag199
ag222
ag302
ag981
ag354
ag476
ag482
ag1209
ag516
ag530
ag541
ag543
ag696
ag701
ag779
ag1257
ag250
ag837
ag847
ag849
ag881
ag899
ag929
ag985
ag1013
ag1027
ag1089
ag1135
ag1189
ag1545
ag1271
ag1305
ag1267
ag1411
ag1415
ag1535
ag1549
ag1551
asg658
(lp1615
g652
ag665
ag881
ag1227
ag1351
asg67
(lp1616
g65
ag665
ag881
ag1373
asg177
(lp1617
g105
ag199
ag222
ag354
ag482
ag1209
ag516
ag532
ag541
ag665
ag678
ag696
ag701
ag769
ag779
ag1257
ag827
ag841
ag847
ag849
ag899
ag929
ag985
ag1013
ag1027
ag1043
ag1081
ag1089
ag1135
ag1189
ag1545
ag1271
ag1305
ag1267
ag1411
ag1415
ag290
ag1535
ag1549
ag1551
asg24
(lp1618
g16
ag105
ag199
ag1417
ag222
ag228
ag245
ag981
ag354
ag414
ag430
ag440
ag464
ag476
ag482
ag492
ag600
ag522
ag530
ag543
ag642
ag696
ag701
ag719
ag1463
ag1229
ag616
ag779
ag1257
ag829
ag831
ag250
ag847
ag849
ag899
ag909
ag929
ag935
ag963
ag983
ag985
ag993
ag1013
ag1015
ag1027
ag1035
ag1037
ag1049
ag1089
ag1111
ag1123
ag1135
ag1395
ag1179
ag1189
ag1225
ag598
ag1237
ag1545
ag727
ag1249
ag1255
ag1321
ag1271
ag1305
ag1221
ag1267
ag1323
ag1339
ag1381
ag266
ag1411
ag290
ag933
ag1441
ag606
ag767
ag1025
ag1513
ag1529
ag1031
ag1535
ag1539
ag1551
ag1575
ag709
ag1597
ag1603
ag1609
asg129
(lp1619
g105
ag302
ag482
ag1209
ag522
ag532
ag541
ag665
ag696
ag1257
ag827
ag837
ag847
ag881
ag1013
ag1027
ag1029
ag1043
ag1081
ag1147
ag1163
ag1321
ag454
ag1271
ag1583
ag1415
ag1549
ag1551
asg73
(lp1620
g71
ag105
ag354
ag482
ag1209
ag541
ag576
ag665
ag696
ag701
ag769
ag779
ag847
ag881
ag929
ag985
ag1013
ag1027
ag1043
ag1089
ag1147
ag1189
ag454
ag1271
ag1267
ag1415
ag1535
ag1549
ag1551
asg181
(lp1621
g105
ag199
ag222
ag354
ag470
ag482
ag1209
ag516
ag541
ag502
ag665
ag678
ag696
ag701
ag769
ag779
ag1257
ag827
ag250
ag847
ag849
ag881
ag899
ag929
ag963
ag985
ag1013
ag1027
ag1081
ag1089
ag1135
ag1189
ag1545
ag1321
ag1271
ag1305
ag1267
ag1411
ag1415
ag290
ag606
ag1535
ag1551
asg308
(lp1622
g1399
ag973
ag302
ag336
ag1209
ag787
ag857
ag881
ag1027
ag1029
ag1057
ag1083
ag1099
ag1143
ag630
ag1293
ag1297
ag1351
ag1397
ag1419
ag1549
ag1353
asg579
(lp1623
g576
ag881
ag1163
asg357
(lp1624
g354
ag1209
ag665
ag881
ag929
ag1013
ag1027
ag1089
ag1189
ag1271
ag1343
ag1551
asg818
(lp1625
g811
ag1531
asg48
(lp1626
g42
ag105
ag354
ag482
ag1209
ag522
ag532
ag541
ag576
ag665
ag678
ag701
ag769
ag1257
ag847
ag881
ag929
ag985
ag1013
ag1027
ag1043
ag1089
ag1147
ag1189
ag1545
ag1271
ag1267
ag1415
ag1535
ag1549
ag1551
asg662
(lp1627
g652
ag881
ag1227
ag1351
ag1459
ag1373
asg698
(lp1628
g696
ag811
ag881
ag1271
asg374
(lp1629
g354
ag456
ag665
ag881
ag929
ag1013
ag1027
ag1099
ag1147
ag1189
ag1227
ag1271
ag1351
ag1343
ag1499
ag1549
asg33
(lp1630
g16
ag105
ag1417
ag245
ag354
ag530
ag541
ag543
ag665
ag701
ag1229
ag1257
ag847
ag963
ag993
ag1027
ag1043
ag1049
ag1143
ag1255
ag1271
ag1287
ag1267
ag266
ag1415
ag1419
ag1549
ag1349
ag1603
asg162
(lp1631
g105
ag1399
ag973
ag302
ag1209
ag543
ag857
ag881
ag1027
ag1029
ag1057
ag1083
ag1143
ag630
ag1545
ag1271
ag1351
ag1419
ag1549
ag1551
asg573
(lp1632
g570
asg111
(lp1633
g105
ag222
ag354
ag482
ag1209
ag532
ag541
ag665
ag678
ag696
ag701
ag769
ag779
ag1257
ag847
ag881
ag929
ag985
ag1013
ag1027
ag1043
ag1081
ag1089
ag1135
ag1147
ag1189
ag1545
ag1271
ag1267
ag1411
ag1415
ag1535
ag1551
asg26
(lp1634
g16
ag105
ag199
ag1417
ag222
ag245
ag981
ag354
ag430
ag440
ag464
ag476
ag482
ag600
ag522
ag530
ag543
ag642
ag696
ag701
ag719
ag1463
ag1229
ag779
ag1257
ag829
ag847
ag849
ag909
ag929
ag935
ag963
ag993
ag1013
ag1027
ag1035
ag1037
ag1043
ag1049
ag1089
ag1111
ag1123
ag1179
ag1189
ag1225
ag1545
ag1249
ag1255
ag1321
ag1271
ag1287
ag1299
ag1221
ag1267
ag1323
ag266
ag1411
ag290
ag933
ag606
ag1025
ag1513
ag1529
ag1031
ag1535
ag1551
ag1575
ag1597
ag1609
asg817
(lp1635
g811
ag881
ag1373
asg178
(lp1636
g105
ag199
ag222
ag981
ag354
ag476
ag482
ag1209
ag516
ag541
ag502
ag696
ag701
ag769
ag779
ag1257
ag250
ag837
ag847
ag849
ag881
ag899
ag929
ag985
ag1013
ag1027
ag1037
ag1089
ag1135
ag1395
ag1189
ag1237
ag1545
ag1271
ag1305
ag1267
ag1411
ag1415
ag290
ag1031
ag1535
ag1539
ag1551
asg134
(lp1637
g105
ag354
ag482
ag1209
ag541
ag665
ag701
ag769
ag779
ag847
ag881
ag929
ag985
ag1013
ag1027
ag1089
ag1135
ag1147
ag1189
ag1271
ag1267
ag1415
ag1535
ag1551
asg304
(lp1638
g1399
ag973
ag302
ag336
ag338
ag1209
ag787
ag857
ag881
ag1027
ag1029
ag1057
ag1083
ag1099
ag1143
ag630
ag1281
ag1293
ag1297
ag1351
ag1397
ag1419
ag1353
ag1591
asg184
(lp1639
g105
ag1399
ag245
ag302
ag354
ag1209
ag541
ag543
ag665
ag847
ag857
ag877
ag881
ag963
ag1027
ag1057
ag1143
ag1271
ag1305
ag1419
ag1549
ag1551
asg165
(lp1640
g105
ag199
ag1417
ag245
ag981
ag354
ag464
ag482
ag1209
ag492
ag530
ag541
ag543
ag642
ag665
ag696
ag701
ag779
ag1257
ag847
ag929
ag935
ag963
ag985
ag993
ag1013
ag1027
ag1035
ag1049
ag1089
ag1123
ag1189
ag1545
ag1255
ag1321
ag1271
ag1305
ag1267
ag1323
ag266
ag1411
ag933
ag1025
ag1513
ag1535
ag1539
ag1551
ag1575
ag1603
asg130
(lp1641
g105
ag199
ag222
ag354
ag476
ag482
ag1209
ag516
ag530
ag678
ag696
ag701
ag769
ag779
ag1257
ag827
ag837
ag847
ag849
ag899
ag929
ag963
ag985
ag1013
ag1027
ag1037
ag1081
ag1135
ag1189
ag1545
ag1321
ag1271
ag1305
ag1267
ag1411
ag290
ag606
ag1031
ag1535
ag1551
asg368
(lp1642
g354
ag456
ag576
ag665
ag811
ag881
ag1013
ag1089
ag1189
ag1271
ag1343
ag1499
ag1373
asg136
(lp1643
g105
ag222
ag245
ag354
ag1209
ag516
ag530
ag541
ag543
ag665
ag696
ag701
ag779
ag831
ag250
ag837
ag847
ag881
ag899
ag929
ag963
ag1013
ag1027
ag1029
ag1057
ag1395
ag1179
ag1189
ag1545
ag1271
ag1305
ag1267
ag1411
ag1415
ag1539
ag1549
ag1551
asg367
(lp1644
g354
ag665
ag881
ag1013
ag1089
ag1189
ag1271
ag1343
ag1373
asg185
(lp1645
g105
ag222
ag354
ag482
ag1209
ag516
ag532
ag541
ag665
ag678
ag696
ag701
ag769
ag779
ag1257
ag827
ag250
ag847
ag881
ag899
ag929
ag985
ag1013
ag1027
ag1081
ag1089
ag1135
ag1189
ag1545
ag1271
ag1305
ag1267
ag1411
ag1415
ag1535
ag1551
asg186
(lp1646
g105
ag354
ag482
ag1209
ag522
ag532
ag541
ag576
ag665
ag701
ag1257
ag847
ag881
ag929
ag985
ag1013
ag1027
ag1043
ag1089
ag1147
ag1189
ag1271
ag1415
ag1535
ag1549
ag1551
asg156
(lp1647
g105
ag354
ag1209
ag665
ag701
ag847
ag881
ag929
ag985
ag1013
ag1027
ag1089
ag1135
ag1189
ag1271
ag1267
ag1551
asg153
(lp1648
g105
ag302
ag482
ag522
ag532
ag541
ag665
ag779
ag1257
ag827
ag837
ag881
ag929
ag985
ag1013
ag1027
ag1029
ag1043
ag1081
ag1089
ag1147
ag1163
ag1321
ag1271
ag1415
ag1549
ag1551
asg387
(lp1649
g354
ag482
ag665
ag881
ag1013
ag1027
ag1043
ag1081
ag1089
ag1099
ag1147
ag1189
ag1271
ag1343
ag1415
ag1499
ag1549
ag1551
asg382
(lp1650
g354
ag541
ag576
ag665
ag678
ag696
ag811
ag847
ag1027
ag1089
ag1305
ag1343
asg107
(lp1651
g105
ag1399
ag302
ag336
ag1209
ag857
ag881
ag1027
ag1029
ag1057
ag1083
ag1099
ag1143
ag1321
ag1271
ag1351
ag1411
ag1549
asg154
(lp1652
g105
ag354
ag456
ag482
ag1209
ag541
ag665
ag678
ag696
ag701
ag769
ag1257
ag847
ag881
ag929
ag985
ag1013
ag1027
ag1043
ag1089
ag1147
ag1189
ag1271
ag1415
ag1535
ag1549
ag1551
asg391
(lp1653
g354
ag665
ag881
ag1013
ag1089
ag1189
ag1271
ag1343
asg139
(lp1654
g105
ag199
ag1417
ag222
ag981
ag354
ag414
ag430
ag464
ag476
ag482
ag1209
ag492
ag530
ag642
ag678
ag696
ag701
ag1463
ag1229
ag779
ag1257
ag831
ag250
ag837
ag847
ag849
ag899
ag909
ag929
ag963
ag985
ag993
ag1013
ag1027
ag1035
ag1037
ag1049
ag1081
ag1089
ag1111
ag1123
ag1135
ag1395
ag1179
ag1189
ag598
ag1545
ag1249
ag1255
ag1321
ag1271
ag1305
ag1221
ag1267
ag1323
ag266
ag1411
ag290
ag933
ag1441
ag606
ag1025
ag1529
ag1031
ag1535
ag1539
ag1551
ag1597
ag1603
ag1609
asg394
(lp1655
g354
ag665
ag881
ag1013
ag1027
ag1043
ag1089
ag1189
ag1271
ag1343
ag1551
asg369
(lp1656
g354
ag576
ag665
ag811
ag1089
ag1343
asg22
(lp1657
g16
ag87
ag105
ag1417
ag222
ag245
ag981
ag354
ag430
ag440
ag464
ag482
ag600
ag530
ag543
ag701
ag719
ag1463
ag745
ag1229
ag779
ag829
ag250
ag847
ag849
ag929
ag935
ag963
ag983
ag993
ag1027
ag1049
ag1395
ag1179
ag1189
ag598
ag1545
ag1249
ag1255
ag1271
ag1287
ag1267
ag1323
ag1379
ag1381
ag266
ag1411
ag290
ag933
ag1025
ag1513
ag1529
ag1031
ag1535
ag1539
ag1549
ag1551
ag709
ag1597
ag1609
asg29
(lp1658
g16
ag105
ag199
ag1417
ag222
ag981
ag354
ag414
ag428
ag430
ag464
ag476
ag482
ag492
ag600
ag522
ag530
ag642
ag696
ag701
ag1463
ag1229
ag777
ag779
ag1257
ag791
ag829
ag831
ag250
ag837
ag847
ag849
ag899
ag909
ag929
ag963
ag993
ag1013
ag1015
ag1027
ag1035
ag1037
ag1049
ag1089
ag1111
ag1123
ag1135
ag1395
ag1179
ag1189
ag598
ag1237
ag1545
ag1249
ag1255
ag1321
ag1271
ag1305
ag1221
ag1267
ag1323
ag1381
ag266
ag1411
ag290
ag933
ag1441
ag606
ag767
ag1025
ag1513
ag1529
ag1031
ag1535
ag1539
ag1551
ag1597
ag1603
ag1609
asg884
(lp1659
g881
ag1373
asg886
(lp1660
g881
asg247
(lp1661
g1399
ag245
ag973
ag302
ag336
ag338
ag1137
ag1209
ag665
ag686
ag787
ag811
ag847
ag857
ag877
ag881
ag1261
ag1027
ag1057
ag1099
ag1143
ag1181
ag630
ag1281
ag1293
ag1297
ag1305
ag1351
ag1397
ag1419
ag1469
ag1535
ag1353
ag1591
asg171
(lp1662
g105
ag245
ag354
ag1209
ag541
ag543
ag665
ag696
ag701
ag847
ag877
ag881
ag963
ag1013
ag1027
ag1043
ag1057
ag1179
ag1189
ag1545
ag1271
ag1305
ag1267
ag1379
ag1415
ag1539
ag1549
ag1551
asg390
(lp1663
g354
ag456
ag576
ag665
ag881
ag1027
ag1089
ag1189
ag1271
ag1343
ag1373
asg47
(lp1664
g42
ag105
ag354
ag482
ag1209
ag522
ag532
ag541
ag665
ag678
ag701
ag769
ag1257
ag827
ag847
ag881
ag929
ag985
ag1013
ag1027
ag1043
ag1081
ag1089
ag1147
ag1189
ag1545
ag1271
ag1305
ag1267
ag1415
ag1535
ag1549
ag1551
asg138
(lp1665
g105
ag354
ag1209
ag665
ag701
ag841
ag847
ag881
ag929
ag1013
ag1027
ag1089
ag1135
ag1189
ag1271
ag1267
ag1551
asg81
(lp1666
g71
ag105
ag220
ag354
ag482
ag1209
ag522
ag532
ag541
ag576
ag665
ag701
ag1257
ag827
ag841
ag847
ag881
ag929
ag985
ag1013
ag1027
ag1043
ag1081
ag1089
ag1147
ag1189
ag1271
ag1267
ag1415
ag1535
ag1549
ag1551
asg112
(lp1667
g105
ag199
ag1417
ag222
ag981
ag354
ag464
ag476
ag482
ag1209
ag516
ag530
ag642
ag502
ag678
ag696
ag701
ag1553
ag769
ag779
ag1257
ag827
ag831
ag837
ag847
ag849
ag899
ag929
ag993
ag1013
ag1027
ag1037
ag1049
ag1081
ag1135
ag1395
ag1189
ag1545
ag1249
ag1255
ag1321
ag1271
ag1305
ag1267
ag1323
ag1379
ag1411
ag290
ag933
ag606
ag1025
ag1529
ag1031
ag1535
ag1539
ag1551
ag1597
ag1609
asg132
(lp1668
g105
ag199
ag1417
ag222
ag981
ag354
ag414
ag430
ag464
ag476
ag482
ag1209
ag492
ag522
ag530
ag642
ag678
ag696
ag701
ag779
ag1257
ag831
ag250
ag837
ag847
ag849
ag899
ag909
ag929
ag963
ag985
ag993
ag1013
ag1027
ag1035
ag1037
ag1049
ag1081
ag1089
ag1111
ag1123
ag1135
ag1395
ag1179
ag1189
ag598
ag1545
ag1249
ag1255
ag1321
ag1271
ag1305
ag1267
ag1323
ag1411
ag290
ag933
ag606
ag1025
ag1529
ag1031
ag1535
ag1539
ag1551
ag1575
ag1597
ag1603
ag1609
asg392
(lp1669
g354
ag456
ag482
ag665
ag881
ag929
ag1013
ag1027
ag1099
ag1147
ag1189
ag1227
ag1271
ag1351
ag1343
ag1549
ag1551
asg141
(lp1670
g105
ag1417
ag245
ag354
ag530
ag541
ag543
ag665
ag701
ag811
ag847
ag963
ag1013
ag1027
ag1043
ag1049
ag1057
ag1143
ag1271
ag1293
ag1267
ag1415
ag1419
ag1549
ag1575
asg657
(lp1671
g652
ag881
ag1227
ag1351
ag1373
asg372
(lp1672
g354
ag482
ag665
ag678
ag701
ag881
ag929
ag1013
ag1027
ag1043
ag1089
ag1189
ag1271
ag1549
ag1551
asg820
(lp1673
g811
ag881
ag1271
ag1343
ag1531
asg385
(lp1674
g354
ag576
ag665
ag811
ag881
ag1013
ag1089
ag1271
ag1343
ag1373
asg92
(lp1675
g87
ag105
ag245
ag981
ag440
ag543
ag701
ag745
ag1229
ag791
ag847
ag935
ag963
ag1027
ag1049
ag1237
ag1277
ag1323
ag1339
ag1379
ag290
ag1513
ag1529
ag1549
ag1349
ag709
asg585
(lp1676
g576
ag665
ag881
ag1013
ag1343
ag1499
asg158
(lp1677
g105
ag199
ag1417
ag222
ag981
ag354
ag414
ag430
ag464
ag476
ag482
ag1209
ag530
ag642
ag678
ag696
ag701
ag1463
ag769
ag779
ag1257
ag831
ag837
ag847
ag849
ag899
ag909
ag929
ag963
ag985
ag993
ag1013
ag1015
ag1027
ag1035
ag1037
ag1049
ag1081
ag1109
ag1111
ag1123
ag1135
ag1395
ag1179
ag1189
ag598
ag1545
ag1249
ag1255
ag1321
ag1271
ag1305
ag1267
ag1323
ag266
ag1411
ag290
ag933
ag1441
ag606
ag1025
ag1529
ag1031
ag1535
ag1539
ag1551
ag1597
ag1609
asg109
(lp1678
g105
ag199
ag222
ag354
ag482
ag1209
ag516
ag532
ag541
ag665
ag678
ag696
ag701
ag769
ag779
ag1257
ag827
ag847
ag849
ag881
ag899
ag929
ag985
ag1013
ag1027
ag1081
ag1089
ag1135
ag1189
ag1545
ag1321
ag1271
ag1305
ag1267
ag1411
ag1415
ag290
ag1535
ag1551
asg191
(lp1679
g105
ag222
ag981
ag354
ag482
ag1209
ag516
ag502
ag696
ag701
ag769
ag779
ag1257
ag827
ag250
ag837
ag847
ag881
ag899
ag929
ag985
ag1013
ag1027
ag1089
ag1135
ag1189
ag1545
ag1271
ag1305
ag1267
ag1411
ag1415
ag1535
ag1551
asg362
(lp1680
g354
ag576
ag665
ag811
ag881
ag1013
ag1089
ag1189
ag1271
ag1343
ag1499
asg32
(lp1681
g16
ag105
ag199
ag1417
ag222
ag228
ag245
ag981
ag354
ag414
ag430
ag464
ag476
ag482
ag492
ag600
ag530
ag543
ag642
ag678
ag696
ag701
ag719
ag1463
ag1229
ag616
ag779
ag1257
ag829
ag831
ag250
ag837
ag847
ag849
ag899
ag909
ag929
ag963
ag983
ag985
ag993
ag1013
ag1015
ag1027
ag1037
ag1049
ag1089
ag1111
ag1123
ag1135
ag1395
ag1179
ag1189
ag598
ag1545
ag727
ag1249
ag1255
ag1321
ag1271
ag1305
ag1221
ag1267
ag1323
ag1379
ag1381
ag266
ag1411
ag290
ag933
ag1441
ag606
ag1025
ag1513
ag1529
ag1031
ag1535
ag1539
ag1551
ag1575
ag709
ag1597
ag1603
ag1609
asg383
(lp1682
g354
ag456
ag665
ag881
ag1013
ag1089
ag1189
ag1227
ag1271
ag1343
asg76
(lp1683
g71
ag105
ag302
ag354
ag482
ag1209
ag522
ag532
ag541
ag665
ag696
ag701
ag1257
ag827
ag847
ag881
ag929
ag985
ag1013
ag1027
ag1029
ag1043
ag1081
ag1089
ag1147
ag1189
ag1321
ag1271
ag1267
ag1415
ag290
ag1535
ag1549
ag1551
asg31
(lp1684
g16
ag105
ag199
ag1417
ag222
ag228
ag245
ag981
ag354
ag414
ag430
ag440
ag464
ag476
ag482
ag600
ag530
ag543
ag642
ag696
ag701
ag719
ag1463
ag745
ag1229
ag616
ag779
ag1257
ag829
ag831
ag250
ag847
ag849
ag909
ag929
ag935
ag963
ag983
ag985
ag993
ag1013
ag1027
ag1035
ag1037
ag1049
ag1111
ag1123
ag1395
ag1179
ag1189
ag1225
ag598
ag1237
ag1545
ag727
ag1249
ag1255
ag1321
ag1271
ag1221
ag1267
ag1323
ag1339
ag1379
ag1381
ag266
ag1411
ag290
ag933
ag1441
ag606
ag767
ag1025
ag1513
ag1529
ag1031
ag1535
ag1539
ag1551
ag1575
ag709
ag1597
ag1603
ag1609
asg358
(lp1685
g354
ag576
ag665
ag881
ag1013
ag1027
ag1043
ag1189
ag1343
ag1499
ag1535
ag1549
asg113
(lp1686
g105
ag354
ag456
ag482
ag1209
ag522
ag541
ag665
ag678
ag701
ag1257
ag847
ag881
ag929
ag985
ag1013
ag1027
ag1043
ag1089
ag1147
ag1189
ag1271
ag1415
ag1535
ag1549
ag1551
asg361
(lp1687
g354
ag576
ag665
ag811
ag881
ag1089
ag1343
asg175
(lp1688
g105
ag245
ag354
ag1209
ag530
ag541
ag543
ag665
ag701
ag719
ag841
ag847
ag857
ag877
ag881
ag963
ag1027
ag1043
ag1049
ag1057
ag1143
ag1271
ag1293
ag1267
ag1415
ag1419
ag1459
ag1549
ag1551
asg888
(lp1689
g881
ag1373
asg68
(lp1690
g65
ag240
ag354
ag456
ag576
ag665
ag811
ag847
ag881
ag1089
ag1343
ag1531
ag1607
asg192
(lp1691
g105
ag222
ag354
ag482
ag1209
ag516
ag541
ag678
ag696
ag701
ag769
ag779
ag1257
ag827
ag250
ag847
ag881
ag899
ag929
ag985
ag1013
ag1027
ag1081
ag1089
ag1135
ag1189
ag1545
ag1271
ag1305
ag1267
ag1411
ag1415
ag1535
ag1551
asg56
(lp1692
g42
ag71
ag105
ag302
ag340
ag354
ag456
ag482
ag1209
ag516
ag1493
ag522
ag532
ag541
ag665
ag696
ag701
ag769
ag1257
ag827
ag831
ag847
ag869
ag881
ag899
ag929
ag1013
ag1027
ag1029
ag1043
ag1057
ag1147
ag1163
ag1179
ag1189
ag1545
ag1321
ag1271
ag1267
ag1343
ag1415
ag1459
ag1535
ag1549
ag1551
asg814
(lp1693
g811
ag881
asg306
(lp1694
g1399
ag973
ag302
ag336
ag338
ag1137
ag1209
ag665
ag787
ag857
ag881
ag1027
ag1029
ag1057
ag1083
ag1099
ag1143
ag630
ag1281
ag1293
ag1297
ag1351
ag1397
ag1419
ag1469
ag1353
asg580
(lp1695
g576
ag881
ag1373
asg89
(lp1696
g87
ag105
ag199
ag222
ag302
ag981
ag354
ag464
ag476
ag482
ag1209
ag516
ag530
ag541
ag543
ag678
ag696
ag701
ag779
ag1257
ag250
ag837
ag847
ag849
ag881
ag899
ag929
ag963
ag985
ag1013
ag1027
ag1037
ag1049
ag1089
ag1135
ag1395
ag1147
ag1189
ag1545
ag1255
ag1321
ag1271
ag1287
ag1305
ag1267
ag1323
ag1411
ag1415
ag290
ag933
ag606
ag1031
ag1535
ag1539
ag1551
ag1603
ag1609
asg93
(lp1697
g87
ag105
ag199
ag222
ag981
ag354
ag482
ag1209
ag516
ag522
ag530
ag541
ag543
ag678
ag696
ag701
ag779
ag1257
ag831
ag250
ag837
ag847
ag849
ag881
ag899
ag929
ag963
ag985
ag1013
ag1027
ag1089
ag1135
ag1395
ag1179
ag1189
ag1545
ag1271
ag1305
ag1267
ag1411
ag1415
ag606
ag1535
ag1539
ag1549
ag1551
asg25
(lp1698
g16
ag105
ag199
ag1417
ag222
ag228
ag245
ag981
ag354
ag414
ag430
ag440
ag464
ag476
ag482
ag492
ag600
ag522
ag530
ag543
ag642
ag696
ag701
ag719
ag1463
ag1229
ag616
ag777
ag779
ag1257
ag829
ag831
ag250
ag847
ag849
ag899
ag909
ag929
ag935
ag963
ag983
ag985
ag993
ag1013
ag1015
ag1027
ag1035
ag1037
ag1049
ag1089
ag1111
ag1123
ag1135
ag1395
ag1147
ag1179
ag1189
ag1225
ag598
ag1237
ag1545
ag727
ag1249
ag1255
ag1321
ag1271
ag1299
ag1305
ag1221
ag1267
ag1323
ag1339
ag1381
ag266
ag1411
ag290
ag933
ag1441
ag606
ag767
ag1025
ag1513
ag1529
ag1031
ag1535
ag1539
ag1551
ag1575
ag709
ag1597
ag1603
ag1609
asg389
(lp1699
g354
ag665
ag881
ag929
ag1013
ag1027
ag1089
ag1189
ag1271
ag1549
ag1551
asg18
(lp1700
g16
ag105
ag199
ag1417
ag222
ag981
ag354
ag414
ag430
ag464
ag476
ag482
ag1209
ag492
ag600
ag522
ag530
ag642
ag678
ag696
ag701
ag1463
ag745
ag1229
ag777
ag779
ag1257
ag831
ag250
ag837
ag847
ag849
ag899
ag909
ag929
ag963
ag985
ag993
ag1013
ag1015
ag1027
ag1035
ag1037
ag1049
ag1089
ag1111
ag1123
ag1135
ag1395
ag1179
ag1189
ag598
ag1545
ag1249
ag1255
ag1321
ag1271
ag1287
ag1305
ag1221
ag1267
ag1323
ag1381
ag266
ag1411
ag290
ag933
ag1441
ag606
ag1025
ag1513
ag1529
ag1031
ag1535
ag1539
ag1551
ag1597
ag1603
ag1609
asg53
(lp1701
g42
ag105
ag302
ag340
ag354
ag482
ag1209
ag516
ag1493
ag522
ag532
ag541
ag590
ag618
ag665
ag696
ag701
ag769
ag1257
ag827
ag831
ag847
ag881
ag963
ag1013
ag1027
ag1029
ag1043
ag1147
ag1163
ag1179
ag1189
ag1215
ag1227
ag1545
ag1321
ag454
ag1271
ag1343
ag1415
ag1535
ag1549
ag1551
ag1603
asg188
(lp1702
g105
ag199
ag1417
ag222
ag981
ag354
ag414
ag428
ag430
ag464
ag476
ag482
ag1209
ag522
ag530
ag642
ag678
ag696
ag701
ag745
ag769
ag779
ag1257
ag831
ag837
ag847
ag849
ag899
ag909
ag929
ag963
ag985
ag993
ag1013
ag1027
ag1037
ag1049
ag1081
ag1111
ag1135
ag1395
ag1179
ag1189
ag598
ag1545
ag1249
ag1255
ag1321
ag1271
ag1305
ag1267
ag1323
ag1379
ag1411
ag290
ag933
ag606
ag1025
ag1529
ag1031
ag1535
ag1539
ag1551
ag1597
ag1609
asg380
(lp1703
g354
ag576
ag665
ag881
ag1013
ag1089
ag1189
ag1271
ag1343
ag1373
asg50
(lp1704
g42
ag105
ag354
ag482
ag1209
ag665
ag701
ag779
ag881
ag929
ag985
ag1013
ag1027
ag1043
ag1089
ag1147
ag1189
ag1271
ag1267
ag1551
asg813
(lp1705
g811
ag881
asg78
(lp1706
g71
ag302
ag336
ag551
ag576
ag652
ag665
ag869
ag881
ag1029
ag1083
ag1163
ag1195
ag1227
ag1331
ag1351
ag1459
ag1499
ag1535
ag1353
asg123
(lp1707
g105
ag302
ag340
ag354
ag482
ag1209
ag516
ag1493
ag522
ag532
ag541
ag665
ag696
ag701
ag779
ag1257
ag827
ag847
ag869
ag881
ag929
ag963
ag1013
ag1027
ag1029
ag1043
ag1081
ag1147
ag1163
ag1179
ag1189
ag1321
ag454
ag1271
ag1583
ag1415
ag1535
ag1549
ag1551
ag1603
asg381
(lp1708
g354
ag665
ag881
ag1013
ag1027
ag1089
ag1189
ag1271
ag1343
asg307
(lp1709
g302
ag665
ag827
ag881
ag1013
ag1027
ag1043
ag1099
ag1147
ag1163
ag1215
ag1227
ag1271
ag1549
asg373
(lp1710
g354
ag665
ag881
ag929
ag1013
ag1027
ag1089
ag1135
ag1189
ag1271
ag1343
asg149
(lp1711
g105
ag199
ag222
ag354
ag482
ag1209
ag516
ag541
ag678
ag696
ag701
ag769
ag779
ag1257
ag827
ag847
ag849
ag899
ag929
ag985
ag1013
ag1027
ag1081
ag1135
ag1189
ag1545
ag1321
ag1271
ag1305
ag1267
ag1411
ag290
ag1535
ag1551
asg147
(lp1712
g105
ag199
ag1417
ag222
ag245
ag981
ag354
ag414
ag430
ag464
ag476
ag482
ag1209
ag492
ag522
ag530
ag642
ag696
ag701
ag1463
ag1229
ag779
ag1257
ag831
ag250
ag837
ag847
ag849
ag899
ag909
ag929
ag963
ag993
ag1013
ag1015
ag1027
ag1035
ag1037
ag1049
ag1089
ag1111
ag1123
ag1135
ag1395
ag1179
ag1189
ag598
ag1545
ag1249
ag1255
ag1321
ag1271
ag1305
ag1221
ag1267
ag1323
ag266
ag1411
ag290
ag933
ag1441
ag606
ag1025
ag1513
ag1529
ag1031
ag1535
ag1539
ag1551
ag1597
ag1603
ag1609
asg815
(lp1713
g811
ag881
ag1089
ag1343
ag1531
asg117
(lp1714
g105
ag1399
ag302
ag336
ag354
ag1209
ag541
ag877
ag881
ag1027
ag1029
ag1043
ag1057
ag1083
ag1163
ag1189
ag1215
ag1227
ag1321
ag1271
ag1351
ag1343
ag1459
ag1549
ag1551
asg224
(lp1715
g222
ag354
ag576
ag678
ag811
ag1089
ag1147
ag1343
ag1499
asg135
(lp1716
g105
ag199
ag1417
ag222
ag245
ag981
ag354
ag430
ag464
ag476
ag482
ag1209
ag492
ag600
ag530
ag543
ag642
ag665
ag676
ag696
ag701
ag779
ag1257
ag829
ag831
ag250
ag837
ag847
ag849
ag899
ag909
ag929
ag935
ag963
ag983
ag985
ag993
ag1013
ag1027
ag1035
ag1037
ag1049
ag1089
ag1111
ag1123
ag1135
ag1179
ag1189
ag1545
ag1249
ag1255
ag1321
ag1271
ag1305
ag1267
ag1323
ag266
ag1411
ag290
ag933
ag606
ag1025
ag1031
ag1535
ag1539
ag1551
ag1575
ag1597
ag1603
ag1609
asg314
(lp1717
g302
ag482
ag576
ag665
ag827
ag881
ag1013
ag1027
ag1043
ag1147
ag1227
ag1271
ag1351
ag1549
ag1551
asg126
(lp1718
g105
ag199
ag222
ag354
ag476
ag482
ag1209
ag516
ag530
ag678
ag696
ag701
ag769
ag779
ag1257
ag827
ag831
ag837
ag847
ag849
ag899
ag929
ag985
ag993
ag1013
ag1027
ag1037
ag1049
ag1081
ag1135
ag1395
ag1189
ag1545
ag1249
ag1255
ag1321
ag1271
ag1305
ag1267
ag1411
ag1415
ag290
ag933
ag606
ag1529
ag1031
ag1535
ag1551
asg114
(lp1719
g105
ag222
ag354
ag482
ag1209
ag532
ag541
ag665
ag701
ag769
ag779
ag847
ag881
ag929
ag1013
ag1027
ag1081
ag1089
ag1135
ag1189
ag1271
ag1305
ag1267
ag1415
ag1535
ag1551
asg96
(lp1720
g87
ag105
ag1417
ag222
ag245
ag430
ag464
ag482
ag543
ag701
ag779
ag847
ag849
ag963
ag1013
ag1027
ag1049
ag1225
ag1271
ag1379
ag266
ag1411
ag767
ag1513
ag1529
ag1549
ag1551
ag1349
asg174
(lp1721
g105
ag1417
ag245
ag354
ag482
ag1209
ag530
ag541
ag543
ag665
ag701
ag779
ag831
ag847
ag963
ag985
ag993
ag1013
ag1027
ag1049
ag1083
ag1179
ag1189
ag1545
ag1255
ag1271
ag1305
ag1267
ag266
ag1411
ag1415
ag1549
ag1551
asg77
(lp1722
g71
ag105
ag302
ag482
ag522
ag541
ag665
ag779
ag827
ag881
ag929
ag1013
ag1027
ag1043
ag1147
ag1271
ag1351
ag1415
ag1549
ag1551
asg82
(lp1723
g71
ag105
ag302
ag340
ag354
ag456
ag482
ag1209
ag516
ag1493
ag522
ag532
ag541
ag665
ag696
ag701
ag769
ag1257
ag831
ag869
ag881
ag929
ag1013
ag1027
ag1029
ag1043
ag1057
ag1147
ag1163
ag1179
ag1189
ag1545
ag1321
ag1271
ag1343
ag1415
ag1459
ag1535
ag1549
ag1551
ag1603
asg108
(lp1724
g105
ag1399
ag302
ag336
ag1209
ag652
ag696
ag857
ag881
ag1027
ag1029
ag1057
ag1083
ag1099
ag1143
ag1163
ag1195
ag1271
ag1351
ag1411
ag1549
ag1353
asg190
(lp1725
g105
ag199
ag1417
ag222
ag981
ag354
ag414
ag430
ag464
ag476
ag482
ag1209
ag600
ag530
ag541
ag543
ag642
ag696
ag701
ag616
ag779
ag1257
ag829
ag250
ag837
ag847
ag849
ag899
ag909
ag929
ag963
ag985
ag993
ag1013
ag1027
ag1037
ag1049
ag1089
ag1111
ag1123
ag1135
ag1395
ag1179
ag1189
ag598
ag1237
ag1545
ag1249
ag1255
ag1321
ag1271
ag1305
ag1267
ag1323
ag1379
ag1381
ag1411
ag290
ag933
ag1441
ag606
ag767
ag1025
ag1513
ag1529
ag1031
ag1535
ag1539
ag1551
ag1597
ag1603
ag1609
asg157
(lp1726
g105
ag973
ag302
ag336
ag1209
ag652
ag696
ag869
ag881
ag1027
ag1029
ag1057
ag1083
ag1099
ag1143
ag1163
ag1227
ag1331
ag1351
ag1549
asg384
(lp1727
g354
ag456
ag881
ag1089
ag1343
asg170
(lp1728
g105
ag199
ag1417
ag222
ag981
ag354
ag414
ag464
ag476
ag482
ag1209
ag530
ag642
ag678
ag696
ag701
ag1463
ag769
ag779
ag1257
ag831
ag837
ag847
ag849
ag899
ag909
ag929
ag963
ag985
ag993
ag1013
ag1027
ag1037
ag1049
ag1081
ag1111
ag1135
ag1395
ag1179
ag1189
ag1225
ag1545
ag1249
ag1255
ag1321
ag1271
ag1305
ag1267
ag1323
ag1411
ag290
ag933
ag606
ag1025
ag1529
ag1031
ag1535
ag1539
ag1551
ag1597
ag1609
asg393
(lp1729
g354
ag811
ag1089
ag1343
asg120
(lp1730
g105
ag1399
ag222
ag302
ag336
ag340
ag354
ag456
ag482
ag1209
ag532
ag541
ag665
ag701
ag779
ag831
ag877
ag881
ag1013
ag1027
ag1029
ag1057
ag1083
ag1099
ag1143
ag1147
ag1163
ag1179
ag1189
ag1545
ag1321
ag1271
ag1305
ag1351
ag1411
ag1459
ag1549
ag1551
asg664
(lp1731
g652
ag665
ag881
ag1195
ag1351
asg319
(lp1732
g973
ag302
ag336
ag551
ag576
ag652
ag665
ag694
ag696
ag881
ag1027
ag1029
ag1033
ag1083
ag1099
ag1143
ag1163
ag1195
ag1227
ag1331
ag1351
ag1459
ag1549
asg534
(lp1733
g532
ag665
ag881
ag1027
ag1099
ag1227
ag1351
ag1343
ag1499
ag1549
ag1565
asg360
(lp1734
g354
ag576
ag811
ag881
ag1089
ag1189
ag1227
ag1343
asg889
(lp1735
g881
ag1373
asg166
(lp1736
g105
ag222
ag354
ag470
ag482
ag1209
ag541
ag665
ag701
ag769
ag779
ag1257
ag811
ag827
ag847
ag899
ag929
ag1013
ag1027
ag1043
ag1081
ag1089
ag1135
ag1189
ag1271
ag1305
ag1267
ag1343
ag1415
ag1535
ag1551
asg119
(lp1737
g105
ag222
ag354
ag482
ag1209
ag665
ag701
ag769
ag779
ag1257
ag847
ag881
ag929
ag1013
ag1027
ag1081
ag1089
ag1135
ag1189
ag1271
ag1267
ag1535
ag1551
asg363
(lp1738
g354
ag576
ag665
ag811
ag847
ag1089
ag1343
ag1373
asg125
(lp1739
g105
ag199
ag1417
ag222
ag981
ag354
ag464
ag476
ag482
ag1209
ag530
ag642
ag678
ag696
ag701
ag769
ag779
ag1257
ag831
ag837
ag847
ag849
ag899
ag909
ag929
ag963
ag993
ag1013
ag1027
ag1037
ag1049
ag1081
ag1135
ag1395
ag1189
ag1545
ag1249
ag1255
ag1321
ag1271
ag1305
ag1267
ag1323
ag1379
ag1411
ag290
ag933
ag606
ag1025
ag1529
ag1031
ag1535
ag1539
ag1551
ag1597
ag1609
asg30
(lp1740
g16
ag105
ag199
ag1417
ag222
ag981
ag354
ag414
ag430
ag464
ag476
ag482
ag492
ag600
ag522
ag530
ag642
ag696
ag701
ag1463
ag1229
ag779
ag1257
ag829
ag831
ag250
ag837
ag847
ag849
ag899
ag909
ag929
ag963
ag983
ag985
ag993
ag1013
ag1015
ag1027
ag1035
ag1037
ag1043
ag1049
ag1089
ag1111
ag1123
ag1135
ag1395
ag1179
ag1189
ag1225
ag598
ag1237
ag1545
ag1249
ag1255
ag1321
ag1271
ag1305
ag1221
ag1267
ag1323
ag1381
ag266
ag1411
ag290
ag933
ag1441
ag606
ag1025
ag1513
ag1529
ag1031
ag1535
ag1539
ag1551
ag1575
ag709
ag1597
ag1603
ag1609
asg21
(lp1741
g16
ag105
ag1399
ag973
ag302
ag981
ag1209
ag543
ag665
ag847
ag857
ag877
ag881
ag963
ag1027
ag1029
ag1057
ag1083
ag1143
ag1271
ag1305
ag1343
ag1419
ag1539
ag1549
asg395
(lp1742
g354
ag811
ag1089
ag1343
ag1373
asg659
(lp1743
g652
ag811
ag881
ag1089
ag1351
ag1373
asg90
(lp1744
g87
ag105
ag199
ag222
ag981
ag354
ag476
ag482
ag1209
ag516
ag530
ag541
ag678
ag696
ag701
ag769
ag779
ag1257
ag827
ag837
ag847
ag849
ag899
ag929
ag963
ag985
ag1013
ag1027
ag1037
ag1049
ag1081
ag1135
ag1189
ag1545
ag1321
ag1271
ag1305
ag1267
ag1411
ag290
ag606
ag1031
ag1535
ag1539
ag1551
ag1597
asg160
(lp1745
g105
ag1399
ag302
ag1209
ag779
ag837
ag857
ag881
ag1027
ag1029
ag1057
ag1083
ag1143
ag630
ag1271
ag1293
ag1351
ag1411
ag1549
ag1551
asg182
(lp1746
g105
ag245
ag354
ag482
ag1209
ag530
ag541
ag543
ag665
ag701
ag831
ag847
ag963
ag985
ag1013
ag1027
ag1049
ag1179
ag1189
ag1545
ag1271
ag1305
ag1267
ag1323
ag1411
ag1415
ag1549
ag1551
asg46
(lp1747
g42
ag105
ag220
ag302
ag482
ag522
ag532
ag551
ag665
ag696
ag827
ag831
ag881
ag955
ag1013
ag1027
ag1029
ag1043
ag1081
ag1163
ag1215
ag1227
ag1321
ag454
ag1271
ag1343
ag1459
ag1535
ag1549
ag1551
ag1565
ag1603
asg183
(lp1748
g105
ag222
ag354
ag482
ag1209
ag532
ag541
ag665
ag678
ag696
ag701
ag769
ag779
ag1257
ag827
ag847
ag881
ag899
ag929
ag985
ag1013
ag1027
ag1043
ag1081
ag1089
ag1147
ag1189
ag1545
ag1271
ag1267
ag1411
ag1415
ag290
ag1535
ag1551
asg51
(lp1749
g42
ag71
ag105
ag199
ag302
ag354
ag470
ag482
ag1209
ag541
ag665
ag696
ag701
ag769
ag1257
ag827
ag847
ag869
ag881
ag899
ag929
ag985
ag1013
ag1027
ag1029
ag1043
ag1081
ag1089
ag1189
ag1545
ag1271
ag1305
ag1267
ag1415
ag1535
ag1549
ag1551
asg20
(lp1750
g16
ag105
ag199
ag1417
ag222
ag981
ag354
ag414
ag430
ag464
ag476
ag482
ag1209
ag492
ag600
ag522
ag530
ag642
ag696
ag701
ag1463
ag1229
ag777
ag779
ag1257
ag829
ag831
ag250
ag837
ag847
ag849
ag899
ag909
ag929
ag963
ag993
ag1013
ag1015
ag1027
ag1035
ag1037
ag1049
ag1089
ag1111
ag1123
ag1135
ag1395
ag1179
ag1189
ag598
ag1237
ag1545
ag1249
ag1255
ag1321
ag1271
ag1305
ag1221
ag1267
ag1323
ag1381
ag266
ag1411
ag290
ag933
ag1441
ag606
ag1025
ag1513
ag1529
ag1031
ag1535
ag1539
ag1551
ag1597
ag1603
ag1609
asg305
(lp1751
g1399
ag973
ag302
ag1209
ag857
ag881
ag1027
ag1029
ag1057
ag1083
ag1143
ag630
ag1271
ag1351
ag1397
ag1549
ag1353
asg359
(lp1752
g354
ag576
ag665
ag881
ag1013
ag1089
ag1189
ag1271
ag1343
asg54
(lp1753
g42
ag71
ag105
ag354
ag482
ag1209
ag532
ag541
ag665
ag678
ag696
ag701
ag769
ag1257
ag827
ag847
ag881
ag929
ag985
ag1013
ag1027
ag1043
ag1081
ag1089
ag1147
ag1189
ag1545
ag1271
ag1267
ag1415
ag1535
ag1549
ag1551
asg242
(lp1754
g240
ag354
ag811
ag1531
asg187
(lp1755
g105
ag222
ag354
ag482
ag1209
ag522
ag532
ag541
ag665
ag678
ag701
ag769
ag779
ag1257
ag847
ag849
ag881
ag929
ag1013
ag1027
ag1081
ag1089
ag1135
ag1189
ag1271
ag1305
ag1267
ag1343
ag1415
ag1535
ag1551
asg189
(lp1756
g105
ag354
ag1209
ag541
ag543
ag665
ag701
ag847
ag877
ag881
ag1027
ag1029
ag1057
ag1083
ag1189
ag1545
ag1271
ag1305
ag1351
ag1419
ag1549
ag1551
asg583
(lp1757
g576
ag665
ag881
ag1043
ag1227
ag1351
ag1499
ag1549
asg140
(lp1758
g105
ag199
ag1417
ag222
ag245
ag302
ag981
ag354
ag476
ag482
ag1209
ag516
ag530
ag541
ag543
ag665
ag696
ag701
ag779
ag1257
ag831
ag250
ag837
ag847
ag849
ag881
ag899
ag929
ag985
ag1013
ag1027
ag1057
ag1135
ag1395
ag1147
ag1189
ag1545
ag1271
ag1287
ag1305
ag1267
ag1323
ag1411
ag1415
ag1535
ag1539
ag1549
ag1551
ag1575
asg312
(lp1759
g302
ag456
ag551
ag665
ag694
ag881
ag1027
ag1043
ag1147
ag1163
ag1227
ag1343
ag1549
ag1565
asg19
(lp1760
g16
ag105
ag199
ag1417
ag222
ag981
ag354
ag414
ag428
ag430
ag440
ag464
ag476
ag482
ag492
ag600
ag522
ag530
ag642
ag696
ag701
ag723
ag1463
ag1229
ag779
ag1257
ag829
ag831
ag250
ag837
ag847
ag849
ag899
ag909
ag929
ag935
ag963
ag993
ag1013
ag1015
ag1027
ag1035
ag1037
ag1049
ag1089
ag1111
ag1123
ag1135
ag1395
ag1179
ag1189
ag1225
ag598
ag1237
ag1545
ag1249
ag1255
ag1321
ag1271
ag1305
ag1221
ag1267
ag1323
ag1381
ag266
ag1411
ag290
ag933
ag1441
ag606
ag767
ag1025
ag1513
ag1529
ag1031
ag1535
ag1539
ag1551
ag709
ag1597
ag1603
ag1609
asg122
(lp1761
g105
ag222
ag302
ag354
ag1209
ag532
ag541
ag665
ag701
ag779
ag837
ag877
ag881
ag899
ag1013
ag1027
ag1043
ag1057
ag1143
ag1179
ag1189
ag1545
ag1271
ag1351
ag1411
ag1549
ag1551
asg318
(lp1762
g1399
ag973
ag302
ag336
ag652
ag696
ag857
ag881
ag1027
ag1029
ag1057
ag1083
ag1099
ag1143
ag1163
ag630
ag1271
ag1351
ag1535
ag1549
ag1353
asg155
(lp1763
g105
ag222
ag981
ag354
ag482
ag1209
ag516
ag541
ag696
ag701
ag769
ag779
ag1257
ag827
ag250
ag847
ag881
ag899
ag929
ag985
ag1013
ag1027
ag1089
ag1135
ag1189
ag1545
ag1271
ag1305
ag1267
ag1411
ag1415
ag1535
ag1551
asg660
(lp1764
g652
ag665
ag881
ag1195
ag1227
ag1281
ag1303
asg249
(lp1765
g1399
ag245
ag973
ag302
ag336
ag1209
ag787
ag847
ag857
ag881
ag1261
ag1027
ag1057
ag1099
ag1143
ag630
ag1293
ag1297
ag1351
ag1397
ag1419
ag1469
ag1535
ag1353
asg128
(lp1766
g105
ag199
ag222
ag981
ag354
ag414
ag428
ag464
ag476
ag482
ag1209
ag516
ag530
ag502
ag678
ag696
ag701
ag769
ag779
ag1257
ag827
ag831
ag837
ag847
ag849
ag899
ag929
ag963
ag985
ag993
ag1013
ag1027
ag1037
ag1049
ag1081
ag1135
ag1395
ag1189
ag1545
ag1249
ag1255
ag1321
ag1271
ag1305
ag1267
ag1323
ag1379
ag1411
ag290
ag933
ag606
ag1529
ag1031
ag1535
ag1539
ag1551
ag1597
ag1609
asg146
(lp1767
g105
ag222
ag245
ag981
ag354
ag482
ag1209
ag516
ag530
ag541
ag543
ag502
ag665
ag696
ag701
ag779
ag831
ag250
ag837
ag847
ag899
ag929
ag963
ag985
ag1013
ag1027
ag1089
ag1135
ag1395
ag1147
ag1179
ag1189
ag1545
ag1271
ag1305
ag1267
ag1323
ag1411
ag1415
ag606
ag1539
ag1549
ag1551
asg180
(lp1768
g105
ag199
ag1399
ag222
ag245
ag981
ag354
ag482
ag1209
ag516
ag541
ag543
ag665
ag696
ag701
ag779
ag1257
ag831
ag250
ag837
ag847
ag849
ag881
ag899
ag929
ag963
ag985
ag1013
ag1027
ag1043
ag1049
ag1057
ag1179
ag1189
ag1545
ag1271
ag1305
ag1267
ag1411
ag1415
ag1419
ag1539
ag1549
ag1551
asg668
(lp1769
g665
ag881
ag1227
ag1351
ag1499
asg193
(lp1770
g105
ag222
ag245
ag302
ag354
ag482
ag1209
ag516
ag541
ag543
ag665
ag696
ag701
ag779
ag1257
ag831
ag250
ag837
ag847
ag849
ag881
ag899
ag929
ag985
ag1013
ag1027
ag1057
ag1135
ag1179
ag1189
ag1545
ag1271
ag1305
ag1267
ag1411
ag1415
ag1549
ag1551
asg244
(lp1771
g240
ag576
ag696
ag811
ag881
ag1089
ag1343
ag1531
asg315
(lp1772
g1399
ag973
ag302
ag1209
ag787
ag857
ag881
ag1027
ag1029
ag1057
ag1083
ag1143
ag630
ag1293
ag1351
ag1419
ag1459
ag1549
ag1353
asg57
(lp1773
g42
ag71
ag105
ag302
ag340
ag354
ag482
ag1209
ag516
ag532
ag541
ag665
ag696
ag701
ag769
ag779
ag1257
ag827
ag831
ag841
ag847
ag869
ag881
ag899
ag929
ag985
ag1013
ag1027
ag1029
ag1043
ag1057
ag1089
ag1147
ag1163
ag1189
ag1545
ag1321
ag1271
ag1305
ag1267
ag1411
ag1415
ag1459
ag1535
ag1549
ag1551
asg581
(lp1774
g576
ag665
ag881
ag1089
ag1343
asg168
(lp1775
g105
ag199
ag1417
ag222
ag245
ag354
ag482
ag1209
ag516
ag522
ag530
ag543
ag642
ag665
ag696
ag701
ag779
ag831
ag250
ag847
ag899
ag963
ag985
ag993
ag1013
ag1027
ag1049
ag1089
ag1135
ag1179
ag1189
ag1545
ag1255
ag1321
ag1271
ag1305
ag1267
ag1323
ag266
ag1411
ag1415
ag606
ag1539
ag1551
asg52
(lp1776
g42
ag105
ag220
ag302
ag482
ag1209
ag522
ag532
ag541
ag665
ag696
ag701
ag1257
ag827
ag831
ag847
ag881
ag1013
ag1027
ag1029
ag1043
ag1081
ag1147
ag1163
ag1215
ag1227
ag1321
ag454
ag1271
ag1343
ag1535
ag1549
ag1551
ag1565
asg365
(lp1777
g354
ag665
ag881
ag1013
ag1027
ag1089
ag1163
ag1189
ag1271
ag1343
ag1373
asg167
(lp1778
g105
ag199
ag1417
ag222
ag981
ag354
ag414
ag430
ag464
ag476
ag482
ag1209
ag530
ag642
ag696
ag701
ag769
ag779
ag1257
ag250
ag837
ag847
ag849
ag899
ag909
ag929
ag963
ag985
ag993
ag1013
ag1027
ag1037
ag1049
ag1089
ag1123
ag1135
ag1395
ag1147
ag1179
ag1189
ag598
ag1545
ag1249
ag1255
ag1321
ag1271
ag1305
ag1267
ag1323
ag1411
ag290
ag933
ag1441
ag606
ag1025
ag1513
ag1529
ag1031
ag1535
ag1539
ag1551
ag1597
ag1603
asg179
(lp1779
g105
ag222
ag354
ag470
ag482
ag1209
ag522
ag532
ag541
ag665
ag678
ag696
ag701
ag769
ag779
ag1257
ag847
ag881
ag929
ag985
ag1013
ag1027
ag1043
ag1081
ag1089
ag1135
ag1147
ag1189
ag1271
ag1305
ag1267
ag1411
ag1415
ag1535
ag1549
ag1551
asg656
(lp1780
g652
ag665
ag881
ag1281
ag1351
ag1343
ag1373
asg364
(lp1781
g354
ag665
ag881
ag1013
ag1027
ag1043
ag1189
ag1343
ag1499
asg572
(lp1782
g973
ag570
ag1029
ag1083
asg121
(lp1783
g105
ag1399
ag973
ag302
ag336
ag354
ag1209
ag551
ag694
ag696
ag1257
ag831
ag881
ag1027
ag1029
ag1057
ag1081
ag1083
ag1163
ag1189
ag1215
ag1227
ag454
ag1271
ag1351
ag1459
ag1549
ag1603
asg553
(lp1784
g551
ag652
ag665
ag881
ag1027
ag1029
ag1099
ag1227
ag1351
ag1499
ag1535
ag1549
ag1565
asg316
(lp1785
g1399
ag973
ag302
ag336
ag1209
ag652
ag787
ag857
ag881
ag1027
ag1029
ag1057
ag1083
ag1099
ag1143
ag630
ag1351
ag1353
asg371
(lp1786
g354
ag665
ag881
ag1013
ag1027
ag1089
ag1189
ag1271
ag1343
asg309
(lp1787
g1399
ag973
ag302
ag336
ag1209
ag652
ag787
ag857
ag881
ag1027
ag1029
ag1057
ag1083
ag1099
ag1143
ag630
ag1293
ag1351
ag1397
ag1419
ag1353
asg370
(lp1788
g354
ag576
ag665
ag881
ag1013
ag1089
ag1189
ag1343
ag1499
ag1373
asg655
(lp1789
g652
ag665
ag881
ag1227
ag1351
ag1459
ag1373
asg91
(lp1790
g87
ag105
ag199
ag222
ag981
ag354
ag476
ag482
ag1209
ag516
ag530
ag678
ag696
ag701
ag769
ag779
ag1257
ag827
ag250
ag837
ag847
ag849
ag899
ag929
ag963
ag985
ag1013
ag1027
ag1037
ag1049
ag1081
ag1089
ag1135
ag1189
ag1545
ag1249
ag1255
ag1321
ag1271
ag1305
ag1267
ag1343
ag1411
ag290
ag933
ag606
ag1025
ag1031
ag1535
ag1539
ag1551
ag1597
asg667
(lp1791
g665
ag811
ag881
asg459
(lp1792
g456
ag576
ag665
ag847
ag881
ag1013
ag1351
ag1343
ag1499
ag1535
asg75
(lp1793
g71
ag665
ag881
ag1227
ag1351
ag1499
asg62
(lp1794
g60
ag220
ag1403
ag456
ag462
ag551
ag576
ag604
ag618
ag652
ag665
ag694
ag696
ag715
ag811
ag847
ag869
ag881
ag1295
ag955
ag965
ag1071
ag1147
ag1171
ag1189
ag1195
ag1227
ag711
ag1321
ag1271
ag1281
ag1303
ag1331
ag1351
ag1343
ag1445
ag1453
ag1459
ag1475
ag1499
ag1607
asg145
(lp1795
g105
ag222
ag981
ag354
ag476
ag482
ag1209
ag516
ag502
ag696
ag701
ag769
ag779
ag1257
ag827
ag250
ag837
ag847
ag849
ag881
ag899
ag929
ag985
ag1013
ag1027
ag1037
ag1081
ag1089
ag1135
ag1189
ag1545
ag1321
ag1271
ag1305
ag1267
ag1411
ag290
ag1031
ag1535
ag1539
ag1551
asg176
(lp1796
g105
ag199
ag222
ag354
ag428
ag476
ag482
ag1209
ag516
ag541
ag642
ag678
ag696
ag701
ag769
ag779
ag1257
ag827
ag837
ag847
ag849
ag899
ag929
ag985
ag1013
ag1027
ag1037
ag1049
ag1081
ag1135
ag1395
ag1189
ag1545
ag1249
ag1255
ag1321
ag1271
ag1305
ag1221
ag1267
ag1323
ag1411
ag290
ag933
ag606
ag1031
ag1535
ag1539
ag1551
asg320
(lp1797
g302
ag336
ag456
ag652
ag665
ag881
ag1029
ag1163
ag1195
ag1227
ag1351
ag1499
asg194
(lp1798
g105
ag199
ag222
ag354
ag482
ag1209
ag516
ag532
ag541
ag665
ag678
ag696
ag701
ag769
ag779
ag1257
ag827
ag841
ag847
ag849
ag899
ag929
ag985
ag1013
ag1027
ag1043
ag1081
ag1089
ag1135
ag1189
ag1545
ag1271
ag1305
ag1267
ag1411
ag290
ag606
ag1535
ag1551
asg94
(lp1799
g87
ag105
ag199
ag222
ag302
ag981
ag354
ag476
ag482
ag1209
ag516
ag530
ag541
ag543
ag696
ag701
ag779
ag1257
ag250
ag837
ag847
ag849
ag881
ag899
ag929
ag985
ag1013
ag1027
ag1089
ag1135
ag1395
ag1189
ag1545
ag1271
ag1305
ag1267
ag1411
ag1415
ag290
ag606
ag1535
ag1539
ag1549
ag1551
asg151
(lp1800
g105
ag222
ag245
ag354
ag1209
ag541
ag543
ag665
ag696
ag701
ag779
ag831
ag250
ag847
ag877
ag881
ag899
ag929
ag963
ag1013
ag1027
ag1043
ag1057
ag1179
ag1189
ag1545
ag1271
ag1305
ag1411
ag1415
ag1539
ag1549
ag1551
asg310
(lp1801
g1399
ag973
ag302
ag336
ag1209
ag652
ag857
ag881
ag1027
ag1029
ag1057
ag1083
ag1099
ag1143
ag630
ag1271
ag1351
ag1549
ag1353
asg321
(lp1802
g1399
ag973
ag302
ag336
ag338
ag1209
ag652
ag787
ag857
ag881
ag1027
ag1029
ag1057
ag1083
ag1099
ag1143
ag630
ag1293
ag1297
ag1351
ag1419
ag1353
ag1591
asg7
(lp1803
g4
ag652
ag665
ag881
ag1143
ag1195
ag1227
ag1281
ag1303
ag1331
ag1351
ag1459
asg885
(lp1804
g881
asg116
(lp1805
g105
ag199
ag222
ag354
ag470
ag476
ag482
ag1209
ag516
ag530
ag541
ag678
ag696
ag701
ag769
ag779
ag1257
ag791
ag827
ag837
ag847
ag849
ag899
ag929
ag985
ag993
ag1013
ag1027
ag1081
ag1135
ag1395
ag1189
ag1545
ag1321
ag1271
ag1305
ag1267
ag1411
ag290
ag933
ag606
ag1529
ag1031
ag1535
ag1551
ag1609
asg317
(lp1806
g302
ag354
ag456
ag482
ag522
ag665
ag1257
ag881
ag929
ag985
ag1013
ag1027
ag1043
ag1147
ag1163
ag1189
ag1271
ag1343
ag1535
ag1549
ag1551
asg80
(lp1807
g71
ag105
ag199
ag222
ag354
ag470
ag482
ag1209
ag516
ag522
ag532
ag541
ag665
ag678
ag696
ag701
ag769
ag779
ag1257
ag827
ag250
ag847
ag849
ag881
ag899
ag929
ag963
ag985
ag1013
ag1027
ag1037
ag1043
ag1049
ag1081
ag1089
ag1135
ag1395
ag1189
ag1545
ag1271
ag1305
ag1267
ag1379
ag1343
ag1411
ag1415
ag290
ag606
ag1535
ag1549
ag1551
asg890
(lp1808
g881
asg137
(lp1809
g105
ag199
ag1417
ag222
ag245
ag981
ag354
ag414
ag430
ag464
ag476
ag482
ag1209
ag492
ag522
ag530
ag541
ag642
ag678
ag696
ag701
ag745
ag769
ag779
ag1257
ag831
ag837
ag847
ag849
ag899
ag909
ag929
ag983
ag993
ag1013
ag1027
ag1035
ag1037
ag1049
ag1081
ag1123
ag1135
ag1395
ag1179
ag1189
ag598
ag1237
ag1545
ag1249
ag1255
ag1321
ag1271
ag1305
ag1221
ag1267
ag1323
ag1379
ag266
ag1411
ag290
ag933
ag606
ag1025
ag1529
ag1031
ag1535
ag1539
ag1551
ag1597
ag1603
ag1609
asg143
(lp1810
g105
ag199
ag222
ag302
ag981
ag354
ag414
ag482
ag1209
ag516
ag541
ag696
ag701
ag769
ag779
ag1257
ag250
ag837
ag847
ag881
ag899
ag929
ag985
ag1013
ag1027
ag1089
ag1135
ag1189
ag1545
ag1271
ag1305
ag1267
ag1411
ag1415
ag1535
ag1551
asg144
(lp1811
g105
ag199
ag222
ag354
ag482
ag1209
ag516
ag532
ag541
ag665
ag678
ag696
ag701
ag769
ag779
ag1257
ag827
ag841
ag847
ag849
ag899
ag929
ag985
ag1013
ag1027
ag1081
ag1089
ag1135
ag1189
ag1545
ag1271
ag1305
ag1267
ag1379
ag1411
ag1415
ag290
ag1535
ag1551
asg142
(lp1812
g105
ag199
ag1417
ag222
ag981
ag354
ag464
ag476
ag482
ag1209
ag516
ag530
ag541
ag642
ag696
ag701
ag769
ag779
ag1257
ag250
ag837
ag847
ag849
ag881
ag899
ag909
ag929
ag963
ag985
ag993
ag1013
ag1027
ag1037
ag1049
ag1089
ag1135
ag1395
ag1189
ag1545
ag1255
ag1321
ag1271
ag1305
ag1267
ag1323
ag1411
ag290
ag933
ag606
ag1031
ag1535
ag1539
ag1551
ag1603
asg243
(lp1813
g240
ag354
ag576
ag665
ag696
ag811
ag847
ag881
ag1089
ag1343
ag1373
asg74
(lp1814
g71
ag105
ag302
ag482
ag522
ag551
ag665
ag696
ag827
ag847
ag881
ag1013
ag1027
ag1043
ag1147
ag1163
ag1215
ag1227
ag1321
ag1271
ag1459
ag1549
ag1565
asg28
(lp1815
g16
ag105
ag1399
ag245
ag973
ag302
ag981
ag1209
ag543
ag719
ag787
ag847
ag857
ag877
ag881
ag1027
ag1029
ag1057
ag1083
ag1143
ag630
ag1293
ag1297
ag1305
ag1351
ag1419
ag1549
ag1353
asg663
(lp1816
g1451
ag652
ag665
ag811
ag881
ag1195
ag1227
ag1271
ag1279
ag1281
ag1303
ag1331
ag1343
ag1531
asg169
(lp1817
g105
ag199
ag1417
ag222
ag245
ag981
ag354
ag430
ag464
ag476
ag482
ag1209
ag530
ag543
ag642
ag696
ag701
ag719
ag779
ag1257
ag829
ag250
ag837
ag847
ag849
ag881
ag899
ag909
ag929
ag963
ag985
ag993
ag1013
ag1027
ag1037
ag1043
ag1049
ag1089
ag1123
ag1135
ag1395
ag1179
ag1189
ag598
ag1545
ag1249
ag1255
ag1321
ag1271
ag1305
ag1267
ag1323
ag1411
ag290
ag933
ag606
ag1025
ag1513
ag1031
ag1535
ag1539
ag1551
ag1575
ag709
ag1597
ag1603
ag1609
asg95
(lp1818
g87
ag105
ag199
ag1417
ag222
ag981
ag354
ag414
ag430
ag464
ag476
ag482
ag1209
ag492
ag522
ag530
ag642
ag678
ag696
ag701
ag1463
ag745
ag769
ag779
ag1257
ag831
ag837
ag847
ag849
ag899
ag909
ag929
ag983
ag993
ag1013
ag1027
ag1035
ag1037
ag1049
ag1123
ag1135
ag1395
ag1179
ag1189
ag598
ag1237
ag1545
ag1249
ag1255
ag1321
ag1271
ag1305
ag1221
ag1267
ag1323
ag1379
ag266
ag1411
ag290
ag933
ag606
ag1025
ag1529
ag1031
ag1535
ag1539
ag1551
ag1597
ag1603
ag1609
asg225
(lp1819
g222
ag456
ag576
ag665
ag779
ag881
ag1027
ag1147
ag1227
ag1271
ag1351
ag1343
ag1499
ag1549
asg6
(lp1820
g4
ag302
ag652
ag665
ag869
ag881
ag1029
ag1083
ag1143
ag1195
ag1227
ag1281
ag1331
ag1351
ag1459
ag1535
asg79
(lp1821
g71
ag105
ag302
ag482
ag522
ag541
ag665
ag1257
ag827
ag881
ag1013
ag1027
ag1029
ag1043
ag1089
ag1147
ag1227
ag1321
ag1271
ag1415
ag1549
ag1551
asg378
(lp1822
g354
ag576
ag665
ag811
ag881
ag1013
ag1089
ag1189
ag1271
ag1343
asg55
(lp1823
g42
ag71
ag105
ag222
ag302
ag354
ag482
ag1209
ag516
ag541
ag665
ag696
ag701
ag769
ag779
ag1257
ag827
ag250
ag847
ag869
ag881
ag899
ag929
ag985
ag1013
ag1027
ag1029
ag1043
ag1089
ag1189
ag1545
ag1271
ag1305
ag1267
ag1415
ag1535
ag1549
ag1551
ag1609
asg311
(lp1824
g1399
ag973
ag302
ag336
ag1209
ag652
ag787
ag857
ag881
ag1027
ag1029
ag1057
ag1083
ag1143
ag630
ag1293
ag1351
ag1397
ag1459
ag1549
ag1353
asg163
(lp1825
g105
ag199
ag1417
ag222
ag245
ag981
ag354
ag464
ag476
ag482
ag1209
ag516
ag530
ag543
ag642
ag696
ag701
ag1463
ag779
ag1257
ag831
ag250
ag837
ag847
ag849
ag881
ag899
ag909
ag929
ag963
ag985
ag993
ag1013
ag1027
ag1037
ag1049
ag1089
ag1135
ag1189
ag1545
ag1255
ag1321
ag1271
ag1305
ag1267
ag1323
ag266
ag1411
ag1415
ag290
ag933
ag606
ag1025
ag1031
ag1535
ag1539
ag1551
ag1603
ag1609
asg887
(lp1826
g881
ag1373
asg124
(lp1827
g105
ag199
ag222
ag354
ag476
ag482
ag1209
ag516
ag530
ag642
ag502
ag678
ag696
ag701
ag769
ag779
ag1257
ag827
ag831
ag837
ag847
ag849
ag899
ag929
ag985
ag993
ag1013
ag1027
ag1037
ag1049
ag1081
ag1135
ag1395
ag1189
ag1545
ag1249
ag1255
ag1321
ag1271
ag1305
ag1267
ag1323
ag1411
ag290
ag933
ag606
ag1529
ag1031
ag1535
ag1551
ag1597
asg152
(lp1828
g105
ag222
ag302
ag340
ag354
ag482
ag1209
ag516
ag541
ag543
ag665
ag701
ag779
ag811
ag831
ag837
ag849
ag877
ag881
ag899
ag929
ag1013
ag1027
ag1057
ag1179
ag1189
ag1545
ag1271
ag1305
ag1267
ag1411
ag1415
ag1549
ag1551
asg131
(lp1829
g105
ag302
ag522
ag551
ag665
ag694
ag696
ag881
ag1027
ag1029
ag1043
ag1163
ag1227
ag1343
ag1459
ag1549
ag1565
asg375
(lp1830
g354
ag811
ag1531
asg386
(lp1831
g354
ag665
ag881
ag1013
ag1027
ag1089
ag1189
ag1271
ag1343
asg388
(lp1832
g354
ag576
ag665
ag811
ag881
ag1013
ag1089
ag1189
ag1271
ag1343
ag1373
asg313
(lp1833
g1399
ag973
ag302
ag336
ag1209
ag857
ag881
ag1027
ag1029
ag1057
ag1083
ag1099
ag1143
ag1227
ag630
ag1271
ag1281
ag1351
ag1549
ag1353
asg150
(lp1834
g105
ag222
ag245
ag354
ag482
ag1209
ag516
ag530
ag541
ag543
ag665
ag696
ag701
ag779
ag831
ag250
ag837
ag847
ag881
ag899
ag929
ag963
ag985
ag1013
ag1027
ag1049
ag1057
ag1135
ag1179
ag1189
ag1545
ag1271
ag1305
ag1267
ag1411
ag1415
ag606
ag1539
ag1549
ag1551
asg654
(lp1835
g652
ag665
ag881
ag1227
ag1351
ag1499
asg377
(lp1836
g354
ag811
ag1531
asg27
(lp1837
g16
ag105
ag199
ag1417
ag222
ag245
ag981
ag354
ag430
ag464
ag476
ag482
ag492
ag600
ag530
ag543
ag642
ag696
ag701
ag719
ag779
ag1257
ag791
ag829
ag831
ag250
ag847
ag849
ag899
ag909
ag929
ag935
ag963
ag985
ag993
ag1013
ag1027
ag1037
ag1049
ag1089
ag1111
ag1123
ag1135
ag1395
ag1179
ag1189
ag598
ag1545
ag1249
ag1255
ag1321
ag1271
ag1305
ag1267
ag1323
ag1381
ag266
ag1411
ag290
ag933
ag606
ag1025
ag1513
ag1529
ag1031
ag1535
ag1539
ag1551
ag1575
ag709
ag1597
ag1603
ag1609
asg110
(lp1838
g105
ag199
ag222
ag245
ag981
ag354
ag482
ag1209
ag516
ag530
ag541
ag543
ag665
ag696
ag701
ag779
ag831
ag250
ag847
ag849
ag881
ag899
ag929
ag963
ag985
ag1013
ag1027
ag1057
ag1135
ag1179
ag1189
ag1545
ag1271
ag1287
ag1305
ag1267
ag1323
ag1411
ag1415
ag290
ag1539
ag1549
ag1551
asg23
(lp1839
g16
ag99
ag105
ag199
ag1417
ag222
ag228
ag245
ag981
ag354
ag414
ag428
ag430
ag440
ag464
ag476
ag482
ag492
ag600
ag530
ag543
ag642
ag696
ag701
ag1553
ag719
ag1463
ag745
ag1229
ag616
ag777
ag779
ag1257
ag829
ag831
ag250
ag847
ag849
ag909
ag929
ag935
ag963
ag983
ag993
ag1013
ag1015
ag1027
ag1035
ag1037
ag1049
ag1089
ag1111
ag1123
ag1135
ag1395
ag1179
ag1189
ag1225
ag598
ag1237
ag1545
ag727
ag1249
ag1255
ag1321
ag1271
ag1305
ag1221
ag1267
ag1323
ag1339
ag1381
ag1343
ag1411
ag290
ag933
ag1441
ag606
ag767
ag1025
ag1513
ag1529
ag1031
ag1535
ag1539
ag1551
ag709
ag1597
ag1603
ag1609
asg44
(lp1840
g42
ag71
ag105
ag222
ag981
ag354
ag482
ag1209
ag516
ag532
ag541
ag665
ag696
ag701
ag769
ag779
ag1257
ag827
ag847
ag881
ag899
ag929
ag985
ag1013
ag1027
ag1043
ag1081
ag1089
ag1189
ag1545
ag1271
ag1305
ag1267
ag1411
ag1415
ag1535
ag1549
ag1551
ag1575
asg159
(lp1841
g105
ag199
ag1417
ag222
ag981
ag354
ag414
ag430
ag464
ag476
ag482
ag1209
ag492
ag522
ag530
ag642
ag678
ag696
ag701
ag1463
ag745
ag1229
ag769
ag779
ag1257
ag831
ag250
ag837
ag847
ag849
ag899
ag909
ag929
ag963
ag983
ag993
ag1013
ag1015
ag1027
ag1035
ag1037
ag1049
ag1089
ag1123
ag1135
ag1395
ag1179
ag1189
ag598
ag1545
ag1249
ag1255
ag1321
ag1271
ag1305
ag1221
ag1267
ag1323
ag266
ag1411
ag290
ag933
ag1441
ag606
ag1025
ag1513
ag1529
ag1031
ag1535
ag1539
ag1551
ag1597
ag1603
ag1609
asg669
(lp1842
g665
ag877
ag881
ag1013
ag1027
ag1099
ag1147
ag1189
ag1227
ag1271
ag1351
ag1343
ag1549
asg458
(lp1843
g456
ag576
ag665
ag881
ag1013
ag1043
ag1227
ag1271
ag1343
ag1499
ag1549
asg133
(lp1844
g105
ag199
ag1417
ag222
ag981
ag354
ag464
ag476
ag482
ag1209
ag516
ag530
ag642
ag678
ag696
ag701
ag769
ag779
ag1257
ag831
ag837
ag847
ag849
ag899
ag909
ag929
ag993
ag1013
ag1027
ag1037
ag1049
ag1081
ag1135
ag1395
ag1179
ag1189
ag1545
ag1249
ag1255
ag1321
ag1271
ag1305
ag1267
ag1323
ag1379
ag1411
ag290
ag933
ag606
ag1025
ag1529
ag1031
ag1535
ag1539
ag1551
ag1597
ag1609
asg661
(lp1845
g652
ag665
ag881
ag1195
ag1227
ag1281
ag1303
ag1331
asg118
(lp1846
g105
ag354
ag482
ag1209
ag532
ag541
ag576
ag665
ag696
ag701
ag769
ag1257
ag847
ag881
ag929
ag985
ag1013
ag1027
ag1043
ag1081
ag1089
ag1147
ag1189
ag1271
ag1267
ag1415
ag1535
ag1549
ag1551
asg248
(lp1847
g1399
ag245
ag973
ag302
ag336
ag1209
ag787
ag847
ag857
ag877
ag881
ag1027
ag1057
ag1099
ag1143
ag630
ag1293
ag1297
ag1351
ag1397
ag1419
ag1549
ag1353
asg816
(lp1848
g811
ag1531
asg201
(lp1849
g199
ag220
ag354
ag482
ag576
ag665
ag881
ag1013
ag1027
ag1043
ag1099
ag1147
ag1163
ag1189
ag1271
ag1351
ag1343
ag1499
ag1549
ag1373
asg161
(lp1850
g105
ag199
ag222
ag354
ag470
ag476
ag482
ag1209
ag516
ag541
ag678
ag696
ag701
ag769
ag779
ag1257
ag827
ag837
ag847
ag849
ag899
ag929
ag985
ag1013
ag1027
ag1081
ag1135
ag1395
ag1189
ag1545
ag1255
ag1321
ag1271
ag1305
ag1267
ag1323
ag1411
ag290
ag933
ag606
ag1031
ag1535
ag1551
ag1603
asg819
(lp1851
g811
ag881
asg45
(lp1852
g42
ag71
ag105
ag220
ag228
ag302
ag340
ag354
ag456
ag482
ag1209
ag1493
ag522
ag532
ag590
ag618
ag665
ag696
ag701
ag827
ag831
ag847
ag881
ag1013
ag1027
ag1029
ag1043
ag1081
ag1163
ag1179
ag1189
ag1215
ag1227
ag711
ag1321
ag454
ag1271
ag1343
ag1459
ag1535
ag1549
ag1551
ag1603
asg356
(lp1853
g354
ag541
ag665
ag811
ag881
ag929
ag1013
ag1027
ag1089
ag1135
ag1189
ag1271
ag1343
asg115
(lp1854
g105
ag222
ag973
ag302
ag354
ag1209
ag541
ag543
ag665
ag701
ag779
ag877
ag881
ag899
ag1027
ag1029
ag1057
ag1083
ag1143
ag1179
ag1189
ag630
ag1545
ag1271
ag1305
ag1351
ag1411
ag1419
ag1549
ag1551
asg164
(lp1855
g105
ag199
ag1417
ag222
ag354
ag414
ag430
ag464
ag476
ag482
ag1209
ag516
ag522
ag530
ag541
ag642
ag678
ag696
ag701
ag745
ag769
ag779
ag1257
ag791
ag811
ag827
ag831
ag837
ag847
ag849
ag899
ag909
ag929
ag993
ag1013
ag1027
ag1035
ag1037
ag1049
ag1081
ag1123
ag1135
ag1395
ag1179
ag1189
ag598
ag1545
ag1249
ag1255
ag1321
ag1271
ag1305
ag1267
ag1323
ag1379
ag266
ag1411
ag290
ag933
ag606
ag1025
ag1529
ag1031
ag1535
ag1539
ag1551
ag1597
ag1603
ag1609
asg584
(lp1856
g576
ag652
ag665
ag881
ag1195
ag1281
ag1303
ag1331
asg883
(lp1857
g881
ag1373
asg173
(lp1858
g105
ag1417
ag245
ag354
ag530
ag541
ag543
ag696
ag701
ag1229
ag847
ag993
ag1027
ag1049
ag1143
ag1255
ag1287
ag1267
ag1419
ag1549
asg148
(lp1859
g105
ag199
ag222
ag981
ag354
ag476
ag482
ag1209
ag516
ag502
ag696
ag701
ag769
ag779
ag1257
ag250
ag837
ag847
ag849
ag881
ag899
ag929
ag985
ag1013
ag1027
ag1037
ag1049
ag1089
ag1135
ag1395
ag1189
ag1545
ag1255
ag1321
ag1271
ag1305
ag1267
ag1411
ag290
ag933
ag606
ag1031
ag1535
ag1539
ag1551
ag1603
asg49
(lp1860
g42
ag105
ag1399
ag973
ag302
ag1209
ag787
ag857
ag881
ag1027
ag1029
ag1057
ag1083
ag1143
ag630
ag1271
ag1351
ag1415
ag1419
ag1549
ag1551
ag1353
asg379
(lp1861
g354
ag576
ag811
ag881
ag1089
ag1343
asg366
(lp1862
g354
ag665
ag881
ag1013
ag1027
ag1089
ag1189
ag1271
ag1343
ag1549
ag1551
asg172
(lp1863
g105
ag245
ag354
ag1209
ag530
ag541
ag543
ag665
ag701
ag831
ag847
ag877
ag963
ag1013
ag1027
ag1049
ag1057
ag1189
ag1545
ag1271
ag1293
ag1305
ag1267
ag1415
ag1549
ag1551
asg582
(lp1864
g576
ag665
ag881
ag1343
ag1373
asa.