(lp0
(dp1
S'junicomm'
p2
(lp3
VDutchess (027)
p4
aVYates (123)
p5
aVGreene (039)
p6
aVSchenectady (093)
p7
aVOnondaga (067)
p8
aVProvidence (007)
p9
aVWindham (015)
p10
aVColumbia (021)
p11
aVAlbany (001)
p12
aVCaledonia (005)
p13
aVWashington (115)
p14
aVCumberland (005)
p15
aVStrafford (017)
p16
aVAndroscoggin (001)
p17
aVWaldo (027)
p18
aVTompkins (109)
p19
aVEssex (009)
p20
aVAddison (001)
p21
aVKnox (013)
p22
aVCheshire (005)
p23
aVWarren (113)
p24
aVHartford (003)
p25
aVYork (031)
p26
aVWorcester (027)
p27
aVLincoln (015)
p28
aVMonroe (055)
p29
aVNorfolk (021)
p30
aVRensselaer (083)
p31
aVSuffolk (025)
p32
aVSaratoga (091)
p33
aVBerkshire (003)
p34
aVBelknap (001)
p35
aVLamoille (015)
p36
aVSagadahoc (023)
p37
aVOrange (017)
p38
aVKennebec (011)
p39
aVLitchfield (005)
p40
aVCarroll (003)
p41
aVMontgomery (057)
p42
aVJefferson (045)
p43
aVUlster (111)
p44
aVTolland (013)
p45
aVMiddlesex (017)
p46
aVFulton (035)
p47
aVEssex (031)
p48
aVHampshire (015)
p49
aVRutland (021)
p50
aVRockingham (015)
p51
aVHampden (013)
p52
asS'popuariz'
p53
(lp54
sS'amyrbals'
p55
(lp56
sS'kalmlati'
p57
(lp58
g4
ag6
ag7
aVSteuben (101)
p59
ag9
aVMerrimack (013)
p60
ag10
ag11
ag12
ag15
ag16
aVNew York (061)
p61
aVRockland (087)
p62
aVBroome (007)
p63
aVWayne (117)
p64
ag19
ag20
aVSuffolk (103)
p65
aVDelaware (025)
p66
aVSchuyler (097)
p67
aVPlymouth (023)
p68
ag23
ag24
ag25
ag26
ag27
ag30
aVKings (047)
p69
aVFairfield (001)
p70
aVQueens (081)
p71
aVWestchester (119)
p72
ag31
aVRichmond (085)
p73
aVNew Haven (009)
p74
ag32
aVOtsego (077)
p75
ag33
aVSullivan (105)
p76
aVBristol (001)
p77
ag34
aVKent (003)
p78
ag35
ag37
aVSullivan (019)
p79
aVCattaraugus (009)
p80
ag40
aVTioga (107)
p81
aVWindham (025)
p82
aVNewport (005)
p83
aVNassau (059)
p84
ag44
ag45
aVHillsborough (011)
p85
ag46
aVNew London (011)
p86
aVBronx (005)
p87
aVOneida (065)
p88
ag49
aVOrange (071)
p89
aVBristol (005)
p90
ag51
aVWashington (009)
p91
aVMiddlesex (007)
p92
ag52
aVChemung (015)
p93
asS'zantflav'
p94
(lp95
sS'cornrugo'
p96
(lp97
g4
aVHancock (009)
p98
aVOrleans (073)
p99
aVOntario (069)
p100
ag5
aVGenesee (037)
p101
ag7
ag59
ag8
ag9
ag60
ag10
ag11
aVSt. Lawrence (089)
p102
ag12
aVFranklin (033)
p103
ag13
aVWashington (029)
p104
ag14
aVSeneca (099)
p105
ag15
aVFranklin (011)
p106
aVClinton (019)
p107
ag16
ag62
ag17
ag18
ag64
ag19
aVOrleans (019)
p108
aVHerkimer (043)
p109
ag20
ag21
ag22
aVErie (029)
p110
ag67
aVLivingston (051)
p111
aVOxford (017)
p112
aVPenobscot (019)
p113
ag23
ag24
ag25
ag26
ag27
aVWindsor (027)
p114
ag28
ag29
ag30
ag70
ag72
ag31
aVCayuga (011)
p115
aVFranklin (007)
p116
ag32
ag75
aVHamilton (041)
p117
ag33
ag34
ag35
aVLewis (049)
p118
aVBennington (003)
p119
ag36
ag37
aVAllegany (003)
p120
ag79
aVGrand Isle (013)
p121
ag38
ag80
aVSomerset (025)
p122
ag39
ag40
ag41
aVAroostook (003)
p123
aVNiagara (063)
p124
ag42
aVChenango (017)
p125
aVMadison (053)
p126
ag82
ag43
ag45
ag85
ag46
aVGrafton (009)
p127
ag47
ag86
ag48
ag87
aVWashington (023)
p128
aVPiscataquis (021)
p129
aVOswego (075)
p130
aVCoos (007)
p131
ag88
ag49
aVChittenden (007)
p132
ag50
ag51
aVWyoming (121)
p133
ag52
ag93
asS'persborb'
p134
(lp135
sS'pithguad'
p136
(lp137
sS'alnurugo'
p138
(lp139
g4
ag98
ag99
ag100
ag5
ag101
ag6
ag7
ag59
ag8
ag9
ag60
ag10
ag11
ag102
aVCortland (023)
p140
ag12
ag103
ag13
ag104
ag14
ag105
aVSchoharie (095)
p141
ag15
ag106
ag107
ag16
ag61
ag62
ag17
ag63
ag18
ag64
ag19
ag108
ag109
ag20
ag21
ag65
ag22
ag66
ag110
ag67
ag111
ag112
ag68
ag113
ag23
ag24
ag25
ag26
ag27
ag114
ag28
ag29
ag30
ag69
aVChautauqua (013)
p142
ag70
ag71
ag72
ag31
ag115
ag116
ag74
ag32
ag75
ag117
ag33
ag76
ag77
ag34
ag78
ag35
ag118
ag119
ag36
ag37
ag120
ag79
ag121
ag38
ag80
ag122
ag39
ag40
ag41
ag123
ag124
ag42
ag81
ag125
ag126
ag82
ag43
ag83
ag44
ag45
ag85
ag46
ag127
ag47
ag86
ag48
ag87
ag128
ag129
ag130
ag131
ag88
ag49
ag89
ag90
ag132
ag50
ag51
ag91
ag92
ag133
aVDukes (007)
p143
aVNantucket (019)
p144
ag52
ag93
asS'chamthyo'
p145
(lp146
g4
ag9
ag10
ag61
ag62
ag20
ag65
ag68
ag26
ag30
ag69
ag70
ag71
ag72
ag73
ag74
ag32
ag77
ag78
ag83
ag84
ag86
ag87
ag89
ag90
ag91
ag92
asS'bursfaga'
p147
(lp148
sS'fraxtexe'
p149
(lp150
sS'tremmicr'
p151
(lp152
sS'quergamb'
p153
(lp154
sS'pinuglab'
p155
(lp156
sS'juniscop'
p157
(lp158
sS'cratsali'
p159
(lp160
sS'juniashe'
p161
(lp162
sS'alnusinu'
p163
(lp164
sS'fraxcusp'
p165
(lp166
sS'planaqua'
p167
(lp168
sS'cuprbake'
p169
(lp170
sS'stewmala'
p171
(lp172
sS'illiparv'
p173
(lp174
sS'ilexkrug'
p175
(lp176
sS'morurubr'
p177
(lp178
g4
ag100
ag5
ag101
ag8
ag9
ag11
ag61
ag62
ag19
ag65
ag69
ag71
ag32
ag119
ag126
ag84
ag87
asS'vibuprun'
p179
(lp180
g4
ag61
ag62
ag69
ag72
ag73
ag87
ag89
asS'rhuslaur'
p181
(lp182
sS'rhuscopa'
p183
(lp184
g4
ag99
ag9
ag60
ag10
ag11
ag12
ag15
ag106
ag16
ag61
ag62
ag63
ag19
ag20
ag65
ag22
ag68
ag23
ag25
ag26
ag27
ag28
ag30
ag69
ag70
ag71
ag72
ag73
ag74
ag32
ag33
ag76
ag77
ag78
ag35
ag37
ag79
ag39
ag41
ag82
ag83
ag84
ag45
ag85
ag46
ag86
ag87
ag130
ag49
ag89
ag90
ag51
ag91
ag92
ag143
ag144
ag52
asS'ximeamer'
p185
(lp186
sS'nyssogec'
p187
(lp188
sS'pinuocci'
p189
(lp190
sS'prunalle'
p191
(lp192
g10
ag86
asS'castozar'
p193
(lp194
sS'exotpani'
p195
(lp196
sS'querwisl'
p197
(lp198
sS'aesccali'
p199
(lp200
sS'thujocci'
p201
(lp202
g4
ag98
ag99
ag100
ag5
ag101
ag7
ag8
ag10
ag102
ag140
ag12
ag103
ag13
ag104
ag14
ag105
ag15
ag106
ag107
ag16
ag17
ag18
ag64
ag19
ag108
ag109
ag21
ag22
ag110
ag111
ag112
ag113
ag24
ag25
ag26
ag114
ag28
ag29
ag115
ag116
ag117
ag33
ag35
ag118
ag36
ag37
ag121
ag38
ag122
ag39
ag40
ag41
ag123
ag124
ag42
ag126
ag43
ag44
ag46
ag127
ag47
ag48
ag128
ag129
ag130
ag131
ag88
ag89
ag132
ag50
asS'juglmajo'
p203
(lp204
sS'gledtria'
p205
(lp206
sS'prunpens'
p207
(lp208
g4
ag98
ag99
ag100
ag5
ag101
ag6
ag7
ag59
ag8
ag9
ag60
ag10
ag11
ag102
ag140
ag12
ag103
ag13
ag104
ag14
ag105
ag141
ag15
ag106
ag107
ag16
ag61
ag62
ag17
ag63
ag18
ag64
ag19
ag108
ag109
ag20
ag21
ag65
ag22
ag66
ag110
ag67
ag111
ag112
ag68
ag113
ag23
ag24
ag25
ag26
ag27
ag114
ag28
ag29
ag30
ag69
ag142
ag70
ag71
ag72
ag31
ag73
ag115
ag116
ag74
ag32
ag75
ag117
ag33
ag76
ag77
ag34
ag78
ag35
ag118
ag119
ag36
ag37
ag120
ag79
ag121
ag38
ag80
ag122
ag39
ag40
ag41
ag123
ag124
ag42
ag81
ag125
ag126
ag82
ag43
ag83
ag84
ag44
ag45
ag85
ag46
ag127
ag47
ag86
ag48
ag87
ag128
ag129
ag130
ag131
ag88
ag49
ag89
ag90
ag132
ag50
ag51
ag91
ag92
ag133
ag52
ag93
asS'hamavirg'
p209
(lp210
g4
ag98
ag99
ag100
ag5
ag101
ag6
ag7
ag59
ag8
ag9
ag60
ag10
ag11
ag102
ag140
ag12
ag103
ag13
ag104
ag14
ag105
ag141
ag15
ag107
ag16
ag61
ag62
ag17
ag63
ag18
ag64
ag19
ag109
ag20
ag65
ag22
ag66
ag110
ag67
ag111
ag112
ag68
ag113
ag23
ag24
ag25
ag26
ag27
ag114
ag28
ag29
ag30
ag69
ag142
ag70
ag71
ag72
ag31
ag73
ag115
ag116
ag74
ag32
ag75
ag117
ag33
ag76
ag77
ag34
ag78
ag35
ag118
ag119
ag37
ag120
ag79
ag38
ag80
ag39
ag40
ag41
ag124
ag42
ag81
ag125
ag126
ag82
ag43
ag83
ag84
ag44
ag45
ag85
ag46
ag127
ag47
ag86
ag48
ag87
ag130
ag88
ag49
ag89
ag90
ag50
ag51
ag91
ag92
ag133
ag143
ag144
ag52
ag93
asS'salilasi'
p211
(lp212
sS'catabign'
p213
(lp214
sS'cercocci'
p215
(lp216
sS'carylaci'
p217
(lp218
g62
ag64
ag19
ag111
ag72
ag115
asS'salilaso'
p219
(lp220
sS'prunvirg'
p221
(lp222
g4
ag98
ag99
ag100
ag5
ag101
ag6
ag7
ag59
ag8
ag9
ag60
ag10
ag11
ag102
ag140
ag12
ag103
ag13
ag104
ag14
ag105
ag141
ag15
ag106
ag107
ag16
ag61
ag62
ag17
ag63
ag18
ag64
ag19
ag108
ag109
ag20
ag21
ag65
ag22
ag66
ag110
ag67
ag111
ag112
ag68
ag113
ag23
ag24
ag25
ag26
ag27
ag114
ag28
ag29
ag30
ag69
ag142
ag70
ag71
ag72
ag31
ag73
ag115
ag116
ag74
ag32
ag75
ag117
ag33
ag76
ag77
ag34
ag78
ag35
ag118
ag119
ag36
ag37
ag120
ag79
ag121
ag38
ag80
ag122
ag39
ag40
ag41
ag123
ag124
ag42
ag81
ag125
ag126
ag82
ag43
ag83
ag84
ag44
ag45
ag85
ag46
ag127
ag47
ag86
ag48
ag87
ag128
ag129
ag130
ag131
ag88
ag49
ag89
ag90
ag132
ag50
ag51
ag91
ag92
ag133
ag143
ag144
ag52
ag93
asS'erytherb'
p223
(lp224
sS'zantclav'
p225
(lp226
sS'magnpyra'
p227
(lp228
sS'sambmexi'
p229
(lp230
sS'fraxdipe'
p231
(lp232
sS'pinuvirg'
p233
(lp234
g61
ag69
ag71
ag73
ag84
asS'prunlyon'
p235
(lp236
sS'pinuteoc'
p237
(lp238
sS'bursmicr'
p239
(lp240
sS'gledaqua'
p241
(lp242
sS'ulmusero'
p243
(lp244
sS'fraxnigr'
p245
(lp246
g4
ag98
ag99
ag100
ag5
ag101
ag6
ag7
ag59
ag8
ag60
ag11
ag102
ag140
ag12
ag103
ag13
ag104
ag14
ag105
ag141
ag15
ag106
ag107
ag16
ag61
ag62
ag17
ag63
ag18
ag64
ag19
ag108
ag109
ag21
ag22
ag66
ag110
ag67
ag111
ag112
ag113
ag23
ag24
ag25
ag26
ag114
ag28
ag29
ag69
ag142
ag70
ag71
ag72
ag31
ag115
ag116
ag75
ag117
ag33
ag76
ag34
ag35
ag118
ag119
ag36
ag37
ag120
ag79
ag121
ag38
ag80
ag122
ag39
ag40
ag41
ag123
ag124
ag42
ag81
ag125
ag126
ag82
ag43
ag44
ag45
ag85
ag127
ag47
ag48
ag87
ag128
ag129
ag130
ag131
ag88
ag49
ag89
ag132
ag50
ag51
ag133
ag52
ag93
asS'pinupatu'
p247
(lp248
sS'juniflac'
p249
(lp250
sS'queroblo'
p251
(lp252
sS'sambcall'
p253
(lp254
sS'erytflab'
p255
(lp256
sS'prunsubc'
p257
(lp258
sS'carypall'
p259
(lp260
sS'cratsucc'
p261
(lp262
sS'taxucana'
p263
(lp264
g4
ag98
ag99
ag100
ag5
ag101
ag6
ag7
ag59
ag8
ag60
ag10
ag11
ag102
ag140
ag12
ag103
ag13
ag104
ag14
ag105
ag141
ag15
ag106
ag107
ag16
ag62
ag17
ag63
ag18
ag64
ag19
ag108
ag109
ag20
ag21
ag22
ag66
ag110
ag67
ag111
ag112
ag113
ag23
ag24
ag25
ag26
ag27
ag114
ag28
ag29
ag142
ag72
ag31
ag115
ag116
ag32
ag75
ag117
ag33
ag76
ag34
ag35
ag118
ag119
ag36
ag37
ag120
ag79
ag121
ag38
ag80
ag122
ag39
ag40
ag41
ag123
ag124
ag42
ag81
ag125
ag126
ag82
ag43
ag44
ag45
ag85
ag46
ag127
ag47
ag48
ag128
ag129
ag130
ag131
ag88
ag49
ag89
ag132
ag50
ag51
ag133
ag52
ag93
asS'diosvirg'
p265
(lp266
g61
ag69
ag71
ag87
asS'dodovisc'
p267
(lp268
sS'photarbu'
p269
(lp270
sS'poputrem'
p271
(lp272
g4
ag98
ag99
ag100
ag5
ag101
ag6
ag7
ag59
ag8
ag9
ag60
ag10
ag11
ag102
ag140
ag12
ag103
ag13
ag104
ag14
ag105
ag141
ag15
ag106
ag107
ag16
ag61
ag62
ag17
ag63
ag18
ag64
ag19
ag108
ag109
ag20
ag21
ag65
ag22
ag66
ag110
ag67
ag111
ag112
ag68
ag113
ag23
ag24
ag25
ag26
ag27
ag114
ag28
ag29
ag30
ag69
ag142
ag70
ag71
ag72
ag31
ag73
ag115
ag116
ag74
ag32
ag75
ag117
ag33
ag76
ag77
ag34
ag78
ag35
ag118
ag119
ag36
ag37
ag120
ag79
ag121
ag38
ag80
ag122
ag39
ag40
ag41
ag123
ag124
ag42
ag81
ag125
ag126
ag82
ag43
ag83
ag84
ag44
ag45
ag85
ag46
ag127
ag47
ag86
ag48
ag87
ag128
ag129
ag130
ag131
ag88
ag49
ag89
ag90
ag132
ag50
ag51
ag91
ag92
ag133
ag143
ag144
ag52
ag93
asS'esenberl'
p273
(lp274
sS'pinucube'
p275
(lp276
sS'diostexa'
p277
(lp278
sS'abiegran'
p279
(lp280
sS'euonocci'
p281
(lp282
sS'rhustyph'
p283
(lp284
g4
ag98
ag99
ag100
ag5
ag101
ag6
ag7
ag59
ag8
ag9
ag60
ag10
ag11
ag102
ag140
ag12
ag103
ag13
ag104
ag14
ag105
ag141
ag15
ag106
ag107
ag16
ag61
ag62
ag17
ag63
ag18
ag64
ag19
ag108
ag109
ag20
ag21
ag65
ag22
ag66
ag110
ag67
ag111
ag112
ag68
ag113
ag23
ag24
ag25
ag26
ag27
ag114
ag28
ag29
ag30
ag69
ag142
ag70
ag71
ag72
ag31
ag73
ag115
ag116
ag74
ag32
ag75
ag117
ag33
ag34
ag35
ag118
ag119
ag36
ag37
ag120
ag79
ag121
ag38
ag80
ag122
ag39
ag40
ag41
ag123
ag124
ag42
ag81
ag125
ag126
ag82
ag43
ag84
ag45
ag85
ag46
ag127
ag47
ag48
ag87
ag128
ag129
ag130
ag131
ag88
ag49
ag90
ag132
ag50
ag51
ag92
ag133
ag143
ag144
ag52
ag93
asS'vibuobov'
p285
(lp286
sS'rhusinte'
p287
(lp288
sS'torrcali'
p289
(lp290
sS'lagurace'
p291
(lp292
sS'guaiangu'
p293
(lp294
sS'cordbois'
p295
(lp296
sS'styrplat'
p297
(lp298
sS'ilexmyrt'
p299
(lp300
sS'cataspec'
p301
(lp302
sS'amelalni'
p303
(lp304
sS'jacqkeye'
p305
(lp306
sS'salialax'
p307
(lp308
sS'guaisanc'
p309
(lp310
sS'popudelt'
p311
(lp312
g99
ag101
ag8
ag14
ag105
ag141
ag61
ag64
ag19
ag21
ag110
ag67
ag111
ag25
ag29
ag69
ag71
ag115
ag124
ag47
ag130
ag49
ag52
ag93
asS'krugferr'
p313
(lp314
sS'saligeye'
p315
(lp316
sS'pinutorr'
p317
(lp318
sS'querariz'
p319
(lp320
sS'nemocoll'
p321
(lp322
sS'quermyrt'
p323
(lp324
sS'cornstol'
p325
(lp326
g4
ag98
ag99
ag100
ag101
ag6
ag7
ag8
ag60
ag11
ag102
ag140
ag12
ag103
ag13
ag104
ag14
ag141
ag15
ag106
ag107
ag16
ag61
ag62
ag17
ag18
ag64
ag19
ag108
ag109
ag20
ag21
ag22
ag66
ag110
ag111
ag112
ag113
ag23
ag24
ag26
ag114
ag28
ag29
ag30
ag142
ag70
ag72
ag31
ag115
ag116
ag32
ag75
ag117
ag33
ag34
ag35
ag118
ag119
ag36
ag37
ag79
ag121
ag38
ag80
ag122
ag39
ag40
ag41
ag123
ag124
ag42
ag81
ag125
ag126
ag82
ag43
ag85
ag46
ag127
ag47
ag48
ag87
ag128
ag129
ag130
ag131
ag88
ag49
ag132
ag50
ag51
ag133
ag52
ag93
asS'querloba'
p327
(lp328
sS'prunilic'
p329
(lp330
sS'alnuserr'
p331
(lp332
g4
ag98
ag8
ag9
ag60
ag10
ag11
ag104
ag14
ag15
ag16
ag61
ag62
ag17
ag63
ag18
ag64
ag109
ag20
ag21
ag65
ag22
ag68
ag23
ag24
ag25
ag26
ag27
ag114
ag28
ag29
ag30
ag69
ag70
ag71
ag72
ag31
ag73
ag115
ag74
ag32
ag33
ag77
ag34
ag78
ag35
ag119
ag37
ag79
ag39
ag40
ag82
ag83
ag84
ag45
ag85
ag46
ag86
ag87
ag130
ag49
ag89
ag90
ag132
ag50
ag51
ag91
ag92
ag52
asS'piceenge'
p333
(lp334
sS'coccarge'
p335
(lp336
sS'piceglau'
p337
(lp338
g98
ag103
ag13
ag104
ag106
ag107
ag17
ag18
ag108
ag109
ag22
ag112
ag113
ag28
ag116
ag117
ag36
ag37
ag121
ag122
ag39
ag123
ag43
ag48
ag128
ag129
ag131
asS'abieconc'
p339
(lp340
sS'tsugmert'
p341
(lp342
sS'maludive'
p343
(lp344
sS'celttenu'
p345
(lp346
sS'queralba'
p347
(lp348
g4
ag99
ag100
ag5
ag101
ag6
ag7
ag59
ag8
ag9
ag60
ag10
ag11
ag102
ag140
ag12
ag103
ag14
ag105
ag141
ag15
ag107
ag16
ag61
ag62
ag17
ag63
ag64
ag19
ag109
ag20
ag65
ag66
ag110
ag67
ag111
ag112
ag68
ag24
ag25
ag26
ag27
ag28
ag29
ag30
ag69
ag142
ag70
ag71
ag72
ag31
ag73
ag115
ag74
ag32
ag75
ag117
ag33
ag76
ag77
ag34
ag78
ag35
ag118
ag37
ag120
ag121
ag80
ag39
ag40
ag41
ag124
ag42
ag81
ag125
ag126
ag82
ag43
ag83
ag84
ag44
ag45
ag85
ag46
ag47
ag86
ag48
ag87
ag130
ag88
ag49
ag89
ag90
ag50
ag51
ag91
ag92
ag133
ag143
ag144
ag52
ag93
asS'rhuskear'
p349
(lp350
sS'quermacd'
p351
(lp352
sS'querilic'
p353
(lp354
g4
ag59
ag9
ag10
ag11
ag15
ag16
ag61
ag62
ag17
ag20
ag65
ag22
ag68
ag23
ag25
ag26
ag27
ag30
ag69
ag70
ag71
ag72
ag73
ag74
ag32
ag77
ag78
ag35
ag37
ag40
ag41
ag81
ag125
ag83
ag84
ag44
ag45
ag85
ag46
ag86
ag87
ag88
ag49
ag89
ag90
ag50
ag51
ag91
ag92
ag143
ag144
ag52
ag93
asS'celtlind'
p355
(lp356
sS'nyssaqua'
p357
(lp358
sS'zantcori'
p359
(lp360
sS'ilexmont'
p361
(lp362
g6
ag8
ag76
ag44
asS'ceregiga'
p363
(lp364
sS'annoglab'
p365
(lp366
sS'pinustrb'
p367
(lp368
g4
ag98
ag99
ag100
ag5
ag101
ag6
ag7
ag59
ag8
ag9
ag60
ag10
ag11
ag102
ag140
ag12
ag103
ag13
ag104
ag14
ag105
ag141
ag15
ag106
ag107
ag16
ag61
ag62
ag17
ag63
ag18
ag64
ag19
ag108
ag109
ag20
ag21
ag65
ag22
ag66
ag110
ag67
ag111
ag112
ag68
ag113
ag23
ag24
ag25
ag26
ag27
ag114
ag28
ag29
ag30
ag69
ag142
ag70
ag71
ag72
ag31
ag73
ag115
ag116
ag74
ag32
ag75
ag117
ag33
ag76
ag77
ag34
ag78
ag35
ag118
ag119
ag36
ag37
ag120
ag79
ag121
ag38
ag80
ag122
ag39
ag40
ag41
ag123
ag124
ag42
ag81
ag125
ag126
ag82
ag43
ag83
ag84
ag44
ag45
ag85
ag46
ag127
ag47
ag86
ag48
ag87
ag128
ag129
ag130
ag131
ag88
ag49
ag89
ag90
ag132
ag50
ag51
ag91
ag92
ag133
ag143
ag52
ag93
asS'robipseu'
p369
(lp370
sS'salicaro'
p371
(lp372
sS'morumicr'
p373
(lp374
sS'bourovat'
p375
(lp376
sS'cercbrev'
p377
(lp378
sS'ilexopac'
p379
(lp380
g30
ag69
ag73
asS'saliscou'
p381
(lp382
sS'cornrace'
p383
(lp384
g4
ag99
ag100
ag5
ag101
ag6
ag7
ag59
ag8
ag9
ag60
ag10
ag11
ag140
ag12
ag14
ag105
ag141
ag16
ag61
ag62
ag63
ag64
ag19
ag20
ag21
ag66
ag110
ag67
ag111
ag68
ag23
ag24
ag25
ag26
ag27
ag114
ag29
ag30
ag69
ag142
ag70
ag71
ag72
ag31
ag115
ag74
ag32
ag75
ag33
ag76
ag77
ag34
ag78
ag119
ag120
ag79
ag80
ag39
ag40
ag124
ag42
ag81
ag125
ag126
ag82
ag83
ag44
ag45
ag85
ag46
ag127
ag86
ag87
ag130
ag88
ag49
ag89
ag90
ag50
ag51
ag91
ag92
ag133
ag52
ag93
asS'euonatro'
p385
(lp386
g99
ag101
ag110
ag67
ag111
ag29
ag124
asS'ilexvert'
p387
(lp388
g4
ag98
ag99
ag100
ag5
ag101
ag6
ag7
ag59
ag8
ag9
ag60
ag10
ag11
ag102
ag140
ag12
ag103
ag13
ag104
ag14
ag105
ag141
ag15
ag106
ag107
ag16
ag61
ag62
ag17
ag63
ag18
ag64
ag19
ag108
ag109
ag20
ag21
ag65
ag22
ag66
ag110
ag67
ag111
ag112
ag68
ag113
ag23
ag24
ag25
ag26
ag27
ag114
ag28
ag29
ag30
ag69
ag142
ag70
ag71
ag72
ag31
ag73
ag115
ag116
ag74
ag32
ag75
ag117
ag33
ag76
ag77
ag34
ag78
ag35
ag118
ag119
ag36
ag37
ag120
ag79
ag121
ag38
ag80
ag122
ag39
ag40
ag41
ag123
ag124
ag42
ag81
ag125
ag126
ag82
ag43
ag83
ag84
ag44
ag45
ag85
ag46
ag127
ag47
ag86
ag48
ag87
ag128
ag129
ag130
ag131
ag88
ag49
ag89
ag90
ag132
ag50
ag51
ag91
ag92
ag133
ag143
ag144
ag52
ag93
asS'pinunels'
p389
(lp390
sS'carytome'
p391
(lp392
g4
ag7
ag8
ag9
ag10
ag11
ag12
ag14
ag61
ag62
ag19
ag65
ag25
ag29
ag30
ag69
ag142
ag70
ag71
ag72
ag115
ag74
ag32
ag77
ag78
ag40
ag81
ag84
ag45
ag86
ag87
ag88
ag49
ag89
ag132
ag91
ag92
ag144
ag52
asS'abiebals'
p393
(lp394
g98
ag6
ag8
ag102
ag140
ag103
ag13
ag104
ag14
ag141
ag15
ag106
ag107
ag17
ag18
ag19
ag108
ag109
ag21
ag22
ag112
ag113
ag23
ag24
ag114
ag28
ag31
ag116
ag75
ag117
ag33
ag76
ag34
ag118
ag119
ag36
ag37
ag79
ag121
ag38
ag80
ag122
ag39
ag40
ag41
ag123
ag125
ag126
ag82
ag43
ag44
ag127
ag47
ag48
ag128
ag129
ag131
ag88
ag132
ag50
ag133
ag93
asS'yuccrost'
p395
(lp396
sS'quershum'
p397
(lp398
sS'juniocci'
p399
(lp400
sS'taxomucr'
p401
(lp402
sS'junihori'
p403
(lp404
g98
ag8
ag20
ag22
ag28
ag29
ag37
ag50
asS'lyonferr'
p405
(lp406
sS'prunumbe'
p407
(lp408
sS'cowamexi'
p409
(lp410
sS'aescsylv'
p411
(lp412
sS'schochry'
p413
(lp414
sS'myricali'
p415
(lp416
sS'querinca'
p417
(lp418
sS'cratdoug'
p419
(lp420
sS'salisitc'
p421
(lp422
sS'magnfras'
p423
(lp424
sS'quergarr'
p425
(lp426
sS'lithdens'
p427
(lp428
sS'tsughete'
p429
(lp430
sS'maclpomi'
p431
(lp432
sS'prunfrem'
p433
(lp434
sS'picesitc'
p435
(lp436
sS'rhamcaro'
p437
(lp438
sS'exoscari'
p439
(lp440
sS'cupaglab'
p441
(lp442
sS'betuuber'
p443
(lp444
sS'quernigr'
p445
(lp446
sS'sophaffi'
p447
(lp448
sS'castdent'
p449
(lp450
g4
ag100
ag5
ag7
ag59
ag8
ag9
ag10
ag11
ag14
ag105
ag106
ag16
ag61
ag62
ag17
ag63
ag64
ag19
ag20
ag65
ag22
ag110
ag67
ag111
ag23
ag25
ag27
ag28
ag29
ag30
ag69
ag142
ag70
ag71
ag72
ag31
ag73
ag74
ag32
ag77
ag78
ag37
ag120
ag39
ag42
ag81
ag125
ag83
ag84
ag45
ag46
ag86
ag87
ag130
ag88
ag49
ag89
ag90
ag132
ag50
ag51
ag91
ag92
ag52
ag93
asS'pinusero'
p451
(lp452
sS'ostrknow'
p453
(lp454
sS'corndrum'
p455
(lp456
sS'ilexvomi'
p457
(lp458
sS'pinuooca'
p459
(lp460
sS'ceanarbo'
p461
(lp462
sS'cithfrut'
p463
(lp464
sS'leucretu'
p465
(lp466
sS'staptrif'
p467
(lp468
g4
ag99
ag100
ag5
ag101
ag7
ag8
ag11
ag12
ag14
ag61
ag62
ag64
ag19
ag110
ag25
ag29
ag142
ag70
ag72
ag31
ag73
ag115
ag74
ag33
ag34
ag79
ag40
ag124
ag126
ag43
ag87
ag130
ag49
ag52
asS'gordlasi'
p469
(lp470
sS'lyonflor'
p471
(lp472
sS'pinumont'
p473
(lp474
sS'salilaev'
p475
(lp476
sS'acersacc'
p477
(lp478
g4
ag99
ag100
ag5
ag101
ag6
ag7
ag59
ag8
ag9
ag60
ag10
ag11
ag102
ag140
ag12
ag103
ag13
ag14
ag105
ag141
ag15
ag106
ag107
ag16
ag62
ag17
ag63
ag64
ag19
ag108
ag109
ag20
ag21
ag22
ag66
ag110
ag67
ag111
ag112
ag113
ag23
ag24
ag25
ag26
ag27
ag114
ag29
ag142
ag72
ag31
ag115
ag116
ag74
ag32
ag75
ag117
ag33
ag76
ag34
ag35
ag118
ag119
ag36
ag37
ag120
ag79
ag121
ag38
ag80
ag122
ag39
ag40
ag41
ag124
ag42
ag81
ag125
ag126
ag82
ag43
ag44
ag45
ag85
ag46
ag127
ag47
ag48
ag87
ag128
ag129
ag130
ag131
ag88
ag49
ag89
ag132
ag50
ag51
ag92
ag133
ag52
ag93
asS'cercbetu'
p479
(lp480
sS'pinumono'
p481
(lp482
sS'rhizmang'
p483
(lp484
sS'fraxprof'
p485
(lp486
sS'junipinc'
p487
(lp488
sS'platwrig'
p489
(lp490
sS'betunana'
p491
(lp492
sS'cotiobov'
p493
(lp494
sS'pinuatte'
p495
(lp496
sS'cuprariz'
p497
(lp498
sS'nolibige'
p499
(lp500
sS'castpumi'
p501
(lp502
sS'magnvirg'
p503
(lp504
g61
ag87
asS'guapdisc'
p505
(lp506
sS'quergris'
p507
(lp508
sS'fraxamer'
p509
(lp510
g4
ag98
ag99
ag100
ag5
ag101
ag6
ag7
ag59
ag8
ag9
ag60
ag10
ag11
ag102
ag140
ag12
ag103
ag13
ag104
ag14
ag105
ag141
ag15
ag106
ag107
ag16
ag61
ag62
ag17
ag63
ag18
ag64
ag19
ag108
ag109
ag20
ag21
ag65
ag22
ag66
ag110
ag67
ag111
ag112
ag68
ag113
ag23
ag24
ag25
ag26
ag27
ag114
ag28
ag29
ag30
ag69
ag142
ag70
ag71
ag72
ag31
ag73
ag115
ag116
ag74
ag32
ag75
ag117
ag33
ag76
ag77
ag34
ag78
ag35
ag118
ag119
ag36
ag37
ag120
ag79
ag121
ag38
ag80
ag122
ag39
ag40
ag41
ag123
ag124
ag42
ag81
ag125
ag126
ag82
ag43
ag83
ag84
ag44
ag45
ag85
ag46
ag127
ag47
ag86
ag48
ag87
ag128
ag129
ag130
ag131
ag88
ag49
ag89
ag90
ag132
ag50
ag51
ag91
ag92
ag133
ag143
ag144
ag52
ag93
asS'abieamab'
p511
(lp512
sS'gymilati'
p513
(lp514
sS'acercirc'
p515
(lp516
sS'abiemagn'
p517
(lp518
sS'cyrirace'
p519
(lp520
sS'acergran'
p521
(lp522
sS'pinugreg'
p523
(lp524
sS'mastfoet'
p525
(lp526
sS'salipeti'
p527
(lp528
g4
ag98
ag99
ag5
ag101
ag7
ag8
ag9
ag60
ag11
ag140
ag12
ag103
ag13
ag104
ag105
ag15
ag106
ag107
ag16
ag17
ag18
ag64
ag19
ag108
ag20
ag21
ag22
ag110
ag112
ag68
ag113
ag23
ag24
ag26
ag27
ag114
ag28
ag29
ag30
ag72
ag31
ag115
ag116
ag32
ag34
ag35
ag118
ag119
ag36
ag37
ag79
ag121
ag38
ag122
ag39
ag41
ag124
ag125
ag126
ag82
ag84
ag44
ag85
ag46
ag127
ag128
ag129
ag130
ag131
ag88
ag49
ag132
ag50
ag51
ag92
ag144
ag52
asS'pinuresi'
p529
(lp530
g4
ag98
ag99
ag5
ag6
ag7
ag59
ag60
ag11
ag102
ag12
ag103
ag13
ag104
ag14
ag141
ag15
ag106
ag107
ag16
ag17
ag18
ag19
ag108
ag109
ag20
ag21
ag22
ag67
ag112
ag113
ag23
ag24
ag25
ag26
ag114
ag28
ag31
ag116
ag117
ag33
ag35
ag36
ag37
ag79
ag121
ag38
ag122
ag39
ag41
ag123
ag42
ag81
ag125
ag43
ag85
ag46
ag127
ag47
ag48
ag87
ag128
ag129
ag131
ag88
ag132
ag50
ag51
ag93
asS'fraxlati'
p531
(lp532
sS'fraxberl'
p533
(lp534
sS'pinubalf'
p535
(lp536
sS'ficucitr'
p537
(lp538
sS'abiebrac'
p539
(lp540
sS'pinuradi'
p541
(lp542
sS'myrcfrag'
p543
(lp544
sS'quervelu'
p545
(lp546
g4
ag99
ag7
ag59
ag9
ag60
ag10
ag11
ag14
ag15
ag16
ag61
ag62
ag17
ag19
ag20
ag65
ag111
ag68
ag25
ag26
ag27
ag28
ag29
ag30
ag69
ag70
ag71
ag72
ag31
ag73
ag74
ag32
ag33
ag77
ag78
ag37
ag79
ag80
ag40
ag124
ag42
ag82
ag83
ag84
ag45
ag46
ag47
ag86
ag87
ag49
ag89
ag90
ag51
ag91
ag92
ag143
ag144
ag52
ag93
asS'aescparv'
p547
(lp548
sS'pinucont'
p549
(lp550
sS'sabapalm'
p551
(lp552
sS'betuocci'
p553
(lp554
sS'larrdiva'
p555
(lp556
sS'sapidrum'
p557
(lp558
sS'pinuaris'
p559
(lp560
sS'rhampurs'
p561
(lp562
sS'artetrid'
p563
(lp564
sS'maluangu'
p565
(lp566
sS'rhusglab'
p567
(lp568
g4
ag99
ag100
ag5
ag101
ag7
ag9
ag60
ag10
ag12
ag105
ag141
ag15
ag16
ag61
ag62
ag17
ag63
ag64
ag19
ag20
ag65
ag67
ag111
ag68
ag23
ag25
ag26
ag27
ag28
ag29
ag30
ag69
ag70
ag71
ag72
ag73
ag115
ag74
ag32
ag33
ag77
ag78
ag35
ag39
ag124
ag81
ag83
ag84
ag45
ag85
ag46
ag86
ag87
ag130
ag49
ag90
ag51
ag91
ag92
ag143
ag144
ag52
ag93
asS'nectcori'
p569
(lp570
sS'pinucari'
p571
(lp572
sS'eysepoly'
p573
(lp574
sS'heliparv'
p575
(lp576
sS'eugeconf'
p577
(lp578
sS'illiflor'
p579
(lp580
sS'haleparv'
p581
(lp582
sS'juglmicr'
p583
(lp584
sS'pteltrif'
p585
(lp586
sS'abiefras'
p587
(lp588
sS'acernegu'
p589
(lp590
g63
ag19
ag40
ag81
ag132
asS'pinudoug'
p591
(lp592
sS'yucccarn'
p593
(lp594
sS'cornnutt'
p595
(lp596
sS'fraxcaro'
p597
(lp598
sS'crattrac'
p599
(lp600
sS'prunnigr'
p601
(lp602
g60
ag12
ag13
ag14
ag141
ag15
ag106
ag107
ag16
ag17
ag18
ag19
ag108
ag20
ag21
ag22
ag111
ag112
ag23
ag24
ag26
ag27
ag114
ag28
ag31
ag116
ag32
ag34
ag35
ag119
ag36
ag37
ag79
ag121
ag38
ag39
ag41
ag126
ag82
ag43
ag85
ag46
ag127
ag128
ag131
ag88
ag49
ag132
ag50
ag51
ag133
asS'fraxvelu'
p603
(lp604
sS'caryflor'
p605
(lp606
sS'querlaur'
p607
(lp608
sS'pisttexa'
p609
(lp610
sS'acerleuc'
p611
(lp612
sS'eugeaxil'
p613
(lp614
sS'ilexcori'
p615
(lp616
sS'thujplic'
p617
(lp618
sS'crateryt'
p619
(lp620
sS'pinuhart'
p621
(lp622
sS'arbumenz'
p623
(lp624
sS'metotoxi'
p625
(lp626
sS'alvaamor'
p627
(lp628
sS'pinusabi'
p629
(lp630
sS'prunamer'
p631
(lp632
g4
ag7
ag8
ag9
ag10
ag11
ag12
ag13
ag105
ag16
ag61
ag62
ag108
ag20
ag23
ag25
ag27
ag30
ag70
ag72
ag31
ag32
ag78
ag36
ag80
ag40
ag124
ag125
ag45
ag46
ag86
ag87
ag49
ag132
ag91
ag52
ag93
asS'cornstri'
p633
(lp634
sS'yuccscho'
p635
(lp636
sS'yuccaloi'
p637
(lp638
sS'vibutril'
p639
(lp640
g4
ag98
ag99
ag100
ag101
ag6
ag7
ag8
ag60
ag11
ag102
ag12
ag103
ag13
ag104
ag14
ag105
ag106
ag107
ag16
ag17
ag18
ag64
ag108
ag109
ag20
ag21
ag22
ag110
ag112
ag113
ag23
ag24
ag25
ag27
ag114
ag29
ag142
ag31
ag115
ag116
ag32
ag117
ag33
ag34
ag35
ag118
ag119
ag36
ag79
ag121
ag38
ag80
ag122
ag39
ag40
ag41
ag123
ag124
ag42
ag126
ag82
ag43
ag85
ag46
ag127
ag47
ag48
ag128
ag129
ag130
ag131
ag88
ag49
ag132
ag50
ag51
ag52
asS'bumetena'
p641
(lp642
sS'fremmexi'
p643
(lp644
sS'salipyri'
p645
(lp646
g98
ag104
ag15
ag107
ag17
ag18
ag108
ag22
ag112
ag113
ag28
ag116
ag37
ag122
ag39
ag41
ag123
ag129
ag131
asS'platrace'
p647
(lp648
sS'rhodmacr'
p649
(lp650
sS'eugerhom'
p651
(lp652
sS'lirituli'
p653
(lp654
g4
ag99
ag100
ag101
ag8
ag9
ag10
ag105
ag61
ag62
ag64
ag19
ag65
ag110
ag67
ag111
ag25
ag29
ag69
ag70
ag71
ag72
ag73
ag115
ag74
ag78
ag40
ag124
ag81
ag45
ag86
ag87
ag89
ag132
ag50
ag91
ag92
ag133
ag52
asS'pinupalu'
p655
(lp656
sS'ulmurubr'
p657
(lp658
g4
ag99
ag100
ag5
ag101
ag6
ag7
ag59
ag8
ag9
ag10
ag11
ag102
ag140
ag12
ag103
ag13
ag14
ag105
ag141
ag106
ag107
ag61
ag62
ag63
ag64
ag19
ag109
ag21
ag65
ag66
ag110
ag67
ag111
ag24
ag25
ag26
ag27
ag114
ag29
ag30
ag69
ag142
ag70
ag72
ag31
ag73
ag115
ag74
ag75
ag117
ag33
ag76
ag34
ag78
ag118
ag119
ag120
ag121
ag38
ag80
ag40
ag124
ag42
ag81
ag125
ag126
ag82
ag43
ag44
ag45
ag47
ag86
ag48
ag87
ag128
ag130
ag88
ag49
ag89
ag132
ag50
ag91
ag92
ag133
ag52
ag93
asS'tsugcana'
p659
(lp660
g4
ag98
ag99
ag100
ag5
ag101
ag6
ag7
ag59
ag8
ag9
ag60
ag10
ag11
ag102
ag140
ag12
ag103
ag13
ag104
ag14
ag105
ag141
ag15
ag106
ag107
ag16
ag61
ag62
ag17
ag63
ag18
ag64
ag19
ag108
ag109
ag20
ag21
ag65
ag22
ag66
ag110
ag67
ag111
ag112
ag68
ag113
ag23
ag24
ag25
ag26
ag27
ag114
ag28
ag29
ag30
ag69
ag142
ag70
ag71
ag72
ag31
ag73
ag115
ag116
ag74
ag32
ag75
ag117
ag33
ag76
ag77
ag34
ag78
ag35
ag118
ag119
ag36
ag37
ag120
ag79
ag121
ag38
ag80
ag122
ag39
ag40
ag41
ag123
ag124
ag42
ag81
ag125
ag126
ag82
ag43
ag83
ag84
ag44
ag45
ag85
ag46
ag127
ag47
ag86
ag48
ag87
ag128
ag129
ag130
ag131
ag88
ag49
ag89
ag90
ag132
ag50
ag51
ag91
ag92
ag133
ag143
ag144
ag52
ag93
asS'maytphyl'
p661
(lp662
sS'coccuvif'
p663
(lp664
sS'toxivern'
p665
(lp666
g4
ag5
ag101
ag7
ag8
ag9
ag60
ag10
ag11
ag12
ag15
ag16
ag61
ag62
ag19
ag20
ag65
ag22
ag68
ag23
ag25
ag26
ag27
ag30
ag69
ag70
ag71
ag72
ag31
ag73
ag74
ag32
ag77
ag34
ag78
ag35
ag40
ag81
ag126
ag82
ag83
ag84
ag45
ag85
ag46
ag86
ag87
ag49
ag90
ag50
ag51
ag91
ag92
ag143
ag144
ag52
ag93
asS'caryilli'
p667
(lp668
sS'tremlama'
p669
(lp670
sS'betualle'
p671
(lp672
g4
ag98
ag99
ag100
ag5
ag101
ag6
ag7
ag59
ag8
ag9
ag60
ag10
ag11
ag102
ag140
ag12
ag103
ag13
ag104
ag14
ag105
ag141
ag15
ag106
ag107
ag16
ag61
ag62
ag17
ag63
ag18
ag64
ag19
ag108
ag109
ag20
ag21
ag22
ag66
ag110
ag67
ag111
ag112
ag68
ag113
ag23
ag24
ag25
ag26
ag27
ag114
ag28
ag29
ag30
ag142
ag70
ag71
ag72
ag31
ag115
ag116
ag74
ag32
ag75
ag117
ag33
ag76
ag77
ag34
ag78
ag35
ag118
ag119
ag36
ag37
ag120
ag79
ag121
ag38
ag80
ag122
ag39
ag40
ag41
ag123
ag124
ag42
ag81
ag125
ag126
ag82
ag43
ag84
ag44
ag45
ag85
ag46
ag127
ag47
ag86
ag48
ag87
ag128
ag129
ag130
ag131
ag88
ag49
ag89
ag90
ag132
ag50
ag51
ag91
ag92
ag133
ag52
ag93
asS'fraxanom'
p673
(lp674
sS'pithpall'
p675
(lp676
sS'salimack'
p677
(lp678
sS'carymyri'
p679
(lp680
sS'querchry'
p681
(lp682
sS'garrelli'
p683
(lp684
sS'franalat'
p685
(lp686
sS'malucoro'
p687
(lp688
g100
ag8
ag19
ag111
ag29
ag80
ag81
ag88
ag93
asS'clusrose'
p689
(lp690
sS'robikels'
p691
(lp692
sS'betupopu'
p693
(lp694
g4
ag98
ag101
ag9
ag60
ag10
ag11
ag102
ag103
ag13
ag104
ag14
ag15
ag106
ag107
ag16
ag61
ag62
ag17
ag18
ag108
ag109
ag20
ag21
ag65
ag22
ag112
ag68
ag113
ag23
ag24
ag25
ag26
ag27
ag114
ag28
ag30
ag69
ag70
ag71
ag72
ag31
ag73
ag116
ag74
ag32
ag117
ag33
ag77
ag34
ag78
ag35
ag118
ag119
ag36
ag37
ag79
ag121
ag38
ag122
ag39
ag40
ag41
ag81
ag126
ag82
ag43
ag83
ag84
ag45
ag85
ag46
ag127
ag47
ag86
ag48
ag87
ag128
ag131
ag88
ag49
ag89
ag90
ag132
ag50
ag51
ag91
ag92
ag143
ag144
ag52
ag93
asS'picebrew'
p695
(lp696
sS'thriradi'
p697
(lp698
sS'saliexig'
p699
(lp700
g99
ag100
ag101
ag7
ag8
ag12
ag105
ag64
ag110
ag111
ag29
ag69
ag142
ag71
ag31
ag115
ag79
ag121
ag80
ag124
ag81
ag125
ag130
ag88
ag49
ag132
ag92
ag93
asS'abieproc'
p701
(lp702
sS'betulent'
p703
(lp704
g4
ag99
ag100
ag5
ag101
ag6
ag7
ag59
ag8
ag9
ag60
ag10
ag11
ag140
ag12
ag14
ag105
ag141
ag15
ag16
ag61
ag62
ag17
ag63
ag64
ag19
ag20
ag65
ag66
ag110
ag67
ag111
ag68
ag23
ag24
ag25
ag26
ag27
ag29
ag30
ag69
ag142
ag70
ag71
ag72
ag31
ag115
ag74
ag32
ag75
ag33
ag76
ag77
ag34
ag78
ag35
ag119
ag120
ag79
ag80
ag39
ag40
ag41
ag124
ag42
ag81
ag125
ag126
ag82
ag84
ag44
ag45
ag85
ag46
ag86
ag87
ag130
ag88
ag49
ag89
ag90
ag50
ag51
ag91
ag92
ag133
ag52
ag93
asS'cercmicr'
p705
(lp706
sS'quermueh'
p707
(lp708
g99
ag101
ag8
ag105
ag62
ag65
ag110
ag111
ag29
ag72
ag115
ag74
ag40
ag124
asS'magngran'
p709
(lp710
sS'aescpavi'
p711
(lp712
sS'alnuoblo'
p713
(lp714
sS'pinuprin'
p715
(lp716
sS'carytexa'
p717
(lp718
sS'pinuflex'
p719
(lp720
sS'prunmuns'
p721
(lp722
sS'drypdive'
p723
(lp724
sS'castalni'
p725
(lp726
sS'cephocci'
p727
(lp728
g4
ag98
ag99
ag100
ag5
ag101
ag6
ag7
ag59
ag8
ag9
ag60
ag10
ag11
ag102
ag140
ag12
ag103
ag104
ag14
ag105
ag141
ag15
ag107
ag16
ag61
ag62
ag17
ag63
ag18
ag64
ag19
ag109
ag20
ag21
ag65
ag22
ag66
ag110
ag67
ag111
ag112
ag68
ag23
ag24
ag25
ag26
ag27
ag28
ag29
ag30
ag69
ag142
ag70
ag71
ag72
ag31
ag73
ag115
ag74
ag32
ag75
ag117
ag33
ag76
ag77
ag34
ag78
ag35
ag118
ag119
ag37
ag120
ag79
ag121
ag80
ag39
ag40
ag41
ag124
ag42
ag81
ag125
ag126
ag82
ag43
ag83
ag84
ag44
ag45
ag85
ag46
ag127
ag47
ag86
ag48
ag87
ag130
ag88
ag49
ag89
ag90
ag132
ag50
ag51
ag91
ag92
ag133
ag143
ag144
ag52
ag93
asS'ulmualat'
p729
(lp730
sS'amelarbo'
p731
(lp732
g4
ag98
ag99
ag100
ag5
ag101
ag6
ag7
ag59
ag8
ag9
ag60
ag10
ag11
ag102
ag140
ag12
ag103
ag13
ag104
ag14
ag105
ag141
ag15
ag106
ag107
ag16
ag61
ag62
ag17
ag63
ag18
ag64
ag19
ag108
ag109
ag20
ag21
ag65
ag22
ag66
ag110
ag67
ag111
ag112
ag68
ag113
ag23
ag24
ag25
ag26
ag27
ag114
ag28
ag29
ag30
ag69
ag142
ag70
ag71
ag72
ag31
ag73
ag115
ag116
ag74
ag32
ag75
ag117
ag33
ag76
ag77
ag34
ag78
ag35
ag118
ag119
ag36
ag37
ag120
ag79
ag121
ag38
ag80
ag122
ag39
ag40
ag41
ag123
ag124
ag42
ag81
ag125
ag126
ag82
ag43
ag83
ag84
ag44
ag45
ag85
ag46
ag127
ag47
ag86
ag48
ag87
ag128
ag129
ag130
ag131
ag88
ag49
ag89
ag90
ag132
ag50
ag51
ag91
ag92
ag133
ag143
ag144
ag52
ag93
asS'coluelli'
p733
(lp734
sS'burssima'
p735
(lp736
sS'yucctrec'
p737
(lp738
sS'queragri'
p739
(lp740
sS'cornalte'
p741
(lp742
g4
ag98
ag99
ag100
ag5
ag101
ag6
ag7
ag59
ag8
ag9
ag60
ag10
ag11
ag102
ag140
ag12
ag103
ag13
ag104
ag14
ag105
ag141
ag15
ag106
ag107
ag16
ag61
ag62
ag17
ag63
ag18
ag64
ag19
ag108
ag109
ag20
ag21
ag22
ag66
ag110
ag67
ag111
ag112
ag68
ag113
ag23
ag24
ag25
ag26
ag27
ag114
ag28
ag29
ag30
ag69
ag142
ag71
ag31
ag73
ag115
ag116
ag74
ag32
ag75
ag117
ag33
ag76
ag77
ag34
ag78
ag35
ag118
ag119
ag36
ag37
ag120
ag79
ag121
ag38
ag80
ag122
ag39
ag40
ag41
ag123
ag124
ag42
ag81
ag125
ag126
ag82
ag43
ag83
ag44
ag45
ag85
ag46
ag127
ag47
ag86
ag48
ag87
ag128
ag129
ag130
ag131
ag88
ag49
ag89
ag90
ag132
ag50
ag51
ag91
ag92
ag133
ag143
ag144
ag52
ag93
asS'pinuayac'
p743
(lp744
sS'alnutenu'
p745
(lp746
sS'querdunn'
p747
(lp748
sS'ungnspec'
p749
(lp750
sS'picepung'
p751
(lp752
sS'pinupung'
p753
(lp754
sS'vibulent'
p755
(lp756
g4
ag98
ag99
ag101
ag6
ag7
ag8
ag9
ag60
ag10
ag11
ag102
ag140
ag12
ag103
ag104
ag14
ag141
ag15
ag106
ag107
ag16
ag61
ag62
ag17
ag63
ag18
ag64
ag19
ag109
ag20
ag21
ag22
ag66
ag110
ag111
ag112
ag68
ag113
ag23
ag24
ag25
ag26
ag27
ag114
ag28
ag29
ag30
ag69
ag142
ag70
ag71
ag72
ag31
ag73
ag74
ag32
ag75
ag117
ag33
ag76
ag77
ag34
ag78
ag35
ag118
ag119
ag36
ag37
ag79
ag121
ag38
ag80
ag39
ag40
ag41
ag124
ag42
ag81
ag125
ag126
ag82
ag43
ag83
ag44
ag45
ag85
ag46
ag47
ag86
ag48
ag87
ag128
ag130
ag88
ag49
ag89
ag90
ag132
ag50
ag51
ag91
ag92
ag133
ag52
ag93
asS'ehreanac'
p757
(lp758
sS'pseumenz'
p759
(lp760
sS'prosjuli'
p761
(lp762
sS'tilihete'
p763
(lp764
g8
ag19
asS'ilexlong'
p765
(lp766
sS'prunhort'
p767
(lp768
sS'yuccglor'
p769
(lp770
sS'juglnigr'
p771
(lp772
g4
ag7
ag8
ag105
ag61
ag62
ag65
ag111
ag69
ag71
ag72
ag31
ag73
ag124
ag84
ag87
ag93
asS'canewint'
p773
(lp774
sS'forephil'
p775
(lp776
sS'alnurubr'
p777
(lp778
sS'pinuelli'
p779
(lp780
sS'betunigr'
p781
(lp782
g4
ag61
ag62
ag20
ag65
ag73
ag84
ag46
ag87
ag89
ag51
ag93
asS'cladkent'
p783
(lp784
sS'acacmacr'
p785
(lp786
sS'salifluv'
p787
(lp788
sS'acermacr'
p789
(lp790
sS'querimbr'
p791
(lp792
sS'gymnluci'
p793
(lp794
sS'acerglab'
p795
(lp796
sS'magnashe'
p797
(lp798
sS'picemari'
p799
(lp800
g4
ag98
ag7
ag8
ag9
ag60
ag10
ag102
ag12
ag103
ag13
ag104
ag14
ag15
ag106
ag107
ag16
ag17
ag18
ag19
ag108
ag109
ag20
ag21
ag22
ag112
ag113
ag23
ag24
ag25
ag26
ag27
ag114
ag28
ag30
ag31
ag116
ag32
ag117
ag33
ag34
ag35
ag118
ag119
ag36
ag37
ag79
ag121
ag38
ag80
ag122
ag39
ag40
ag41
ag123
ag126
ag82
ag43
ag44
ag45
ag85
ag46
ag127
ag47
ag48
ag128
ag129
ag130
ag131
ag88
ag49
ag89
ag132
ag50
ag51
ag133
ag52
asS'ulmuamer'
p801
(lp802
g4
ag98
ag99
ag100
ag5
ag101
ag6
ag7
ag59
ag8
ag9
ag60
ag10
ag11
ag102
ag140
ag12
ag103
ag13
ag104
ag14
ag105
ag141
ag15
ag106
ag107
ag16
ag61
ag62
ag17
ag63
ag18
ag64
ag19
ag108
ag109
ag20
ag21
ag65
ag22
ag66
ag110
ag67
ag111
ag112
ag68
ag113
ag23
ag24
ag25
ag26
ag27
ag114
ag28
ag29
ag30
ag69
ag142
ag70
ag71
ag72
ag31
ag73
ag115
ag116
ag74
ag32
ag75
ag117
ag33
ag76
ag77
ag34
ag78
ag35
ag118
ag119
ag36
ag37
ag120
ag79
ag121
ag38
ag80
ag122
ag39
ag40
ag41
ag123
ag124
ag42
ag81
ag125
ag126
ag82
ag43
ag83
ag84
ag44
ag45
ag85
ag46
ag127
ag47
ag86
ag48
ag87
ag128
ag129
ag130
ag131
ag88
ag49
ag89
ag90
ag132
ag50
ag51
ag91
ag92
ag133
ag143
ag144
ag52
ag93
asS'sequgiga'
p803
(lp804
sS'sassalbi'
p805
(lp806
g4
ag99
ag100
ag5
ag101
ag7
ag8
ag9
ag10
ag11
ag12
ag105
ag141
ag15
ag61
ag62
ag64
ag19
ag20
ag65
ag110
ag111
ag68
ag25
ag27
ag114
ag29
ag30
ag69
ag142
ag70
ag71
ag72
ag31
ag73
ag115
ag74
ag32
ag77
ag34
ag78
ag40
ag124
ag81
ag83
ag84
ag45
ag46
ag86
ag87
ag130
ag49
ag89
ag90
ag51
ag91
ag92
ag143
ag144
ag52
ag93
asS'haledipt'
p807
(lp808
sS'cletacum'
p809
(lp810
sS'cuprmacn'
p811
(lp812
sS'amphlati'
p813
(lp814
sS'pinumuri'
p815
(lp816
sS'myrihete'
p817
(lp818
sS'cuprmacr'
p819
(lp820
sS'sorbscop'
p821
(lp822
sS'acacchor'
p823
(lp824
sS'torrtaxi'
p825
(lp826
sS'pinucemb'
p827
(lp828
sS'popuhinc'
p829
(lp830
sS'cratchry'
p831
(lp832
sS'pinuwash'
p833
(lp834
sS'sabamino'
p835
(lp836
sS'quergrav'
p837
(lp838
sS'ardiesca'
p839
(lp840
sS'coccdive'
p841
(lp842
sS'canoholo'
p843
(lp844
sS'acacrigi'
p845
(lp846
sS'quergrac'
p847
(lp848
sS'pinucoop'
p849
(lp850
sS'tsugcaro'
p851
(lp852
sS'myriceri'
p853
(lp854
sS'symptinc'
p855
(lp856
sS'prunmexi'
p857
(lp858
sS'washfili'
p859
(lp860
sS'ilexcass'
p861
(lp862
sS'osmaamer'
p863
(lp864
sS'querphel'
p865
(lp866
sS'salibebb'
p867
(lp868
g4
ag98
ag99
ag100
ag5
ag101
ag6
ag7
ag59
ag8
ag9
ag60
ag10
ag11
ag102
ag140
ag12
ag103
ag13
ag104
ag14
ag105
ag141
ag15
ag106
ag107
ag16
ag17
ag63
ag18
ag64
ag19
ag108
ag109
ag20
ag21
ag22
ag66
ag110
ag67
ag111
ag112
ag68
ag113
ag23
ag24
ag25
ag26
ag27
ag114
ag28
ag29
ag30
ag142
ag70
ag72
ag31
ag115
ag116
ag74
ag32
ag75
ag117
ag33
ag76
ag77
ag34
ag78
ag35
ag118
ag119
ag36
ag37
ag120
ag79
ag121
ag38
ag80
ag122
ag39
ag40
ag41
ag123
ag124
ag42
ag81
ag125
ag126
ag82
ag43
ag83
ag44
ag45
ag85
ag46
ag127
ag47
ag86
ag48
ag128
ag129
ag130
ag131
ag88
ag49
ag90
ag132
ag50
ag51
ag91
ag92
ag133
ag143
ag144
ag52
ag93
asS'tetrbico'
p869
(lp870
sS'pinupinc'
p871
(lp872
sS'eugefoet'
p873
(lp874
sS'chryicac'
p875
(lp876
sS'juglcali'
p877
(lp878
sS'alnurhom'
p879
(lp880
sS'salidisc'
p881
(lp882
g4
ag98
ag99
ag100
ag5
ag101
ag6
ag7
ag59
ag8
ag9
ag60
ag10
ag11
ag102
ag140
ag12
ag103
ag13
ag104
ag14
ag105
ag141
ag15
ag106
ag107
ag16
ag61
ag62
ag17
ag63
ag18
ag64
ag19
ag108
ag109
ag20
ag21
ag65
ag22
ag66
ag110
ag67
ag111
ag112
ag68
ag113
ag23
ag24
ag25
ag26
ag27
ag114
ag28
ag29
ag30
ag69
ag142
ag70
ag71
ag72
ag31
ag73
ag115
ag116
ag74
ag32
ag75
ag117
ag33
ag76
ag77
ag34
ag78
ag35
ag118
ag119
ag36
ag37
ag120
ag79
ag121
ag38
ag80
ag122
ag39
ag40
ag41
ag123
ag124
ag42
ag81
ag125
ag126
ag82
ag43
ag83
ag84
ag44
ag45
ag85
ag46
ag127
ag47
ag86
ag48
ag87
ag128
ag129
ag130
ag131
ag88
ag49
ag89
ag90
ag132
ag50
ag51
ag91
ag92
ag133
ag143
ag144
ag52
ag93
asS'querrubr'
p883
(lp884
g4
ag98
ag99
ag100
ag5
ag101
ag6
ag7
ag59
ag8
ag9
ag60
ag10
ag11
ag102
ag140
ag12
ag103
ag13
ag104
ag14
ag105
ag141
ag15
ag106
ag107
ag16
ag61
ag62
ag17
ag63
ag18
ag64
ag19
ag108
ag109
ag20
ag21
ag65
ag22
ag66
ag110
ag67
ag111
ag112
ag68
ag113
ag23
ag24
ag25
ag26
ag27
ag114
ag28
ag29
ag30
ag69
ag142
ag70
ag71
ag72
ag31
ag73
ag115
ag116
ag74
ag32
ag75
ag117
ag33
ag76
ag77
ag34
ag78
ag35
ag118
ag119
ag36
ag37
ag120
ag79
ag121
ag38
ag80
ag122
ag39
ag40
ag41
ag123
ag124
ag42
ag81
ag125
ag126
ag82
ag43
ag83
ag84
ag44
ag45
ag85
ag46
ag127
ag47
ag86
ag48
ag87
ag128
ag129
ag130
ag131
ag88
ag49
ag89
ag90
ag132
ag50
ag51
ag91
ag92
ag133
ag143
ag144
ag52
ag93
asS'querstel'
p885
(lp886
g61
ag65
ag69
ag71
ag73
ag84
ag87
ag143
ag144
asS'acerbarb'
p887
(lp888
sS'popuhete'
p889
(lp890
g61
ag65
ag69
ag71
ag74
ag84
ag86
asS'querdoug'
p891
(lp892
sS'pinupond'
p893
(lp894
sS'yuccmoha'
p895
(lp896
sS'pinuechi'
p897
(lp898
g73
ag87
asS'bumelanu'
p899
(lp900
sS'eysetexa'
p901
(lp902
sS'nysssylv'
p903
(lp904
g4
ag99
ag7
ag9
ag10
ag11
ag15
ag16
ag61
ag62
ag17
ag64
ag19
ag20
ag65
ag110
ag67
ag68
ag25
ag26
ag27
ag29
ag30
ag69
ag70
ag71
ag72
ag31
ag73
ag74
ag32
ag33
ag76
ag77
ag34
ag78
ag37
ag120
ag80
ag39
ag40
ag124
ag42
ag81
ag83
ag84
ag45
ag46
ag86
ag87
ag130
ag88
ag49
ag89
ag90
ag51
ag91
ag92
ag143
ag144
ag52
ag93
asS'fraxgreg'
p905
(lp906
sS'aralspin'
p907
(lp908
g8
ag140
ag63
asS'carycord'
p909
(lp910
g4
ag99
ag100
ag5
ag101
ag6
ag7
ag59
ag8
ag9
ag10
ag11
ag140
ag12
ag105
ag141
ag107
ag61
ag62
ag63
ag64
ag19
ag65
ag66
ag110
ag67
ag111
ag24
ag25
ag27
ag29
ag30
ag69
ag142
ag70
ag71
ag72
ag31
ag115
ag74
ag32
ag75
ag76
ag77
ag78
ag120
ag80
ag40
ag124
ag42
ag81
ag125
ag126
ag82
ag43
ag83
ag84
ag44
ag45
ag46
ag47
ag86
ag87
ag130
ag49
ag89
ag90
ag132
ag50
ag91
ag92
ag133
ag52
ag93
asS'cornocci'
p911
(lp912
sS'arctprin'
p913
(lp914
sS'querdura'
p915
(lp916
sS'querarka'
p917
(lp918
sS'cuprsarg'
p919
(lp920
sS'bacchali'
p921
(lp922
g61
ag65
ag30
ag69
ag71
ag73
ag32
ag84
ag87
ag90
ag91
ag144
asS'alnumari'
p923
(lp924
sS'salisess'
p925
(lp926
sS'pincpube'
p927
(lp928
sS'condhook'
p929
(lp930
sS'rhusovat'
p931
(lp932
sS'fraxgood'
p933
(lp934
sS'dryplate'
p935
(lp936
sS'ilexlaev'
p937
(lp938
g8
ag9
ag60
ag10
ag11
ag12
ag15
ag16
ag61
ag20
ag65
ag68
ag23
ag25
ag26
ag27
ag30
ag69
ag70
ag71
ag72
ag31
ag73
ag74
ag32
ag77
ag78
ag35
ag79
ag40
ag41
ag83
ag84
ag44
ag45
ag85
ag46
ag86
ag87
ag49
ag90
ag50
ag51
ag91
ag92
ag52
asS'rhodmaxi'
p939
(lp940
g4
ag7
ag60
ag140
ag141
ag15
ag16
ag62
ag108
ag110
ag23
ag27
ag29
ag30
ag74
ag76
ag34
ag78
ag80
ag40
ag42
ag81
ag125
ag126
ag44
ag45
ag85
ag47
ag86
ag48
ag88
ag89
ag51
ag91
asS'pinulaws'
p941
(lp942
sS'rhambetu'
p943
(lp944
sS'saliseri'
p945
(lp946
g4
ag98
ag99
ag100
ag5
ag101
ag6
ag7
ag8
ag9
ag60
ag10
ag11
ag140
ag12
ag13
ag104
ag14
ag105
ag141
ag15
ag106
ag16
ag61
ag62
ag17
ag63
ag18
ag64
ag19
ag108
ag109
ag20
ag21
ag65
ag22
ag66
ag110
ag111
ag112
ag68
ag113
ag23
ag24
ag25
ag26
ag27
ag114
ag28
ag29
ag30
ag69
ag70
ag71
ag72
ag31
ag73
ag115
ag116
ag74
ag32
ag75
ag117
ag33
ag76
ag77
ag34
ag78
ag35
ag118
ag119
ag36
ag37
ag79
ag38
ag122
ag39
ag40
ag41
ag123
ag124
ag42
ag81
ag125
ag126
ag82
ag83
ag84
ag44
ag45
ag85
ag46
ag127
ag47
ag86
ag48
ag87
ag128
ag129
ag130
ag131
ag88
ag49
ag89
ag90
ag132
ag50
ag51
ag91
ag92
ag133
ag52
ag93
asS'corycorn'
p947
(lp948
g4
ag98
ag99
ag100
ag5
ag101
ag6
ag7
ag59
ag8
ag9
ag60
ag10
ag11
ag102
ag140
ag12
ag103
ag13
ag104
ag14
ag105
ag141
ag15
ag106
ag107
ag16
ag62
ag17
ag63
ag18
ag64
ag19
ag108
ag109
ag20
ag21
ag22
ag66
ag67
ag111
ag112
ag68
ag113
ag23
ag24
ag25
ag26
ag27
ag114
ag28
ag29
ag30
ag70
ag72
ag31
ag115
ag116
ag74
ag32
ag75
ag117
ag33
ag76
ag77
ag34
ag78
ag35
ag118
ag119
ag36
ag37
ag120
ag79
ag121
ag38
ag80
ag122
ag39
ag40
ag41
ag123
ag124
ag42
ag81
ag125
ag126
ag82
ag43
ag83
ag44
ag45
ag85
ag46
ag127
ag47
ag86
ag48
ag128
ag129
ag130
ag131
ag88
ag49
ag89
ag90
ag132
ag50
ag51
ag91
ag92
ag133
ag143
ag144
ag52
ag93
asS'sequsemp'
p949
(lp950
sS'dalespin'
p951
(lp952
sS'aescglab'
p953
(lp954
sS'acacberl'
p955
(lp956
sS'betupapy'
p957
(lp958
g4
ag98
ag6
ag7
ag59
ag8
ag9
ag60
ag11
ag102
ag12
ag103
ag13
ag104
ag14
ag141
ag15
ag106
ag107
ag16
ag62
ag17
ag63
ag18
ag19
ag108
ag20
ag21
ag65
ag22
ag112
ag68
ag113
ag23
ag24
ag26
ag27
ag114
ag28
ag29
ag30
ag70
ag31
ag116
ag32
ag117
ag33
ag34
ag78
ag35
ag118
ag119
ag36
ag37
ag79
ag121
ag38
ag122
ag39
ag41
ag123
ag124
ag42
ag82
ag43
ag84
ag44
ag45
ag85
ag46
ag127
ag48
ag128
ag129
ag130
ag131
ag49
ag132
ag50
ag51
ag144
ag52
ag93
asS'acerspic'
p959
(lp960
g4
ag98
ag99
ag100
ag5
ag101
ag6
ag7
ag59
ag8
ag60
ag11
ag102
ag140
ag12
ag103
ag13
ag104
ag14
ag105
ag141
ag15
ag106
ag107
ag16
ag17
ag63
ag18
ag64
ag19
ag108
ag109
ag21
ag22
ag66
ag110
ag67
ag111
ag112
ag113
ag23
ag24
ag25
ag26
ag114
ag28
ag29
ag31
ag115
ag116
ag75
ag117
ag33
ag76
ag34
ag35
ag118
ag119
ag36
ag37
ag120
ag79
ag121
ag38
ag80
ag122
ag39
ag40
ag41
ag123
ag124
ag42
ag81
ag125
ag126
ag82
ag43
ag44
ag85
ag127
ag47
ag48
ag128
ag129
ag130
ag131
ag88
ag49
ag132
ag50
ag51
ag133
ag52
ag93
asS'prunangu'
p961
(lp962
sS'picechih'
p963
(lp964
sS'sorbamer'
p965
(lp966
g4
ag98
ag6
ag7
ag8
ag60
ag11
ag140
ag12
ag103
ag13
ag104
ag14
ag141
ag15
ag106
ag16
ag17
ag18
ag19
ag108
ag109
ag20
ag21
ag22
ag110
ag112
ag113
ag23
ag24
ag25
ag26
ag27
ag114
ag28
ag31
ag115
ag116
ag74
ag117
ag33
ag34
ag35
ag119
ag36
ag37
ag79
ag38
ag80
ag122
ag39
ag40
ag41
ag123
ag125
ag126
ag82
ag44
ag45
ag85
ag46
ag127
ag47
ag48
ag128
ag129
ag130
ag131
ag88
ag49
ag132
ag50
ag51
ag52
asS'quergeor'
p967
(lp968
sS'stewovat'
p969
(lp970
sS'acacwrig'
p971
(lp972
sS'prunmyrt'
p973
(lp974
sS'larilari'
p975
(lp976
g4
ag98
ag99
ag100
ag5
ag101
ag7
ag8
ag60
ag11
ag102
ag12
ag103
ag13
ag104
ag14
ag105
ag141
ag15
ag106
ag107
ag16
ag61
ag62
ag17
ag18
ag64
ag19
ag108
ag109
ag21
ag22
ag110
ag67
ag112
ag113
ag23
ag24
ag25
ag26
ag27
ag114
ag28
ag29
ag142
ag70
ag71
ag72
ag31
ag115
ag116
ag75
ag117
ag33
ag76
ag34
ag35
ag118
ag119
ag36
ag37
ag79
ag121
ag38
ag80
ag122
ag39
ag40
ag41
ag123
ag124
ag42
ag125
ag126
ag82
ag43
ag84
ag85
ag127
ag47
ag48
ag87
ag128
ag129
ag130
ag131
ag88
ag49
ag132
ag50
ag51
ag52
ag93
asS'licatria'
p977
(lp978
sS'abielasi'
p979
(lp980
sS'oxydarbo'
p981
(lp982
sS'ilexambi'
p983
(lp984
sS'pinualbi'
p985
(lp986
sS'castchry'
p987
(lp988
sS'chamnoot'
p989
(lp990
sS'clifmono'
p991
(lp992
sS'magnmacr'
p993
(lp994
sS'ostrvirg'
p995
(lp996
g4
ag98
ag99
ag100
ag5
ag101
ag6
ag7
ag59
ag8
ag9
ag60
ag10
ag11
ag102
ag140
ag12
ag103
ag13
ag104
ag14
ag105
ag141
ag15
ag106
ag107
ag16
ag61
ag62
ag17
ag63
ag18
ag64
ag19
ag108
ag109
ag20
ag21
ag65
ag22
ag66
ag110
ag67
ag111
ag112
ag68
ag113
ag23
ag24
ag25
ag26
ag27
ag114
ag28
ag29
ag30
ag69
ag142
ag70
ag71
ag72
ag31
ag73
ag115
ag116
ag74
ag32
ag75
ag117
ag33
ag76
ag77
ag34
ag78
ag35
ag118
ag119
ag36
ag37
ag120
ag79
ag121
ag38
ag80
ag122
ag39
ag40
ag41
ag123
ag124
ag42
ag81
ag125
ag126
ag82
ag43
ag83
ag84
ag44
ag45
ag85
ag46
ag127
ag47
ag86
ag48
ag87
ag128
ag129
ag130
ag131
ag88
ag49
ag89
ag90
ag132
ag50
ag51
ag91
ag92
ag133
ag143
ag144
ag52
ag93
asS'cornsess'
p997
(lp998
sS'myriinod'
p999
(lp1000
sS'cercledi'
p1001
(lp1002
sS'condglob'
p1003
(lp1004
sS'cuprguad'
p1005
(lp1006
sS'junivirg'
p1007
(lp1008
g4
ag99
ag100
ag5
ag101
ag6
ag7
ag8
ag9
ag10
ag11
ag12
ag14
ag105
ag141
ag15
ag16
ag61
ag62
ag64
ag19
ag20
ag65
ag110
ag67
ag111
ag112
ag68
ag23
ag24
ag25
ag26
ag27
ag114
ag29
ag30
ag69
ag70
ag71
ag72
ag31
ag73
ag115
ag74
ag32
ag33
ag77
ag34
ag78
ag35
ag119
ag37
ag40
ag41
ag124
ag42
ag82
ag83
ag84
ag44
ag45
ag85
ag46
ag47
ag86
ag48
ag87
ag130
ag49
ag89
ag90
ag50
ag51
ag91
ag92
ag143
ag144
ag52
ag93
asS'caesmexi'
p1009
(lp1010
sS'saliluci'
p1011
(lp1012
g4
ag98
ag99
ag100
ag5
ag101
ag6
ag7
ag8
ag9
ag60
ag10
ag11
ag102
ag140
ag12
ag103
ag13
ag104
ag14
ag105
ag141
ag15
ag106
ag107
ag16
ag61
ag62
ag17
ag18
ag64
ag19
ag108
ag109
ag20
ag21
ag65
ag22
ag110
ag67
ag111
ag112
ag68
ag113
ag23
ag24
ag25
ag26
ag27
ag114
ag28
ag29
ag30
ag69
ag142
ag70
ag71
ag72
ag31
ag73
ag115
ag116
ag74
ag32
ag117
ag33
ag77
ag34
ag78
ag35
ag118
ag119
ag36
ag37
ag79
ag121
ag38
ag80
ag122
ag39
ag40
ag41
ag123
ag124
ag42
ag126
ag82
ag43
ag83
ag84
ag44
ag45
ag85
ag46
ag127
ag47
ag86
ag48
ag87
ag128
ag129
ag130
ag131
ag88
ag49
ag90
ag132
ag50
ag51
ag91
ag92
ag133
ag143
ag144
ag52
ag93
asS'quertome'
p1013
(lp1014
sS'foreangu'
p1015
(lp1016
sS'sapisapo'
p1017
(lp1018
sS'rhuslanc'
p1019
(lp1020
sS'sabamexi'
p1021
(lp1022
sS'foresegr'
p1023
(lp1024
sS'piscpisc'
p1025
(lp1026
sS'pinuedul'
p1027
(lp1028
sS'hamepate'
p1029
(lp1030
sS'arbuariz'
p1031
(lp1032
sS'opunfulg'
p1033
(lp1034
sS'acacroem'
p1035
(lp1036
sS'pinulong'
p1037
(lp1038
sS'ilexamel'
p1039
(lp1040
sS'cuprgove'
p1041
(lp1042
sS'junieryt'
p1043
(lp1044
sS'ceanspin'
p1045
(lp1046
sS'acerpens'
p1047
(lp1048
g4
ag98
ag100
ag5
ag101
ag6
ag7
ag59
ag8
ag9
ag60
ag10
ag11
ag102
ag140
ag12
ag103
ag13
ag104
ag14
ag105
ag141
ag15
ag106
ag107
ag16
ag17
ag63
ag18
ag64
ag19
ag108
ag109
ag20
ag21
ag22
ag66
ag67
ag111
ag112
ag113
ag23
ag24
ag25
ag26
ag27
ag114
ag28
ag29
ag30
ag70
ag31
ag115
ag116
ag74
ag32
ag75
ag117
ag33
ag76
ag34
ag35
ag118
ag119
ag36
ag37
ag120
ag79
ag121
ag38
ag80
ag122
ag39
ag40
ag41
ag123
ag42
ag81
ag125
ag126
ag82
ag43
ag44
ag45
ag85
ag46
ag127
ag47
ag48
ag128
ag129
ag130
ag131
ag88
ag49
ag132
ag50
ag51
ag133
ag52
ag93
asS'salihind'
p1049
(lp1050
sS'taxodist'
p1051
(lp1052
sS'cithberl'
p1053
(lp1054
sS'cornglab'
p1055
(lp1056
sS'sheparge'
p1057
(lp1058
sS'salitrac'
p1059
(lp1060
sS'celtlaev'
p1061
(lp1062
sS'pinumich'
p1063
(lp1064
sS'sorbsitc'
p1065
(lp1066
sS'chilline'
p1067
(lp1068
sS'zantamer'
p1069
(lp1070
g4
ag5
ag101
ag7
ag8
ag10
ag11
ag12
ag14
ag62
ag19
ag21
ag110
ag67
ag111
ag25
ag30
ag72
ag31
ag115
ag33
ag119
ag40
ag124
ag42
ag81
ag125
ag126
ag84
ag87
ag88
ag132
ag50
ag93
asS'cappflex'
p1071
(lp1072
sS'rapapunc'
p1073
(lp1074
sS'ellirace'
p1075
(lp1076
sS'cordsebe'
p1077
(lp1078
sS'querchap'
p1079
(lp1080
sS'ulmucras'
p1081
(lp1082
sS'salitaxi'
p1083
(lp1084
sS'calyzuzy'
p1085
(lp1086
sS'querglau'
p1087
(lp1088
sS'pinucoul'
p1089
(lp1090
sS'pinupseu'
p1091
(lp1092
sS'caryovat'
p1093
(lp1094
g4
ag99
ag100
ag5
ag101
ag6
ag7
ag59
ag8
ag9
ag60
ag10
ag11
ag140
ag12
ag14
ag105
ag141
ag15
ag16
ag61
ag62
ag17
ag63
ag64
ag19
ag20
ag65
ag66
ag110
ag67
ag111
ag68
ag23
ag24
ag25
ag26
ag27
ag29
ag30
ag69
ag142
ag70
ag71
ag72
ag31
ag73
ag115
ag74
ag32
ag75
ag33
ag76
ag77
ag78
ag37
ag120
ag80
ag40
ag124
ag42
ag81
ag125
ag126
ag43
ag83
ag84
ag44
ag45
ag85
ag46
ag86
ag87
ag130
ag88
ag49
ag89
ag90
ag50
ag51
ag91
ag92
ag133
ag143
ag144
ag52
ag93
asS'taxuflor'
p1095
(lp1096
sS'styrgran'
p1097
(lp1098
sS'rhusmicr'
p1099
(lp1100
sS'quermich'
p1101
(lp1102
sS'acersacr'
p1103
(lp1104
g4
ag98
ag99
ag100
ag5
ag101
ag6
ag7
ag59
ag8
ag9
ag60
ag10
ag11
ag102
ag140
ag12
ag103
ag13
ag104
ag14
ag105
ag141
ag15
ag106
ag107
ag16
ag61
ag62
ag17
ag63
ag18
ag64
ag19
ag108
ag109
ag20
ag21
ag65
ag22
ag66
ag110
ag67
ag111
ag112
ag68
ag113
ag23
ag24
ag25
ag26
ag27
ag114
ag28
ag29
ag30
ag69
ag142
ag70
ag71
ag72
ag31
ag73
ag115
ag116
ag74
ag32
ag75
ag117
ag33
ag76
ag77
ag34
ag78
ag35
ag118
ag119
ag36
ag37
ag120
ag79
ag121
ag38
ag80
ag122
ag39
ag40
ag41
ag123
ag124
ag42
ag81
ag125
ag126
ag82
ag43
ag83
ag84
ag44
ag45
ag85
ag46
ag127
ag47
ag86
ag48
ag87
ag128
ag129
ag130
ag131
ag88
ag49
ag89
ag90
ag132
ag50
ag51
ag91
ag92
ag133
ag143
ag52
ag93
asS'pinuclau'
p1105
(lp1106
sS'pinubank'
p1107
(lp1108
g113
ag122
ag129
asS'vibunudu'
p1109
(lp1110
g65
ag70
ag73
ag87
asS'fraxpapi'
p1111
(lp1112
sS'quertoum'
p1113
(lp1114
sS'pinumaxi'
p1115
(lp1116
sS'picerube'
p1117
(lp1118
g98
ag6
ag60
ag102
ag103
ag13
ag104
ag141
ag15
ag106
ag107
ag16
ag62
ag17
ag18
ag108
ag109
ag21
ag22
ag112
ag113
ag23
ag24
ag26
ag27
ag114
ag28
ag30
ag31
ag116
ag117
ag33
ag34
ag35
ag118
ag119
ag36
ag37
ag79
ag121
ag38
ag122
ag39
ag40
ag41
ag123
ag125
ag44
ag127
ag47
ag48
ag128
ag129
ag131
ag132
ag50
asS'popubals'
p1119
(lp1120
g98
ag99
ag101
ag7
ag8
ag12
ag103
ag13
ag104
ag14
ag105
ag15
ag106
ag107
ag17
ag18
ag19
ag108
ag21
ag22
ag110
ag112
ag113
ag24
ag114
ag28
ag29
ag115
ag116
ag117
ag36
ag37
ag121
ag38
ag122
ag39
ag123
ag124
ag42
ag127
ag48
ag128
ag129
ag130
ag131
ag132
ag50
ag133
asS'liqustyr'
p1121
(lp1122
g61
ag69
ag73
ag87
asS'querprin'
p1123
(lp1124
g4
ag99
ag100
ag5
ag101
ag7
ag59
ag9
ag10
ag11
ag12
ag14
ag105
ag141
ag16
ag61
ag62
ag19
ag20
ag21
ag65
ag110
ag67
ag111
ag112
ag68
ag25
ag27
ag29
ag30
ag69
ag70
ag71
ag72
ag31
ag73
ag115
ag74
ag32
ag33
ag77
ag78
ag124
ag42
ag81
ag83
ag84
ag45
ag46
ag86
ag87
ag49
ag89
ag90
ag51
ag91
ag92
ag52
ag93
asS'lysimicr'
p1125
(lp1126
sS'querfalc'
p1127
(lp1128
sS'viburufi'
p1129
(lp1130
sS'yuccfaxo'
p1131
(lp1132
sS'solaeria'
p1133
(lp1134
sS'geniclus'
p1135
(lp1136
sS'conoerec'
p1137
(lp1138
sS'fraxpenn'
p1139
(lp1140
g4
ag98
ag99
ag100
ag5
ag101
ag6
ag7
ag59
ag8
ag9
ag60
ag10
ag11
ag102
ag140
ag12
ag103
ag13
ag104
ag14
ag105
ag141
ag15
ag106
ag107
ag16
ag61
ag62
ag17
ag63
ag18
ag64
ag19
ag108
ag109
ag20
ag21
ag65
ag22
ag66
ag110
ag67
ag111
ag112
ag68
ag113
ag23
ag24
ag25
ag26
ag27
ag114
ag28
ag29
ag30
ag69
ag142
ag70
ag71
ag72
ag31
ag73
ag115
ag116
ag74
ag32
ag75
ag117
ag33
ag76
ag77
ag34
ag78
ag35
ag118
ag119
ag36
ag37
ag120
ag79
ag121
ag38
ag80
ag122
ag39
ag40
ag41
ag123
ag124
ag42
ag81
ag125
ag126
ag82
ag43
ag83
ag84
ag44
ag45
ag85
ag46
ag127
ag47
ag86
ag48
ag87
ag128
ag129
ag130
ag131
ag88
ag49
ag89
ag90
ag132
ag50
ag51
ag91
ag92
ag133
ag143
ag144
ag52
ag93
asS'celtocci'
p1141
(lp1142
g4
ag99
ag100
ag5
ag7
ag8
ag9
ag10
ag12
ag105
ag61
ag62
ag63
ag64
ag19
ag65
ag67
ag111
ag25
ag27
ag29
ag69
ag70
ag71
ag72
ag115
ag74
ag33
ag78
ag118
ag120
ag40
ag124
ag42
ag81
ag126
ag43
ag84
ag45
ag46
ag86
ag87
ag130
ag49
ag91
ag92
ag52
asS'salinigr'
p1143
(lp1144
g4
ag98
ag99
ag100
ag5
ag101
ag7
ag59
ag9
ag60
ag10
ag11
ag12
ag13
ag14
ag105
ag141
ag15
ag106
ag16
ag61
ag62
ag17
ag63
ag64
ag19
ag108
ag20
ag21
ag65
ag110
ag67
ag111
ag112
ag68
ag23
ag25
ag26
ag27
ag114
ag28
ag29
ag30
ag69
ag142
ag70
ag71
ag72
ag31
ag73
ag74
ag32
ag77
ag34
ag78
ag35
ag119
ag36
ag37
ag120
ag79
ag121
ag38
ag80
ag39
ag40
ag41
ag124
ag81
ag82
ag43
ag83
ag84
ag45
ag85
ag46
ag127
ag86
ag87
ag128
ag130
ag131
ag49
ag89
ag90
ag132
ag50
ag51
ag91
ag92
ag133
ag143
ag144
ag52
ag93
asS'robivisc'
p1145
(lp1146
sS'rhamcroc'
p1147
(lp1148
sS'avicgerm'
p1149
(lp1150
sS'prospube'
p1151
(lp1152
sS'koebspin'
p1153
(lp1154
sS'cererobi'
p1155
(lp1156
sS'psidlong'
p1157
(lp1158
sS'junisili'
p1159
(lp1160
sS'junioste'
p1161
(lp1162
sS'surimari'
p1163
(lp1164
sS'bumecela'
p1165
(lp1166
sS'querhypo'
p1167
(lp1168
sS'pithflex'
p1169
(lp1170
sS'quernutt'
p1171
(lp1172
sS'thrimorr'
p1173
(lp1174
sS'yuccelat'
p1175
(lp1176
sS'sambcana'
p1177
(lp1178
g4
ag98
ag99
ag100
ag5
ag101
ag6
ag7
ag59
ag8
ag9
ag60
ag10
ag11
ag102
ag140
ag12
ag103
ag13
ag104
ag14
ag105
ag141
ag15
ag106
ag107
ag16
ag61
ag62
ag17
ag63
ag18
ag64
ag19
ag108
ag109
ag20
ag21
ag65
ag22
ag66
ag110
ag67
ag111
ag112
ag68
ag113
ag23
ag24
ag25
ag26
ag27
ag114
ag28
ag29
ag30
ag69
ag142
ag70
ag71
ag72
ag31
ag73
ag115
ag116
ag74
ag32
ag75
ag117
ag33
ag76
ag77
ag34
ag78
ag35
ag118
ag119
ag36
ag37
ag120
ag79
ag121
ag38
ag80
ag122
ag39
ag40
ag41
ag123
ag124
ag42
ag81
ag125
ag126
ag82
ag43
ag83
ag84
ag44
ag45
ag85
ag46
ag127
ag47
ag86
ag48
ag87
ag128
ag129
ag130
ag131
ag88
ag49
ag89
ag90
ag132
ag50
ag51
ag91
ag92
ag133
ag143
ag144
ag52
ag93
asS'pisorotu'
p1179
(lp1180
sS'picrpent'
p1181
(lp1182
sS'cerctras'
p1183
(lp1184
sS'ulmuthom'
p1185
(lp1186
g99
ag100
ag5
ag101
ag7
ag8
ag12
ag105
ag141
ag19
ag110
ag29
ag115
ag79
ag124
ag126
ag43
ag132
ag133
ag93
asS'coluarbo'
p1187
(lp1188
sS'agavutah'
p1189
(lp1190
sS'ostrchis'
p1191
(lp1192
sS'prunsero'
p1193
(lp1194
g4
ag98
ag99
ag100
ag5
ag101
ag6
ag7
ag59
ag8
ag9
ag60
ag10
ag11
ag102
ag140
ag12
ag103
ag13
ag104
ag14
ag105
ag141
ag15
ag106
ag107
ag16
ag61
ag62
ag17
ag63
ag18
ag64
ag19
ag108
ag109
ag20
ag21
ag65
ag22
ag66
ag110
ag67
ag111
ag112
ag68
ag113
ag23
ag24
ag25
ag26
ag27
ag114
ag28
ag29
ag30
ag69
ag142
ag70
ag71
ag72
ag31
ag73
ag115
ag116
ag74
ag32
ag75
ag117
ag33
ag76
ag77
ag34
ag78
ag35
ag118
ag119
ag36
ag37
ag120
ag79
ag121
ag38
ag80
ag122
ag39
ag40
ag41
ag124
ag42
ag81
ag125
ag126
ag82
ag43
ag83
ag84
ag44
ag45
ag85
ag46
ag127
ag47
ag86
ag48
ag87
ag128
ag129
ag130
ag131
ag88
ag49
ag89
ag90
ag132
ag50
ag51
ag91
ag92
ag133
ag143
ag144
ag52
ag93
asS'pinutaed'
p1195
(lp1196
sS'rhodcata'
p1197
(lp1198
sS'sambmela'
p1199
(lp1200
sS'rhamcali'
p1201
(lp1202
sS'yucctorr'
p1203
(lp1204
sS'saliflor'
p1205
(lp1206
sS'querkell'
p1207
(lp1208
sS'tiliamer'
p1209
(lp1210
g4
ag98
ag99
ag100
ag5
ag101
ag6
ag7
ag59
ag8
ag9
ag60
ag10
ag11
ag102
ag140
ag12
ag103
ag13
ag104
ag14
ag105
ag141
ag15
ag106
ag107
ag16
ag61
ag62
ag17
ag63
ag18
ag64
ag19
ag108
ag109
ag20
ag21
ag65
ag22
ag66
ag110
ag67
ag111
ag112
ag68
ag113
ag23
ag24
ag25
ag26
ag27
ag114
ag28
ag29
ag30
ag69
ag142
ag70
ag71
ag72
ag31
ag73
ag115
ag116
ag74
ag32
ag75
ag117
ag33
ag76
ag77
ag34
ag78
ag35
ag118
ag119
ag36
ag37
ag120
ag79
ag121
ag38
ag80
ag122
ag39
ag40
ag41
ag124
ag42
ag81
ag125
ag126
ag82
ag43
ag83
ag84
ag44
ag45
ag85
ag46
ag127
ag47
ag86
ag48
ag87
ag128
ag130
ag131
ag88
ag49
ag89
ag90
ag132
ag50
ag51
ag91
ag92
ag133
ag143
ag144
ag52
ag93
asS'bumelyci'
p1211
(lp1212
sS'juglhind'
p1213
(lp1214
sS'celtreti'
p1215
(lp1216
sS'magnacum'
p1217
(lp1218
g99
ag5
ag101
ag8
ag105
ag64
ag19
ag110
ag29
ag142
ag115
ag124
ag81
ag133
ag93
asS'pinulumh'
p1219
(lp1220
sS'leitflor'
p1221
(lp1222
sS'acacgreg'
p1223
(lp1224
sS'acacfarn'
p1225
(lp1226
sS'pinumtez'
p1227
(lp1228
sS'pinurigi'
p1229
(lp1230
g4
ag98
ag7
ag59
ag8
ag9
ag60
ag10
ag11
ag141
ag15
ag16
ag61
ag62
ag17
ag19
ag20
ag65
ag22
ag67
ag68
ag23
ag25
ag26
ag27
ag28
ag29
ag30
ag69
ag70
ag71
ag72
ag31
ag73
ag74
ag32
ag77
ag34
ag78
ag35
ag37
ag39
ag40
ag41
ag81
ag82
ag84
ag45
ag85
ag46
ag86
ag87
ag49
ag89
ag90
ag132
ag50
ag51
ag91
ag92
ag143
ag144
ag52
ag93
asS'reynsept'
p1231
(lp1232
sS'hypetrif'
p1233
(lp1234
sS'chamlaws'
p1235
(lp1236
sS'guetelli'
p1237
(lp1238
sS'quercocc'
p1239
(lp1240
g4
ag99
ag5
ag9
ag60
ag10
ag11
ag15
ag16
ag61
ag62
ag64
ag19
ag20
ag65
ag68
ag23
ag25
ag26
ag27
ag29
ag30
ag69
ag70
ag71
ag72
ag31
ag73
ag74
ag32
ag75
ag77
ag34
ag78
ag35
ag79
ag40
ag81
ag83
ag84
ag45
ag85
ag46
ag86
ag87
ag88
ag49
ag89
ag90
ag51
ag91
ag92
ag143
ag144
ag52
ag93
asS'pseusarg'
p1241
(lp1242
sS'salibonp'
p1243
(lp1244
sS'querhava'
p1245
(lp1246
sS'querbico'
p1247
(lp1248
g99
ag101
ag7
ag8
ag9
ag10
ag12
ag105
ag61
ag62
ag64
ag19
ag20
ag65
ag110
ag111
ag68
ag25
ag26
ag27
ag29
ag30
ag69
ag70
ag71
ag72
ag73
ag115
ag74
ag32
ag77
ag78
ag124
ag42
ag81
ag126
ag83
ag84
ag45
ag46
ag86
ag87
ag130
ag90
ag51
ag91
ag92
ag52
ag93
asS'myripens'
p1249
(lp1250
g4
ag9
ag10
ag61
ag62
ag18
ag20
ag65
ag22
ag68
ag25
ag27
ag30
ag69
ag70
ag71
ag72
ag73
ag74
ag32
ag77
ag78
ag35
ag79
ag83
ag84
ag45
ag46
ag86
ag87
ag90
ag51
ag91
ag92
ag143
ag144
asS'foreacum'
p1251
(lp1252
sS'fagugran'
p1253
(lp1254
g4
ag98
ag99
ag100
ag5
ag101
ag6
ag7
ag59
ag8
ag9
ag60
ag10
ag11
ag102
ag140
ag12
ag103
ag13
ag104
ag14
ag105
ag141
ag15
ag106
ag107
ag16
ag61
ag62
ag17
ag63
ag18
ag64
ag19
ag108
ag109
ag20
ag21
ag65
ag22
ag66
ag110
ag67
ag111
ag112
ag68
ag113
ag23
ag24
ag25
ag26
ag27
ag114
ag28
ag29
ag30
ag69
ag142
ag70
ag71
ag72
ag31
ag73
ag115
ag116
ag74
ag32
ag75
ag117
ag33
ag76
ag77
ag34
ag78
ag35
ag118
ag119
ag36
ag37
ag120
ag79
ag121
ag38
ag80
ag122
ag39
ag40
ag41
ag123
ag124
ag42
ag81
ag125
ag126
ag82
ag43
ag83
ag84
ag44
ag45
ag85
ag46
ag127
ag47
ag86
ag48
ag87
ag128
ag129
ag130
ag131
ag88
ag49
ag89
ag90
ag132
ag50
ag51
ag91
ag92
ag133
ag143
ag144
ag52
ag93
asS'amyrelem'
p1255
(lp1256
sS'asimparv'
p1257
(lp1258
sS'magntrip'
p1259
(lp1260
sS'pinuenge'
p1261
(lp1262
sS'fraxquad'
p1263
(lp1264
sS'querajoe'
p1265
(lp1266
sS'cornflor'
p1267
(lp1268
g4
ag99
ag100
ag5
ag7
ag8
ag9
ag10
ag11
ag12
ag14
ag105
ag61
ag62
ag64
ag19
ag20
ag65
ag110
ag111
ag68
ag25
ag27
ag29
ag30
ag69
ag70
ag71
ag72
ag31
ag73
ag115
ag74
ag32
ag77
ag34
ag78
ag119
ag40
ag124
ag83
ag84
ag45
ag46
ag86
ag87
ag49
ag89
ag90
ag50
ag51
ag91
ag92
ag52
ag93
asS'cercmacr'
p1269
(lp1270
sS'acactort'
p1271
(lp1272
sS'guetscab'
p1273
(lp1274
sS'queremor'
p1275
(lp1276
sS'cratcolu'
p1277
(lp1278
sS'stapbola'
p1279
(lp1280
sS'diphsali'
p1281
(lp1282
sS'platocci'
p1283
(lp1284
g4
ag99
ag100
ag5
ag101
ag6
ag7
ag59
ag8
ag9
ag10
ag11
ag140
ag12
ag105
ag141
ag15
ag61
ag62
ag63
ag64
ag19
ag65
ag66
ag110
ag67
ag111
ag25
ag26
ag27
ag29
ag69
ag142
ag70
ag71
ag72
ag31
ag73
ag115
ag74
ag75
ag76
ag77
ag78
ag120
ag80
ag39
ag40
ag124
ag42
ag81
ag125
ag126
ag82
ag83
ag84
ag44
ag45
ag46
ag86
ag87
ag49
ag89
ag90
ag51
ag91
ag92
ag133
ag143
ag144
ag52
ag93
asS'pseumacr'
p1285
(lp1286
sS'quermacr'
p1287
(lp1288
g99
ag101
ag7
ag8
ag11
ag14
ag105
ag18
ag64
ag19
ag110
ag111
ag29
ag115
ag118
ag39
ag124
ag42
ag126
ag43
ag130
ag93
asS'querlyra'
p1289
(lp1290
sS'zantfaga'
p1291
(lp1292
sS'sererepe'
p1293
(lp1294
sS'querlaev'
p1295
(lp1296
sS'pinulamb'
p1297
(lp1298
sS'crosrhac'
p1299
(lp1300
sS'querelli'
p1301
(lp1302
sS'vauqcali'
p1303
(lp1304
sS'sorbdeco'
p1305
(lp1306
g98
ag6
ag13
ag104
ag19
ag108
ag21
ag22
ag113
ag28
ag116
ag36
ag38
ag122
ag41
ag123
ag82
ag44
ag85
ag127
ag48
ag128
ag129
ag131
asS'pinuleio'
p1307
(lp1308
sS'fremcali'
p1309
(lp1310
sS'taxubrev'
p1311
(lp1312
sS'asimtril'
p1313
(lp1314
g99
ag110
ag29
ag124
asS'ceanthyr'
p1315
(lp1316
sS'querrugo'
p1317
(lp1318
sS'cappcyno'
p1319
(lp1320
sS'bourradu'
p1321
(lp1322
sS'popufrem'
p1323
(lp1324
sS'junidepp'
p1325
(lp1326
sS'hippmanc'
p1327
(lp1328
sS'gymndioi'
p1329
(lp1330
g8
ag105
asS'sophsecu'
p1331
(lp1332
sS'olneteso'
p1333
(lp1334
sS'styramer'
p1335
(lp1336
sS'chryoliv'
p1337
(lp1338
sS'holaemor'
p1339
(lp1340
sS'leucpulv'
p1341
(lp1342
sS'querenge'
p1343
(lp1344
sS'vauqpauc'
p1345
(lp1346
sS'pinustro'
p1347
(lp1348
sS'umbecali'
p1349
(lp1350
sS'querpalu'
p1351
(lp1352
g4
ag61
ag62
ag65
ag25
ag69
ag70
ag71
ag124
ag84
ag87
ag49
ag50
ag91
ag92
ag52
asS'manibaha'
p1353
(lp1354
sS'popugran'
p1355
(lp1356
g4
ag98
ag99
ag100
ag5
ag101
ag6
ag7
ag59
ag8
ag9
ag60
ag10
ag11
ag102
ag140
ag12
ag103
ag13
ag104
ag14
ag105
ag141
ag15
ag106
ag107
ag16
ag61
ag62
ag17
ag63
ag18
ag64
ag19
ag108
ag109
ag20
ag21
ag65
ag22
ag66
ag110
ag67
ag111
ag112
ag68
ag113
ag23
ag24
ag25
ag26
ag27
ag114
ag28
ag29
ag30
ag69
ag142
ag70
ag71
ag72
ag31
ag73
ag115
ag116
ag74
ag32
ag75
ag117
ag33
ag76
ag77
ag34
ag78
ag35
ag118
ag119
ag36
ag37
ag120
ag79
ag121
ag38
ag80
ag122
ag39
ag40
ag41
ag123
ag124
ag42
ag81
ag125
ag126
ag82
ag43
ag83
ag84
ag44
ag45
ag85
ag46
ag127
ag47
ag86
ag48
ag87
ag128
ag129
ag130
ag131
ag88
ag49
ag89
ag90
ag132
ag50
ag51
ag91
ag92
ag133
ag143
ag144
ag52
ag93
asS'lysilati'
p1357
(lp1358
sS'halecaro'
p1359
(lp1360
sS'ptelcren'
p1361
(lp1362
sS'libodecu'
p1363
(lp1364
sS'arbutexa'
p1365
(lp1366
sS'acernigr'
p1367
(lp1368
g4
ag99
ag100
ag101
ag7
ag8
ag11
ag102
ag140
ag14
ag105
ag62
ag64
ag19
ag110
ag29
ag142
ag72
ag31
ag115
ag121
ag80
ag124
ag42
ag125
ag126
ag43
ag47
ag87
ag130
ag88
ag49
ag93
asS'popuangu'
p1369
(lp1370
sS'quermohr'
p1371
(lp1372
sS'salihook'
p1373
(lp1374
sS'savibaha'
p1375
(lp1376
sS'sapibilo'
p1377
(lp1378
sS'pinutrop'
p1379
(lp1380
sS'pinuquad'
p1381
(lp1382
sS'yuccbrev'
p1383
(lp1384
sS'chiovirg'
p1385
(lp1386
sS'salipell'
p1387
(lp1388
g17
ag108
ag113
ag37
ag122
ag123
ag129
asS'sambglau'
p1389
(lp1390
sS'acoewrig'
p1391
(lp1392
sS'schafrut'
p1393
(lp1394
sS'pithungu'
p1395
(lp1396
sS'royselat'
p1397
(lp1398
sS'robineom'
p1399
(lp1400
sS'acerrubr'
p1401
(lp1402
g4
ag98
ag99
ag100
ag5
ag101
ag6
ag7
ag59
ag8
ag9
ag60
ag10
ag11
ag102
ag140
ag12
ag103
ag13
ag104
ag14
ag105
ag141
ag15
ag106
ag107
ag16
ag61
ag62
ag17
ag63
ag18
ag64
ag19
ag108
ag109
ag20
ag21
ag65
ag22
ag66
ag110
ag67
ag111
ag112
ag68
ag113
ag23
ag24
ag25
ag26
ag27
ag114
ag28
ag29
ag30
ag69
ag142
ag70
ag71
ag72
ag31
ag73
ag115
ag116
ag74
ag32
ag75
ag117
ag33
ag76
ag77
ag34
ag78
ag35
ag118
ag119
ag36
ag37
ag120
ag79
ag121
ag38
ag80
ag122
ag39
ag40
ag41
ag123
ag124
ag42
ag81
ag125
ag126
ag82
ag43
ag83
ag84
ag44
ag45
ag85
ag46
ag127
ag47
ag86
ag48
ag87
ag128
ag129
ag130
ag131
ag88
ag49
ag89
ag90
ag132
ag50
ag51
ag91
ag92
ag133
ag143
ag144
ag52
ag93
asS'saliamyg'
p1403
(lp1404
g99
ag8
ag102
ag107
ag64
ag110
ag111
ag29
ag124
asS'sambvelu'
p1405
(lp1406
sS'cerccana'
p1407
(lp1408
sS'colucube'
p1409
(lp1410
sS'vaccarbo'
p1411
(lp1412
sS'larilyal'
p1413
(lp1414
sS'amelsang'
p1415
(lp1416
g100
ag7
ag8
ag12
ag13
ag14
ag105
ag106
ag16
ag18
ag19
ag108
ag21
ag112
ag113
ag23
ag24
ag114
ag29
ag31
ag115
ag116
ag33
ag34
ag35
ag118
ag119
ag36
ag79
ag121
ag38
ag122
ag41
ag123
ag82
ag43
ag44
ag127
ag48
ag128
ag129
ag131
ag132
ag50
asS'ilexdeci'
p1417
(lp1418
sS'cercflor'
p1419
(lp1420
sS'quervirg'
p1421
(lp1422
sS'quermari'
p1423
(lp1424
sS'caryglab'
p1425
(lp1426
g4
ag99
ag8
ag9
ag10
ag11
ag12
ag105
ag141
ag61
ag62
ag19
ag20
ag65
ag110
ag111
ag68
ag25
ag29
ag30
ag69
ag70
ag71
ag72
ag31
ag73
ag115
ag74
ag32
ag77
ag78
ag40
ag124
ag82
ag43
ag83
ag84
ag44
ag45
ag46
ag86
ag87
ag88
ag49
ag89
ag90
ag50
ag91
ag92
ag143
ag144
ag52
ag93
asS'pinudura'
p1427
(lp1428
sS'rhuschor'
p1429
(lp1430
sS'byrsluci'
p1431
(lp1432
sS'pinujeff'
p1433
(lp1434
sS'swiemaha'
p1435
(lp1436
sS'querpung'
p1437
(lp1438
sS'pinuculm'
p1439
(lp1440
sS'saliarbu'
p1441
(lp1442
sS'lariocci'
p1443
(lp1444
sS'simaglau'
p1445
(lp1446
sS'pruncaro'
p1447
(lp1448
sS'prunemar'
p1449
(lp1450
sS'amelutah'
p1451
(lp1452
sS'querturb'
p1453
(lp1454
sS'maluioen'
p1455
(lp1456
sS'aescocta'
p1457
(lp1458
sS'junicali'
p1459
(lp1460
sS'amelinte'
p1461
(lp1462
sS'parkacul'
p1463
(lp1464
sS'calypall'
p1465
(lp1466
sS'ficuaure'
p1467
(lp1468
sS'carpcaro'
p1469
(lp1470
g4
ag99
ag100
ag5
ag101
ag6
ag7
ag59
ag8
ag9
ag10
ag11
ag140
ag12
ag14
ag105
ag141
ag15
ag106
ag16
ag61
ag62
ag63
ag18
ag64
ag19
ag20
ag21
ag22
ag66
ag110
ag67
ag111
ag68
ag23
ag24
ag25
ag26
ag27
ag114
ag28
ag29
ag30
ag142
ag70
ag72
ag31
ag73
ag115
ag74
ag32
ag75
ag33
ag76
ag77
ag34
ag78
ag119
ag36
ag37
ag120
ag121
ag38
ag80
ag39
ag40
ag124
ag42
ag81
ag125
ag126
ag82
ag43
ag83
ag44
ag45
ag85
ag46
ag86
ag87
ag128
ag130
ag49
ag89
ag90
ag132
ag50
ag51
ag91
ag92
ag133
ag52
ag93
asS'poputric'
p1471
(lp1472
sS'juglcine'
p1473
(lp1474
g4
ag99
ag100
ag5
ag101
ag6
ag7
ag59
ag8
ag9
ag60
ag10
ag11
ag102
ag140
ag12
ag103
ag13
ag14
ag105
ag141
ag15
ag106
ag107
ag16
ag61
ag62
ag17
ag63
ag64
ag19
ag109
ag20
ag21
ag66
ag110
ag67
ag111
ag112
ag23
ag24
ag25
ag26
ag27
ag114
ag29
ag69
ag142
ag70
ag71
ag72
ag31
ag73
ag115
ag74
ag75
ag117
ag33
ag76
ag77
ag34
ag78
ag35
ag118
ag119
ag36
ag37
ag120
ag79
ag121
ag38
ag80
ag39
ag40
ag41
ag124
ag42
ag81
ag125
ag126
ag82
ag43
ag83
ag84
ag44
ag45
ag85
ag46
ag127
ag47
ag86
ag48
ag87
ag128
ag130
ag88
ag49
ag89
ag132
ag50
ag51
ag91
ag92
ag133
ag52
ag93
asS'tilicaro'
p1475
(lp1476
sS'querogle'
p1477
(lp1478
sS'junimono'
p1479
(lp1480
sS'caryaqua'
p1481
(lp1482
sa(dp1483
g35
(lp1484
g2
ag57
ag138
ag183
ag201
ag207
ag209
ag221
ag245
ag263
ag271
ag283
ag325
ag331
ag347
ag353
ag387
ag527
ag529
ag1103
ag567
ag601
ag1117
ag639
ag659
ag665
ag965
ag731
ag703
ag693
ag727
ag755
ag799
ag801
ag867
ag881
ag883
ag741
ag937
ag945
ag947
ag957
ag959
ag975
ag995
ag1007
ag1011
ag96
ag1047
ag477
ag671
ag1193
ag1143
ag1177
ag1139
ag1209
ag1229
ag1239
ag1249
ag1253
ag509
ag367
ag1355
ag1401
ag1415
ag1473
asg72
(lp1485
g57
ag138
ag145
ag179
ag183
ag207
ag209
ag221
ag245
ag263
ag271
ag283
ag325
ag331
ag347
ag353
ag383
ag387
ag391
ag449
ag467
ag1069
ag527
ag1103
ag545
ag567
ag1425
ag631
ag653
ag657
ag659
ag665
ag731
ag703
ag707
ag693
ag727
ag755
ag771
ag801
ag217
ag1367
ag867
ag881
ag883
ag909
ag937
ag945
ag947
ag975
ag995
ag1007
ag1267
ag1011
ag96
ag1247
ag477
ag1123
ag671
ag1193
ag1141
ag1143
ag1177
ag1093
ag1139
ag1209
ag1229
ag1239
ag1249
ag1253
ag1283
ag805
ag509
ag367
ag1355
ag1401
ag903
ag1469
ag1473
asg61
(lp1486
g57
ag138
ag145
ag177
ag179
ag183
ag207
ag209
ag221
ag233
ag245
ag271
ag283
ag311
ag325
ag331
ag347
ag353
ag383
ag387
ag391
ag503
ag449
ag467
ag1103
ag545
ag567
ag1425
ag631
ag653
ag657
ag659
ag665
ag731
ag703
ag693
ag727
ag755
ag771
ag781
ag801
ag1351
ag881
ag883
ag885
ag889
ag909
ag741
ag921
ag937
ag945
ag975
ag995
ag1007
ag1267
ag1011
ag1247
ag1121
ag1123
ag671
ag1193
ag1141
ag1143
ag1177
ag1093
ag1139
ag1209
ag1229
ag1239
ag1249
ag1253
ag1283
ag265
ag805
ag509
ag367
ag1355
ag1401
ag903
ag1469
ag1473
asg122
(lp1487
g138
ag201
ag207
ag221
ag245
ag263
ag271
ag283
ag325
ag337
ag387
ag393
ag527
ag529
ag1103
ag1117
ag639
ag645
ag659
ag965
ag731
ag693
ag799
ag801
ag867
ag881
ag883
ag741
ag945
ag947
ag957
ag959
ag975
ag995
ag1011
ag96
ag1047
ag477
ag1107
ag1119
ag671
ag1193
ag1177
ag1139
ag1209
ag1253
ag1305
ag509
ag367
ag1355
ag1387
ag1401
ag1415
asg103
(lp1488
g138
ag201
ag207
ag209
ag221
ag245
ag263
ag271
ag283
ag325
ag337
ag347
ag387
ag393
ag527
ag529
ag1103
ag1117
ag639
ag657
ag659
ag965
ag731
ag693
ag727
ag755
ag799
ag801
ag867
ag881
ag883
ag741
ag947
ag957
ag959
ag975
ag995
ag1011
ag96
ag1047
ag477
ag1119
ag671
ag1193
ag1177
ag1139
ag1209
ag1253
ag509
ag367
ag1355
ag1401
ag1473
asg142
(lp1489
g138
ag207
ag209
ag221
ag245
ag263
ag271
ag283
ag325
ag347
ag383
ag387
ag391
ag449
ag467
ag1103
ag639
ag657
ag659
ag731
ag699
ag703
ag727
ag755
ag801
ag1367
ag867
ag881
ag883
ag909
ag741
ag975
ag995
ag1011
ag477
ag671
ag1193
ag1143
ag1177
ag1093
ag1139
ag1209
ag1217
ag1253
ag1283
ag805
ag509
ag367
ag1355
ag1401
ag1469
ag1473
asg106
(lp1490
g138
ag183
ag201
ag207
ag221
ag245
ag263
ag271
ag283
ag325
ag337
ag387
ag393
ag449
ag527
ag529
ag1103
ag601
ag1117
ag639
ag657
ag659
ag965
ag731
ag693
ag755
ag799
ag801
ag867
ag881
ag883
ag741
ag945
ag947
ag957
ag959
ag975
ag995
ag1011
ag96
ag1047
ag477
ag1119
ag671
ag1193
ag1143
ag1177
ag1139
ag1209
ag1253
ag509
ag367
ag1355
ag1401
ag1415
ag1469
ag1473
asg143
(lp1491
g138
ag183
ag209
ag221
ag271
ag283
ag347
ag353
ag387
ag1103
ag545
ag567
ag1425
ag659
ag665
ag731
ag693
ag727
ag801
ag867
ag881
ag883
ag885
ag741
ag947
ag995
ag1007
ag1011
ag1193
ag1143
ag1177
ag1093
ag1139
ag1209
ag1229
ag1239
ag1249
ag1253
ag1283
ag805
ag509
ag367
ag1355
ag1401
ag903
asg127
(lp1492
g138
ag201
ag207
ag209
ag221
ag245
ag263
ag271
ag283
ag325
ag383
ag387
ag393
ag527
ag529
ag1103
ag601
ag1117
ag639
ag659
ag965
ag731
ag693
ag727
ag799
ag801
ag867
ag881
ag883
ag741
ag945
ag947
ag957
ag959
ag975
ag995
ag1011
ag96
ag1047
ag477
ag1119
ag671
ag1193
ag1143
ag1177
ag1139
ag1209
ag1253
ag1305
ag509
ag367
ag1355
ag1401
ag1415
ag1473
asg12
(lp1493
g2
ag57
ag138
ag183
ag201
ag207
ag209
ag221
ag245
ag263
ag271
ag283
ag325
ag347
ag383
ag387
ag391
ag467
ag1069
ag527
ag529
ag1103
ag567
ag1425
ag601
ag631
ag639
ag657
ag659
ag665
ag965
ag731
ag699
ag703
ag727
ag755
ag799
ag801
ag867
ag881
ag883
ag909
ag741
ag937
ag945
ag947
ag957
ag959
ag975
ag995
ag1007
ag1267
ag1011
ag96
ag1047
ag1247
ag477
ag1119
ag1123
ag671
ag1193
ag1141
ag1143
ag1177
ag1185
ag1093
ag1139
ag1209
ag1253
ag1283
ag805
ag509
ag367
ag1355
ag1401
ag1415
ag1469
ag1473
asg71
(lp1494
g57
ag138
ag145
ag177
ag183
ag207
ag209
ag221
ag233
ag245
ag271
ag283
ag311
ag331
ag347
ag353
ag383
ag387
ag391
ag449
ag1103
ag545
ag567
ag1425
ag653
ag659
ag665
ag731
ag699
ag703
ag693
ag727
ag755
ag771
ag801
ag1351
ag881
ag883
ag885
ag889
ag909
ag741
ag921
ag937
ag945
ag975
ag995
ag1007
ag1267
ag1011
ag1247
ag1123
ag671
ag1193
ag1141
ag1143
ag1177
ag1093
ag1139
ag1209
ag1229
ag1239
ag1249
ag1253
ag1283
ag265
ag805
ag509
ag367
ag1355
ag1401
ag903
ag1473
asg114
(lp1495
g138
ag201
ag207
ag209
ag221
ag245
ag263
ag271
ag283
ag325
ag331
ag383
ag387
ag393
ag527
ag529
ag1103
ag601
ag1117
ag639
ag657
ag659
ag965
ag731
ag693
ag755
ag799
ag801
ag867
ag881
ag883
ag741
ag945
ag947
ag957
ag959
ag975
ag995
ag1007
ag1011
ag96
ag1047
ag477
ag1119
ag671
ag1193
ag1143
ag1177
ag1139
ag1209
ag1253
ag805
ag509
ag367
ag1355
ag1401
ag1415
ag1469
ag1473
asg13
(lp1496
g2
ag138
ag201
ag207
ag209
ag221
ag245
ag263
ag271
ag283
ag325
ag337
ag387
ag393
ag527
ag529
ag1103
ag601
ag1117
ag631
ag639
ag657
ag659
ag965
ag731
ag693
ag799
ag801
ag867
ag881
ag883
ag741
ag945
ag947
ag957
ag959
ag975
ag995
ag1011
ag96
ag1047
ag477
ag1119
ag671
ag1193
ag1143
ag1177
ag1139
ag1209
ag1253
ag1305
ag509
ag367
ag1355
ag1401
ag1415
ag1473
asg141
(lp1497
g138
ag207
ag209
ag221
ag245
ag263
ag271
ag283
ag311
ag325
ag347
ag383
ag387
ag393
ag529
ag1103
ag567
ag1425
ag601
ag1117
ag657
ag659
ag965
ag731
ag703
ag727
ag755
ag801
ag867
ag881
ag883
ag909
ag741
ag939
ag945
ag947
ag957
ag959
ag975
ag995
ag1007
ag1011
ag1047
ag477
ag1123
ag671
ag1193
ag1143
ag1177
ag1185
ag1093
ag1139
ag1209
ag1229
ag1253
ag1283
ag805
ag509
ag367
ag1355
ag1401
ag1469
ag1473
asg4
(lp1498
g2
ag57
ag138
ag145
ag177
ag179
ag183
ag201
ag207
ag209
ag221
ag245
ag263
ag271
ag283
ag325
ag331
ag347
ag353
ag383
ag387
ag391
ag449
ag467
ag1069
ag527
ag529
ag1103
ag545
ag567
ag1425
ag631
ag639
ag653
ag657
ag659
ag665
ag965
ag731
ag703
ag693
ag727
ag755
ag771
ag781
ag799
ag801
ag1351
ag1367
ag867
ag881
ag883
ag909
ag741
ag939
ag945
ag947
ag957
ag959
ag975
ag995
ag1007
ag1267
ag1011
ag96
ag1047
ag477
ag1123
ag671
ag1193
ag1141
ag1143
ag1177
ag1093
ag1139
ag1209
ag1229
ag1239
ag1249
ag1253
ag1283
ag805
ag509
ag367
ag1355
ag1401
ag903
ag1469
ag1473
asg82
(lp1499
g57
ag138
ag183
ag207
ag209
ag221
ag245
ag263
ag271
ag283
ag325
ag331
ag347
ag383
ag387
ag393
ag527
ag1103
ag545
ag1425
ag601
ag639
ag657
ag659
ag665
ag965
ag731
ag703
ag693
ag727
ag755
ag799
ag801
ag867
ag881
ag883
ag909
ag741
ag945
ag947
ag957
ag959
ag975
ag995
ag1007
ag1011
ag96
ag1047
ag477
ag671
ag1193
ag1143
ag1177
ag1139
ag1209
ag1229
ag1253
ag1283
ag1305
ag509
ag367
ag1355
ag1401
ag1415
ag1469
ag1473
asg40
(lp1500
g2
ag57
ag138
ag201
ag207
ag209
ag221
ag245
ag263
ag271
ag283
ag325
ag331
ag347
ag353
ag383
ag387
ag391
ag393
ag467
ag1069
ag1103
ag545
ag589
ag1425
ag1117
ag631
ag639
ag653
ag657
ag659
ag665
ag965
ag731
ag703
ag707
ag693
ag727
ag755
ag799
ag801
ag867
ag881
ag883
ag909
ag741
ag937
ag939
ag945
ag947
ag959
ag975
ag995
ag1007
ag1267
ag1011
ag96
ag1047
ag477
ag671
ag1193
ag1141
ag1143
ag1177
ag1093
ag1139
ag1209
ag1229
ag1239
ag1253
ag1283
ag805
ag509
ag367
ag1355
ag1401
ag903
ag1469
ag1473
asg70
(lp1501
g57
ag138
ag145
ag183
ag207
ag209
ag221
ag245
ag271
ag283
ag325
ag331
ag347
ag353
ag383
ag387
ag391
ag449
ag467
ag1103
ag545
ag567
ag1425
ag631
ag653
ag657
ag659
ag665
ag731
ag703
ag693
ag727
ag755
ag801
ag1351
ag867
ag881
ag883
ag909
ag937
ag945
ag947
ag957
ag975
ag995
ag1007
ag1267
ag1011
ag96
ag1047
ag1247
ag1109
ag1123
ag671
ag1193
ag1141
ag1143
ag1177
ag1093
ag1139
ag1209
ag1229
ag1239
ag1249
ag1253
ag1283
ag805
ag509
ag367
ag1355
ag1401
ag903
ag1469
ag1473
asg129
(lp1502
g138
ag201
ag207
ag221
ag245
ag263
ag271
ag283
ag325
ag337
ag387
ag393
ag527
ag529
ag1103
ag1117
ag639
ag645
ag659
ag965
ag731
ag799
ag801
ag867
ag881
ag883
ag741
ag945
ag947
ag957
ag959
ag975
ag995
ag1011
ag96
ag1047
ag477
ag1107
ag1119
ag671
ag1193
ag1177
ag1139
ag1253
ag1305
ag509
ag367
ag1355
ag1387
ag1401
ag1415
asg74
(lp1503
g57
ag138
ag145
ag183
ag207
ag209
ag221
ag271
ag283
ag331
ag347
ag353
ag383
ag387
ag391
ag449
ag467
ag1103
ag545
ag567
ag1425
ag653
ag657
ag659
ag665
ag965
ag731
ag703
ag707
ag693
ag727
ag755
ag801
ag867
ag881
ag883
ag889
ag909
ag741
ag937
ag939
ag945
ag947
ag995
ag1007
ag1267
ag1011
ag1047
ag1247
ag477
ag1123
ag671
ag1193
ag1141
ag1143
ag1177
ag1093
ag1139
ag1209
ag1229
ag1239
ag1249
ag1253
ag1283
ag805
ag509
ag367
ag1355
ag1401
ag903
ag1469
ag1473
asg69
(lp1504
g57
ag138
ag145
ag177
ag179
ag183
ag207
ag209
ag221
ag233
ag245
ag271
ag283
ag311
ag331
ag347
ag353
ag379
ag383
ag387
ag391
ag449
ag1103
ag545
ag567
ag1425
ag653
ag657
ag659
ag665
ag731
ag699
ag703
ag693
ag727
ag755
ag771
ag801
ag1351
ag881
ag883
ag885
ag889
ag909
ag741
ag921
ag937
ag945
ag995
ag1007
ag1267
ag1011
ag1247
ag1121
ag1123
ag1193
ag1141
ag1143
ag1177
ag1093
ag1139
ag1209
ag1229
ag1239
ag1249
ag1253
ag1283
ag265
ag805
ag509
ag367
ag1355
ag1401
ag903
ag1473
asg10
(lp1505
g2
ag57
ag138
ag145
ag183
ag191
ag201
ag207
ag209
ag221
ag263
ag271
ag283
ag331
ag347
ag353
ag383
ag387
ag391
ag449
ag1069
ag1103
ag545
ag567
ag1425
ag631
ag653
ag657
ag659
ag665
ag731
ag703
ag693
ag727
ag755
ag799
ag801
ag867
ag881
ag883
ag909
ag741
ag937
ag945
ag947
ag995
ag1007
ag1267
ag1011
ag96
ag1047
ag1247
ag477
ag1123
ag671
ag1193
ag1141
ag1143
ag1177
ag1093
ag1139
ag1209
ag1229
ag1239
ag1249
ag1253
ag1283
ag805
ag509
ag367
ag1355
ag1401
ag903
ag1469
ag1473
asg117
(lp1506
g138
ag201
ag207
ag209
ag221
ag245
ag263
ag271
ag283
ag325
ag337
ag347
ag387
ag393
ag529
ag1103
ag1117
ag639
ag657
ag659
ag965
ag731
ag693
ag727
ag755
ag799
ag801
ag867
ag881
ag883
ag741
ag945
ag947
ag957
ag959
ag975
ag995
ag1011
ag96
ag1047
ag477
ag1119
ag671
ag1193
ag1177
ag1139
ag1209
ag1253
ag509
ag367
ag1355
ag1401
ag1473
asg126
(lp1507
g138
ag177
ag201
ag207
ag209
ag221
ag245
ag263
ag271
ag283
ag325
ag347
ag383
ag387
ag393
ag467
ag1069
ag527
ag1103
ag601
ag639
ag657
ag659
ag665
ag965
ag731
ag703
ag693
ag727
ag755
ag799
ag801
ag1367
ag867
ag881
ag883
ag909
ag741
ag939
ag945
ag947
ag959
ag975
ag995
ag1011
ag96
ag1047
ag1247
ag477
ag671
ag1193
ag1141
ag1177
ag1185
ag1093
ag1139
ag1209
ag1253
ag1283
ag1287
ag509
ag367
ag1355
ag1401
ag1469
ag1473
asg121
(lp1508
g138
ag201
ag207
ag221
ag245
ag263
ag271
ag283
ag325
ag337
ag347
ag387
ag393
ag527
ag529
ag1103
ag601
ag1117
ag639
ag657
ag659
ag731
ag699
ag693
ag727
ag755
ag799
ag801
ag1367
ag867
ag881
ag883
ag741
ag947
ag957
ag959
ag975
ag995
ag1011
ag96
ag1047
ag477
ag1119
ag671
ag1193
ag1143
ag1177
ag1139
ag1209
ag1253
ag509
ag367
ag1355
ag1401
ag1415
ag1469
ag1473
asg64
(lp1509
g57
ag138
ag201
ag207
ag209
ag221
ag245
ag263
ag271
ag283
ag311
ag325
ag331
ag347
ag383
ag387
ag449
ag467
ag527
ag1103
ag567
ag639
ag653
ag657
ag659
ag731
ag699
ag703
ag727
ag755
ag801
ag217
ag1367
ag867
ag881
ag883
ag909
ag741
ag945
ag947
ag959
ag975
ag995
ag1007
ag1267
ag1011
ag96
ag1047
ag1247
ag477
ag671
ag1193
ag1141
ag1143
ag1177
ag1093
ag1139
ag1209
ag1217
ag1239
ag1253
ag1283
ag1287
ag805
ag1403
ag509
ag367
ag1355
ag1401
ag903
ag1469
ag1473
asg140
(lp1510
g138
ag201
ag207
ag209
ag221
ag245
ag263
ag271
ag283
ag325
ag347
ag383
ag387
ag393
ag527
ag1103
ag657
ag659
ag965
ag731
ag703
ag727
ag755
ag801
ag1367
ag867
ag881
ag883
ag907
ag909
ag741
ag939
ag945
ag947
ag959
ag995
ag1011
ag1047
ag477
ag671
ag1193
ag1177
ag1093
ag1139
ag1209
ag1253
ag1283
ag509
ag367
ag1355
ag1401
ag1469
ag1473
asg88
(lp1511
g57
ag138
ag201
ag207
ag209
ag221
ag245
ag263
ag271
ag283
ag325
ag347
ag353
ag383
ag387
ag391
ag393
ag449
ag1069
ag527
ag529
ag1103
ag1425
ag601
ag639
ag657
ag659
ag965
ag687
ag731
ag699
ag703
ag693
ag727
ag755
ag799
ag801
ag1367
ag867
ag881
ag883
ag741
ag939
ag945
ag947
ag959
ag975
ag995
ag1011
ag96
ag1047
ag477
ag671
ag1193
ag1177
ag1093
ag1139
ag1209
ag1239
ag1253
ag509
ag367
ag1355
ag1401
ag903
ag1473
asg110
(lp1512
g138
ag201
ag207
ag209
ag221
ag245
ag263
ag271
ag283
ag311
ag325
ag347
ag383
ag385
ag387
ag449
ag467
ag1069
ag527
ag1103
ag1425
ag639
ag653
ag657
ag659
ag965
ag731
ag699
ag703
ag707
ag727
ag755
ag801
ag1367
ag867
ag881
ag883
ag909
ag741
ag939
ag945
ag959
ag975
ag995
ag1007
ag1267
ag1011
ag96
ag1247
ag477
ag1119
ag1123
ag671
ag1193
ag1143
ag1177
ag1185
ag1093
ag1139
ag1209
ag1217
ag1253
ag1283
ag1287
ag805
ag1403
ag1313
ag509
ag367
ag1355
ag1401
ag903
ag1469
ag1473
asg34
(lp1513
g2
ag57
ag138
ag207
ag209
ag221
ag245
ag263
ag271
ag283
ag325
ag331
ag347
ag383
ag387
ag393
ag467
ag527
ag1103
ag601
ag1117
ag639
ag657
ag659
ag665
ag965
ag731
ag703
ag693
ag727
ag755
ag799
ag801
ag867
ag881
ag883
ag741
ag939
ag945
ag947
ag957
ag959
ag975
ag995
ag1007
ag1267
ag1011
ag96
ag1047
ag477
ag671
ag1193
ag1143
ag1177
ag1139
ag1209
ag1229
ag1239
ag1253
ag805
ag509
ag367
ag1355
ag1401
ag903
ag1415
ag1469
ag1473
asg42
(lp1514
g2
ag138
ag201
ag207
ag209
ag221
ag245
ag263
ag271
ag283
ag325
ag347
ag383
ag387
ag449
ag1069
ag529
ag1103
ag545
ag639
ag657
ag659
ag731
ag703
ag727
ag755
ag801
ag1367
ag867
ag881
ag883
ag909
ag741
ag939
ag945
ag947
ag957
ag959
ag975
ag995
ag1007
ag1011
ag96
ag1047
ag1247
ag477
ag1119
ag1123
ag671
ag1193
ag1141
ag1177
ag1093
ag1139
ag1209
ag1253
ag1283
ag1287
ag509
ag367
ag1355
ag1401
ag903
ag1469
ag1473
asg123
(lp1515
g138
ag201
ag207
ag221
ag245
ag263
ag271
ag283
ag325
ag337
ag387
ag393
ag529
ag1103
ag1117
ag639
ag645
ag659
ag965
ag731
ag799
ag801
ag867
ag881
ag883
ag741
ag945
ag947
ag957
ag959
ag975
ag995
ag1011
ag96
ag1047
ag1119
ag671
ag1177
ag1139
ag1253
ag1305
ag509
ag367
ag1355
ag1387
ag1401
ag1415
asg32
(lp1516
g2
ag57
ag138
ag145
ag177
ag183
ag207
ag209
ag221
ag263
ag271
ag283
ag325
ag331
ag347
ag353
ag383
ag387
ag391
ag449
ag527
ag1103
ag545
ag567
ag1425
ag601
ag631
ag639
ag659
ag665
ag731
ag703
ag693
ag727
ag755
ag799
ag801
ag867
ag881
ag883
ag909
ag741
ag921
ag937
ag945
ag947
ag957
ag995
ag1007
ag1267
ag1011
ag96
ag1047
ag1247
ag477
ag1123
ag671
ag1193
ag1143
ag1177
ag1093
ag1139
ag1209
ag1229
ag1239
ag1249
ag1253
ag805
ag509
ag367
ag1355
ag1401
ag903
ag1469
asg124
(lp1517
g138
ag201
ag207
ag209
ag221
ag245
ag263
ag271
ag283
ag311
ag325
ag347
ag383
ag385
ag387
ag467
ag1069
ag527
ag1103
ag545
ag567
ag1425
ag631
ag639
ag653
ag657
ag659
ag731
ag699
ag703
ag707
ag727
ag755
ag771
ag801
ag1351
ag1367
ag867
ag881
ag883
ag909
ag741
ag945
ag947
ag957
ag959
ag975
ag995
ag1007
ag1267
ag1011
ag96
ag1247
ag477
ag1119
ag1123
ag671
ag1193
ag1141
ag1143
ag1177
ag1185
ag1093
ag1139
ag1209
ag1217
ag1253
ag1283
ag1287
ag805
ag1403
ag1313
ag509
ag367
ag1355
ag1401
ag903
ag1469
ag1473
asg144
(lp1518
g138
ag183
ag209
ag221
ag271
ag283
ag347
ag353
ag387
ag391
ag527
ag545
ag567
ag1425
ag659
ag665
ag731
ag693
ag727
ag801
ag867
ag881
ag883
ag885
ag741
ag921
ag947
ag957
ag995
ag1007
ag1011
ag1193
ag1143
ag1177
ag1093
ag1139
ag1209
ag1229
ag1239
ag1249
ag1253
ag1283
ag805
ag509
ag1355
ag1401
ag903
asg68
(lp1519
g57
ag138
ag145
ag183
ag207
ag209
ag221
ag271
ag283
ag331
ag347
ag353
ag383
ag387
ag527
ag1103
ag545
ag567
ag1425
ag659
ag665
ag731
ag703
ag693
ag727
ag755
ag801
ag867
ag881
ag883
ag741
ag937
ag945
ag947
ag957
ag995
ag1007
ag1267
ag1011
ag1247
ag1123
ag671
ag1193
ag1143
ag1177
ag1093
ag1139
ag1209
ag1229
ag1239
ag1249
ag1253
ag805
ag509
ag367
ag1355
ag1401
ag903
ag1469
asg52
(lp1520
g2
ag57
ag138
ag183
ag207
ag209
ag221
ag245
ag263
ag271
ag283
ag311
ag325
ag331
ag347
ag353
ag383
ag387
ag391
ag449
ag467
ag527
ag1103
ag545
ag567
ag1425
ag631
ag639
ag653
ag657
ag659
ag665
ag965
ag731
ag703
ag693
ag727
ag755
ag799
ag801
ag1351
ag867
ag881
ag883
ag909
ag741
ag937
ag945
ag947
ag957
ag959
ag975
ag995
ag1007
ag1267
ag1011
ag96
ag1047
ag1247
ag477
ag1123
ag671
ag1193
ag1141
ag1143
ag1177
ag1093
ag1139
ag1209
ag1229
ag1239
ag1253
ag1283
ag805
ag509
ag367
ag1355
ag1401
ag903
ag1469
ag1473
asg111
(lp1521
g138
ag201
ag207
ag209
ag221
ag245
ag263
ag271
ag283
ag311
ag325
ag347
ag383
ag385
ag387
ag449
ag1069
ag1103
ag545
ag567
ag1425
ag601
ag653
ag657
ag659
ag687
ag731
ag699
ag703
ag707
ag727
ag755
ag771
ag801
ag217
ag867
ag881
ag883
ag909
ag741
ag945
ag947
ag959
ag995
ag1007
ag1267
ag1011
ag96
ag1047
ag1247
ag477
ag1123
ag671
ag1193
ag1141
ag1143
ag1177
ag1093
ag1139
ag1209
ag1253
ag1283
ag1287
ag805
ag1403
ag509
ag367
ag1355
ag1401
ag1469
ag1473
asg22
(lp1522
g2
ag138
ag183
ag201
ag207
ag209
ag221
ag245
ag263
ag271
ag283
ag325
ag331
ag337
ag353
ag387
ag393
ag403
ag449
ag527
ag529
ag1103
ag601
ag1117
ag639
ag645
ag659
ag665
ag965
ag731
ag693
ag727
ag755
ag799
ag801
ag867
ag881
ag883
ag741
ag945
ag947
ag957
ag959
ag975
ag995
ag1011
ag96
ag1047
ag477
ag1119
ag671
ag1193
ag1177
ag1139
ag1209
ag1229
ag1249
ag1253
ag1305
ag509
ag367
ag1355
ag1401
ag1469
asg104
(lp1523
g138
ag201
ag207
ag209
ag221
ag245
ag263
ag271
ag283
ag325
ag331
ag337
ag387
ag393
ag527
ag529
ag1103
ag1117
ag639
ag645
ag659
ag965
ag731
ag693
ag727
ag755
ag799
ag801
ag867
ag881
ag883
ag741
ag945
ag947
ag957
ag959
ag975
ag995
ag1011
ag96
ag1047
ag1119
ag671
ag1193
ag1177
ag1139
ag1209
ag1253
ag1305
ag509
ag367
ag1355
ag1401
asg33
(lp1524
g2
ag57
ag138
ag183
ag201
ag207
ag209
ag221
ag245
ag263
ag271
ag283
ag325
ag331
ag347
ag383
ag387
ag393
ag467
ag1069
ag529
ag1103
ag545
ag567
ag1117
ag639
ag657
ag659
ag965
ag731
ag703
ag693
ag727
ag755
ag799
ag801
ag867
ag881
ag883
ag741
ag945
ag947
ag957
ag959
ag975
ag995
ag1007
ag1011
ag96
ag1047
ag477
ag1123
ag671
ag1193
ag1141
ag1177
ag1093
ag1139
ag1209
ag1253
ag509
ag367
ag1355
ag1401
ag903
ag1415
ag1469
ag1473
asg9
(lp1525
g2
ag57
ag138
ag145
ag177
ag183
ag207
ag209
ag221
ag271
ag283
ag331
ag347
ag353
ag383
ag387
ag391
ag449
ag527
ag1103
ag545
ag567
ag1425
ag631
ag653
ag657
ag659
ag665
ag731
ag703
ag693
ag727
ag755
ag799
ag801
ag867
ag881
ag883
ag909
ag741
ag937
ag945
ag947
ag957
ag995
ag1007
ag1267
ag1011
ag96
ag1047
ag1247
ag477
ag1123
ag671
ag1193
ag1141
ag1143
ag1177
ag1093
ag1139
ag1209
ag1229
ag1239
ag1249
ag1253
ag1283
ag805
ag509
ag367
ag1355
ag1401
ag903
ag1469
ag1473
asg120
(lp1526
g138
ag207
ag209
ag221
ag245
ag263
ag271
ag283
ag347
ag383
ag387
ag449
ag1103
ag657
ag659
ag731
ag703
ag727
ag801
ag867
ag881
ag883
ag909
ag741
ag947
ag959
ag995
ag96
ag1047
ag477
ag671
ag1193
ag1141
ag1143
ag1177
ag1093
ag1139
ag1209
ag1253
ag1283
ag509
ag367
ag1355
ag1401
ag903
ag1469
ag1473
asg99
(lp1527
g138
ag183
ag201
ag207
ag209
ag221
ag245
ag263
ag271
ag283
ag311
ag325
ag347
ag383
ag385
ag387
ag467
ag527
ag529
ag1103
ag545
ag567
ag1425
ag639
ag653
ag657
ag659
ag731
ag699
ag703
ag707
ag727
ag755
ag801
ag1367
ag867
ag881
ag883
ag909
ag741
ag945
ag947
ag959
ag975
ag995
ag1007
ag1267
ag1011
ag96
ag1247
ag477
ag1119
ag1123
ag671
ag1193
ag1141
ag1143
ag1177
ag1185
ag1093
ag1139
ag1209
ag1217
ag1239
ag1253
ag1283
ag1287
ag805
ag1403
ag1313
ag509
ag367
ag1355
ag1401
ag903
ag1469
ag1473
asg118
(lp1528
g138
ag201
ag207
ag209
ag221
ag245
ag263
ag271
ag283
ag325
ag347
ag387
ag393
ag527
ag1103
ag1117
ag639
ag657
ag659
ag731
ag693
ag727
ag755
ag799
ag801
ag867
ag881
ag883
ag741
ag945
ag947
ag957
ag959
ag975
ag995
ag1011
ag96
ag1047
ag477
ag671
ag1193
ag1141
ag1177
ag1139
ag1209
ag1253
ag1287
ag509
ag367
ag1355
ag1401
ag1415
ag1473
asg6
(lp1529
g2
ag57
ag138
ag207
ag209
ag221
ag245
ag263
ag271
ag283
ag325
ag347
ag361
ag383
ag387
ag393
ag529
ag1103
ag1117
ag639
ag657
ag659
ag965
ag731
ag703
ag727
ag755
ag801
ag867
ag881
ag883
ag909
ag741
ag945
ag947
ag957
ag959
ag995
ag1007
ag1011
ag1047
ag477
ag671
ag1193
ag1177
ag1093
ag1139
ag1209
ag1253
ag1283
ag1305
ag509
ag367
ag1355
ag1401
ag1469
ag1473
asg39
(lp1530
g2
ag138
ag183
ag201
ag207
ag209
ag221
ag245
ag263
ag271
ag283
ag325
ag331
ag337
ag347
ag383
ag387
ag393
ag449
ag527
ag529
ag1103
ag567
ag601
ag1117
ag639
ag645
ag659
ag965
ag731
ag703
ag693
ag727
ag755
ag799
ag801
ag867
ag881
ag883
ag741
ag945
ag947
ag957
ag959
ag975
ag995
ag1011
ag96
ag1047
ag477
ag1119
ag671
ag1193
ag1143
ag1177
ag1139
ag1209
ag1229
ag1253
ag1283
ag1287
ag509
ag367
ag1355
ag1401
ag903
ag1469
ag1473
asg102
(lp1531
g138
ag201
ag207
ag209
ag221
ag245
ag263
ag271
ag283
ag325
ag347
ag387
ag393
ag529
ag1103
ag1117
ag639
ag657
ag659
ag731
ag693
ag727
ag755
ag799
ag801
ag1367
ag867
ag881
ag883
ag741
ag947
ag957
ag959
ag975
ag995
ag1011
ag96
ag1047
ag477
ag671
ag1193
ag1177
ag1139
ag1209
ag1253
ag1403
ag509
ag367
ag1355
ag1401
ag1473
asg59
(lp1532
g57
ag138
ag207
ag209
ag221
ag245
ag263
ag271
ag283
ag347
ag353
ag383
ag387
ag449
ag529
ag1103
ag545
ag657
ag659
ag731
ag703
ag727
ag801
ag867
ag881
ag883
ag909
ag741
ag947
ag957
ag959
ag995
ag96
ag1047
ag477
ag1123
ag671
ag1193
ag1143
ag1177
ag1093
ag1139
ag1209
ag1229
ag1253
ag1283
ag509
ag367
ag1355
ag1401
ag1469
ag1473
asg62
(lp1533
g57
ag138
ag145
ag177
ag179
ag183
ag207
ag209
ag221
ag245
ag263
ag271
ag283
ag325
ag331
ag347
ag353
ag383
ag387
ag391
ag449
ag467
ag1069
ag1103
ag545
ag567
ag1425
ag1117
ag631
ag653
ag657
ag659
ag665
ag731
ag703
ag707
ag693
ag727
ag755
ag771
ag781
ag801
ag1351
ag217
ag1367
ag881
ag883
ag909
ag741
ag939
ag945
ag947
ag957
ag975
ag995
ag1007
ag1267
ag1011
ag96
ag1247
ag477
ag1123
ag671
ag1193
ag1141
ag1143
ag1177
ag1093
ag1139
ag1209
ag1229
ag1239
ag1249
ag1253
ag1283
ag805
ag509
ag367
ag1355
ag1401
ag903
ag1469
ag1473
asg101
(lp1534
g138
ag177
ag201
ag207
ag209
ag221
ag245
ag263
ag271
ag283
ag311
ag325
ag347
ag383
ag385
ag387
ag467
ag1069
ag527
ag1103
ag567
ag639
ag653
ag657
ag659
ag665
ag731
ag699
ag703
ag707
ag693
ag727
ag755
ag801
ag1367
ag867
ag881
ag883
ag909
ag741
ag945
ag947
ag959
ag975
ag995
ag1007
ag1011
ag96
ag1047
ag1247
ag477
ag1119
ag1123
ag671
ag1193
ag1143
ag1177
ag1185
ag1093
ag1139
ag1209
ag1217
ag1253
ag1283
ag1287
ag805
ag509
ag367
ag1355
ag1401
ag1469
ag1473
asg19
(lp1535
g2
ag57
ag138
ag177
ag183
ag201
ag207
ag209
ag221
ag245
ag263
ag271
ag283
ag311
ag325
ag347
ag383
ag387
ag391
ag393
ag449
ag467
ag1069
ag527
ag529
ag1103
ag545
ag567
ag589
ag1425
ag601
ag653
ag657
ag659
ag665
ag965
ag687
ag731
ag703
ag727
ag755
ag763
ag799
ag801
ag217
ag1367
ag867
ag881
ag883
ag909
ag741
ag945
ag947
ag957
ag959
ag975
ag995
ag1007
ag1267
ag1011
ag96
ag1047
ag1247
ag477
ag1119
ag1123
ag671
ag1193
ag1141
ag1143
ag1177
ag1185
ag1093
ag1139
ag1209
ag1217
ag1229
ag1239
ag1253
ag1283
ag1287
ag805
ag1305
ag509
ag367
ag1355
ag1401
ag903
ag1415
ag1469
ag1473
asg29
(lp1536
g2
ag138
ag201
ag207
ag209
ag221
ag245
ag263
ag271
ag283
ag311
ag325
ag331
ag347
ag383
ag385
ag387
ag391
ag403
ag449
ag467
ag527
ag1103
ag545
ag567
ag1425
ag639
ag653
ag657
ag659
ag687
ag731
ag699
ag703
ag707
ag727
ag755
ag801
ag1367
ag867
ag881
ag883
ag909
ag741
ag939
ag945
ag947
ag957
ag959
ag975
ag995
ag1007
ag1267
ag1011
ag96
ag1047
ag1247
ag477
ag1119
ag1123
ag671
ag1193
ag1141
ag1143
ag1177
ag1185
ag1093
ag1139
ag1209
ag1217
ag1229
ag1239
ag1253
ag1283
ag1287
ag805
ag1403
ag1313
ag509
ag367
ag1355
ag1401
ag903
ag1415
ag1469
ag1473
asg130
(lp1537
g138
ag183
ag201
ag207
ag209
ag221
ag245
ag263
ag271
ag283
ag311
ag325
ag331
ag347
ag383
ag387
ag449
ag467
ag527
ag1103
ag567
ag639
ag657
ag659
ag965
ag731
ag699
ag703
ag727
ag755
ag799
ag801
ag1367
ag867
ag881
ag883
ag909
ag741
ag945
ag947
ag957
ag959
ag975
ag995
ag1007
ag1011
ag96
ag1047
ag1247
ag477
ag1119
ag671
ag1193
ag1141
ag1143
ag1177
ag1093
ag1139
ag1209
ag1253
ag1287
ag805
ag509
ag367
ag1355
ag1401
ag903
ag1469
ag1473
asg80
(lp1538
g57
ag138
ag207
ag209
ag221
ag245
ag263
ag271
ag283
ag325
ag347
ag383
ag387
ag393
ag1103
ag545
ag631
ag639
ag657
ag659
ag965
ag687
ag731
ag699
ag703
ag727
ag755
ag799
ag801
ag1367
ag867
ag881
ag883
ag909
ag741
ag939
ag947
ag959
ag975
ag995
ag1011
ag96
ag1047
ag477
ag671
ag1193
ag1143
ag1177
ag1093
ag1139
ag1209
ag1253
ag1283
ag509
ag367
ag1355
ag1401
ag903
ag1469
ag1473
asg92
(lp1539
g57
ag138
ag145
ag183
ag207
ag209
ag221
ag271
ag283
ag331
ag347
ag353
ag383
ag387
ag391
ag449
ag527
ag1103
ag545
ag567
ag1425
ag653
ag657
ag659
ag665
ag731
ag699
ag703
ag693
ag727
ag755
ag801
ag1351
ag867
ag881
ag883
ag909
ag741
ag937
ag945
ag947
ag995
ag1007
ag1267
ag1011
ag1247
ag477
ag1123
ag671
ag1193
ag1141
ag1143
ag1177
ag1093
ag1139
ag1209
ag1229
ag1239
ag1249
ag1253
ag1283
ag805
ag509
ag367
ag1355
ag1401
ag903
ag1469
ag1473
asg46
(lp1540
g2
ag57
ag138
ag183
ag201
ag207
ag209
ag221
ag263
ag271
ag283
ag325
ag331
ag347
ag353
ag383
ag387
ag449
ag527
ag529
ag1103
ag545
ag567
ag1425
ag601
ag631
ag639
ag659
ag665
ag965
ag731
ag703
ag693
ag727
ag755
ag781
ag799
ag801
ag867
ag881
ag883
ag909
ag741
ag937
ag945
ag947
ag957
ag995
ag1007
ag1267
ag1011
ag96
ag1047
ag1247
ag477
ag1123
ag671
ag1193
ag1141
ag1143
ag1177
ag1093
ag1139
ag1209
ag1229
ag1239
ag1249
ag1253
ag1283
ag805
ag509
ag367
ag1355
ag1401
ag903
ag1469
ag1473
asg15
(lp1541
g2
ag57
ag138
ag183
ag201
ag207
ag209
ag221
ag245
ag263
ag271
ag283
ag325
ag331
ag347
ag353
ag387
ag393
ag527
ag529
ag1103
ag545
ag567
ag601
ag1117
ag645
ag659
ag665
ag965
ag731
ag703
ag693
ag727
ag755
ag799
ag801
ag867
ag881
ag883
ag741
ag937
ag939
ag945
ag947
ag957
ag959
ag975
ag995
ag1007
ag1011
ag96
ag1047
ag477
ag1119
ag671
ag1193
ag1143
ag1177
ag1093
ag1139
ag1209
ag1229
ag1239
ag1253
ag1283
ag805
ag509
ag367
ag1355
ag1401
ag903
ag1469
ag1473
asg90
(lp1542
g57
ag138
ag145
ag183
ag207
ag209
ag221
ag271
ag283
ag331
ag347
ag353
ag383
ag387
ag449
ag1103
ag545
ag567
ag1425
ag659
ag665
ag731
ag703
ag693
ag727
ag755
ag801
ag867
ag881
ag883
ag909
ag741
ag921
ag937
ag945
ag947
ag995
ag1007
ag1267
ag1011
ag1247
ag1123
ag671
ag1193
ag1143
ag1177
ag1093
ag1139
ag1209
ag1229
ag1239
ag1249
ag1253
ag1283
ag805
ag509
ag367
ag1355
ag1401
ag903
ag1469
asg31
(lp1543
g2
ag57
ag138
ag207
ag209
ag221
ag245
ag263
ag271
ag283
ag325
ag331
ag347
ag383
ag387
ag393
ag449
ag467
ag1069
ag527
ag529
ag1103
ag545
ag1425
ag601
ag1117
ag631
ag639
ag657
ag659
ag665
ag965
ag731
ag699
ag703
ag693
ag727
ag755
ag771
ag799
ag801
ag1367
ag867
ag881
ag883
ag909
ag741
ag937
ag945
ag947
ag957
ag959
ag975
ag995
ag1007
ag1267
ag1011
ag96
ag1047
ag477
ag1123
ag671
ag1193
ag1143
ag1177
ag1093
ag1139
ag1209
ag1229
ag1239
ag1253
ag1283
ag805
ag509
ag367
ag1355
ag1401
ag903
ag1415
ag1469
ag1473
asg50
(lp1544
g2
ag138
ag201
ag207
ag209
ag221
ag245
ag263
ag271
ag283
ag325
ag331
ag347
ag353
ag383
ag387
ag393
ag403
ag449
ag1069
ag527
ag529
ag1103
ag1425
ag601
ag1117
ag639
ag653
ag657
ag659
ag665
ag965
ag731
ag703
ag693
ag727
ag755
ag799
ag801
ag1351
ag867
ag881
ag883
ag909
ag741
ag937
ag945
ag947
ag957
ag959
ag975
ag995
ag1007
ag1267
ag1011
ag96
ag1047
ag477
ag1119
ag671
ag1193
ag1143
ag1177
ag1093
ag1139
ag1209
ag1229
ag1253
ag509
ag367
ag1355
ag1401
ag1415
ag1469
ag1473
asg18
(lp1545
g2
ag138
ag201
ag207
ag209
ag221
ag245
ag263
ag271
ag283
ag325
ag331
ag337
ag387
ag393
ag527
ag529
ag1103
ag601
ag1117
ag639
ag645
ag659
ag965
ag731
ag693
ag727
ag755
ag799
ag801
ag867
ag881
ag883
ag741
ag945
ag947
ag957
ag959
ag975
ag995
ag1011
ag96
ag1047
ag1119
ag671
ag1193
ag1177
ag1139
ag1209
ag1249
ag1253
ag1287
ag509
ag367
ag1355
ag1401
ag1415
ag1469
asg84
(lp1546
g57
ag145
ag177
ag183
ag207
ag209
ag221
ag233
ag271
ag283
ag331
ag347
ag353
ag387
ag391
ag449
ag1069
ag527
ag1103
ag545
ag567
ag1425
ag659
ag665
ag731
ag703
ag693
ag727
ag771
ag781
ag801
ag1351
ag881
ag883
ag885
ag889
ag909
ag921
ag937
ag945
ag957
ag975
ag995
ag1007
ag1267
ag1011
ag1247
ag1123
ag671
ag1193
ag1141
ag1143
ag1177
ag1093
ag1139
ag1209
ag1229
ag1239
ag1249
ag1253
ag1283
ag805
ag509
ag367
ag1355
ag1401
ag903
ag1473
asg65
(lp1547
g57
ag138
ag145
ag177
ag183
ag207
ag209
ag221
ag271
ag283
ag331
ag347
ag353
ag387
ag391
ag449
ag1103
ag545
ag567
ag1425
ag653
ag657
ag659
ag665
ag731
ag703
ag707
ag693
ag727
ag771
ag781
ag801
ag1351
ag881
ag883
ag885
ag889
ag909
ag921
ag937
ag945
ag957
ag995
ag1007
ag1267
ag1011
ag1247
ag1109
ag1123
ag1193
ag1141
ag1143
ag1177
ag1093
ag1139
ag1209
ag1229
ag1239
ag1249
ag1253
ag1283
ag805
ag509
ag367
ag1355
ag1401
ag903
asg86
(lp1548
g57
ag138
ag145
ag183
ag191
ag207
ag209
ag221
ag271
ag331
ag347
ag353
ag383
ag387
ag391
ag449
ag1103
ag545
ag567
ag1425
ag631
ag653
ag657
ag659
ag665
ag731
ag703
ag693
ag727
ag755
ag801
ag867
ag881
ag883
ag889
ag909
ag741
ag937
ag939
ag945
ag947
ag995
ag1007
ag1267
ag1011
ag96
ag1247
ag1123
ag671
ag1193
ag1141
ag1143
ag1177
ag1093
ag1139
ag1209
ag1229
ag1239
ag1249
ag1253
ag1283
ag805
ag509
ag367
ag1355
ag1401
ag903
ag1469
ag1473
asg78
(lp1549
g57
ag138
ag145
ag183
ag207
ag209
ag221
ag271
ag331
ag347
ag353
ag383
ag387
ag391
ag449
ag1103
ag545
ag567
ag1425
ag631
ag653
ag657
ag659
ag665
ag731
ag703
ag693
ag727
ag755
ag801
ag867
ag881
ag883
ag909
ag741
ag937
ag939
ag945
ag947
ag957
ag995
ag1007
ag1267
ag1011
ag1247
ag1123
ag671
ag1193
ag1141
ag1143
ag1177
ag1093
ag1139
ag1209
ag1229
ag1239
ag1249
ag1253
ag1283
ag805
ag509
ag367
ag1355
ag1401
ag903
ag1469
ag1473
asg131
(lp1550
g138
ag201
ag207
ag221
ag245
ag263
ag271
ag283
ag325
ag337
ag387
ag393
ag527
ag529
ag1103
ag601
ag1117
ag639
ag645
ag659
ag965
ag731
ag693
ag799
ag801
ag867
ag881
ag883
ag741
ag945
ag947
ag957
ag959
ag975
ag995
ag1011
ag96
ag1047
ag477
ag1119
ag671
ag1193
ag1143
ag1177
ag1139
ag1209
ag1253
ag1305
ag509
ag367
ag1355
ag1401
ag1415
asg91
(lp1551
g57
ag138
ag145
ag183
ag207
ag209
ag221
ag271
ag331
ag347
ag353
ag383
ag387
ag391
ag449
ag1103
ag545
ag567
ag1425
ag631
ag653
ag657
ag659
ag665
ag731
ag703
ag693
ag727
ag755
ag801
ag1351
ag867
ag881
ag883
ag909
ag741
ag921
ag937
ag939
ag945
ag947
ag995
ag1007
ag1267
ag1011
ag1247
ag1123
ag671
ag1193
ag1141
ag1143
ag1177
ag1093
ag1139
ag1209
ag1229
ag1239
ag1249
ag1253
ag1283
ag805
ag509
ag367
ag1355
ag1401
ag903
ag1469
ag1473
asg47
(lp1552
g2
ag138
ag201
ag207
ag209
ag221
ag245
ag263
ag271
ag283
ag311
ag325
ag347
ag387
ag393
ag529
ag1103
ag545
ag1117
ag639
ag657
ag659
ag965
ag731
ag693
ag727
ag755
ag799
ag801
ag1367
ag867
ag881
ag883
ag909
ag741
ag939
ag945
ag947
ag959
ag975
ag995
ag1007
ag1011
ag96
ag1047
ag477
ag671
ag1193
ag1177
ag1139
ag1209
ag1253
ag509
ag367
ag1355
ag1401
ag1473
asg98
(lp1553
g138
ag201
ag207
ag209
ag221
ag245
ag263
ag271
ag283
ag325
ag331
ag337
ag387
ag393
ag403
ag527
ag529
ag1103
ag1117
ag639
ag645
ag659
ag965
ag731
ag693
ag727
ag755
ag799
ag801
ag867
ag881
ag883
ag741
ag945
ag947
ag957
ag959
ag975
ag995
ag1011
ag96
ag1047
ag1119
ag671
ag1193
ag1143
ag1177
ag1139
ag1209
ag1229
ag1253
ag1305
ag509
ag367
ag1355
ag1401
asg27
(lp1554
g2
ag57
ag138
ag183
ag207
ag209
ag221
ag263
ag271
ag283
ag331
ag347
ag353
ag383
ag387
ag449
ag527
ag1103
ag545
ag567
ag601
ag1117
ag631
ag639
ag657
ag659
ag665
ag965
ag731
ag703
ag693
ag727
ag755
ag799
ag801
ag867
ag881
ag883
ag909
ag741
ag937
ag939
ag945
ag947
ag957
ag975
ag995
ag1007
ag1267
ag1011
ag96
ag1047
ag1247
ag477
ag1123
ag671
ag1193
ag1141
ag1143
ag1177
ag1093
ag1139
ag1209
ag1229
ag1239
ag1249
ag1253
ag1283
ag805
ag509
ag367
ag1355
ag1401
ag903
ag1469
ag1473
asg81
(lp1555
g57
ag138
ag207
ag209
ag221
ag245
ag263
ag271
ag283
ag325
ag347
ag353
ag383
ag387
ag391
ag449
ag1069
ag529
ag1103
ag567
ag589
ag653
ag657
ag659
ag665
ag687
ag731
ag699
ag703
ag693
ag727
ag755
ag801
ag867
ag881
ag883
ag909
ag741
ag939
ag945
ag947
ag959
ag995
ag1047
ag1247
ag477
ag1123
ag671
ag1193
ag1141
ag1143
ag1177
ag1093
ag1139
ag1209
ag1217
ag1229
ag1239
ag1253
ag1283
ag805
ag509
ag367
ag1355
ag1401
ag903
ag1469
ag1473
asg73
(lp1556
g57
ag145
ag179
ag183
ag207
ag209
ag221
ag233
ag271
ag283
ag331
ag347
ag353
ag379
ag387
ag449
ag467
ag1103
ag545
ag567
ag1425
ag653
ag657
ag659
ag665
ag731
ag693
ag727
ag755
ag771
ag781
ag801
ag881
ag883
ag885
ag741
ag921
ag937
ag945
ag995
ag1007
ag1267
ag1011
ag1247
ag1109
ag1121
ag1123
ag1193
ag1143
ag1177
ag1093
ag1139
ag1209
ag1229
ag1239
ag1249
ag1253
ag1283
ag805
ag509
ag367
ag1355
ag897
ag1401
ag903
ag1469
ag1473
asg85
(lp1557
g57
ag138
ag183
ag207
ag209
ag221
ag245
ag263
ag271
ag283
ag325
ag331
ag347
ag353
ag383
ag387
ag527
ag529
ag1103
ag567
ag601
ag639
ag659
ag665
ag965
ag731
ag703
ag693
ag727
ag755
ag799
ag801
ag867
ag881
ag883
ag741
ag937
ag939
ag945
ag947
ag957
ag959
ag975
ag995
ag1007
ag1011
ag96
ag1047
ag477
ag671
ag1193
ag1143
ag1177
ag1093
ag1139
ag1209
ag1229
ag1239
ag1253
ag1305
ag509
ag367
ag1355
ag1401
ag1469
ag1473
asg38
(lp1558
g2
ag138
ag201
ag207
ag209
ag221
ag245
ag263
ag271
ag283
ag325
ag387
ag393
ag527
ag529
ag1103
ag601
ag1117
ag639
ag657
ag659
ag965
ag731
ag693
ag755
ag799
ag801
ag867
ag881
ag883
ag741
ag945
ag947
ag957
ag959
ag975
ag995
ag1011
ag96
ag1047
ag477
ag1119
ag671
ag1193
ag1143
ag1177
ag1139
ag1209
ag1253
ag1305
ag509
ag367
ag1355
ag1401
ag1415
ag1469
ag1473
asg28
(lp1559
g2
ag138
ag183
ag201
ag207
ag209
ag221
ag245
ag263
ag271
ag283
ag325
ag331
ag337
ag347
ag387
ag393
ag403
ag449
ag527
ag529
ag1103
ag545
ag567
ag601
ag1117
ag645
ag659
ag965
ag731
ag693
ag727
ag755
ag799
ag801
ag867
ag881
ag883
ag741
ag945
ag947
ag957
ag959
ag975
ag995
ag1011
ag96
ag1047
ag1119
ag671
ag1193
ag1143
ag1177
ag1139
ag1209
ag1229
ag1253
ag1305
ag509
ag367
ag1355
ag1401
ag1469
asg49
(lp1560
g2
ag57
ag138
ag183
ag207
ag209
ag221
ag245
ag263
ag271
ag283
ag311
ag325
ag331
ag347
ag353
ag383
ag387
ag391
ag449
ag467
ag527
ag1103
ag545
ag567
ag1425
ag601
ag631
ag639
ag657
ag659
ag665
ag965
ag731
ag699
ag703
ag693
ag727
ag755
ag799
ag801
ag1351
ag1367
ag867
ag881
ag883
ag909
ag741
ag937
ag945
ag947
ag957
ag959
ag975
ag995
ag1007
ag1267
ag1011
ag96
ag1047
ag477
ag1123
ag671
ag1193
ag1141
ag1143
ag1177
ag1093
ag1139
ag1209
ag1229
ag1239
ag1253
ag1283
ag805
ag509
ag367
ag1355
ag1401
ag903
ag1469
ag1473
asg128
(lp1561
g138
ag201
ag207
ag221
ag245
ag263
ag271
ag283
ag325
ag337
ag387
ag393
ag527
ag529
ag1103
ag601
ag1117
ag639
ag657
ag659
ag965
ag731
ag693
ag755
ag799
ag801
ag867
ag881
ag883
ag741
ag945
ag947
ag957
ag959
ag975
ag995
ag1011
ag96
ag1047
ag477
ag1119
ag671
ag1193
ag1143
ag1177
ag1139
ag1209
ag1253
ag1305
ag509
ag367
ag1355
ag1401
ag1415
ag1469
ag1473
asg75
(lp1562
g57
ag138
ag207
ag209
ag221
ag245
ag263
ag271
ag283
ag325
ag347
ag383
ag387
ag393
ag1103
ag657
ag659
ag731
ag703
ag727
ag755
ag801
ag867
ag881
ag883
ag909
ag741
ag945
ag947
ag959
ag975
ag995
ag96
ag1047
ag477
ag671
ag1193
ag1177
ag1093
ag1139
ag1209
ag1239
ag1253
ag1283
ag509
ag367
ag1355
ag1401
ag1469
ag1473
asg43
(lp1563
g2
ag138
ag201
ag207
ag209
ag221
ag245
ag263
ag271
ag283
ag325
ag337
ag347
ag387
ag393
ag467
ag529
ag1103
ag1425
ag601
ag639
ag657
ag659
ag731
ag693
ag727
ag755
ag799
ag801
ag1367
ag867
ag881
ag883
ag909
ag741
ag947
ag957
ag959
ag975
ag995
ag1011
ag96
ag1047
ag477
ag671
ag1193
ag1141
ag1143
ag1177
ag1185
ag1093
ag1139
ag1209
ag1253
ag1287
ag509
ag367
ag1355
ag1401
ag1415
ag1469
ag1473
asg20
(lp1564
g2
ag57
ag138
ag145
ag183
ag207
ag209
ag221
ag263
ag271
ag283
ag325
ag331
ag347
ag353
ag383
ag387
ag403
ag449
ag527
ag529
ag1103
ag545
ag567
ag1425
ag601
ag631
ag639
ag659
ag665
ag965
ag731
ag703
ag693
ag727
ag755
ag781
ag799
ag801
ag867
ag881
ag883
ag741
ag937
ag945
ag947
ag957
ag995
ag1007
ag1267
ag1011
ag96
ag1047
ag1247
ag477
ag1123
ag671
ag1193
ag1143
ag1177
ag1093
ag1139
ag1209
ag1229
ag1239
ag1249
ag1253
ag805
ag509
ag367
ag1355
ag1401
ag903
ag1469
ag1473
asg41
(lp1565
g2
ag138
ag183
ag201
ag207
ag209
ag221
ag245
ag263
ag271
ag283
ag325
ag347
ag353
ag387
ag393
ag527
ag529
ag1103
ag601
ag1117
ag639
ag645
ag659
ag965
ag731
ag703
ag693
ag727
ag755
ag799
ag801
ag867
ag881
ag883
ag741
ag937
ag945
ag947
ag957
ag959
ag975
ag995
ag1007
ag1011
ag96
ag1047
ag477
ag671
ag1193
ag1143
ag1177
ag1139
ag1209
ag1229
ag1253
ag1305
ag509
ag367
ag1355
ag1401
ag1415
ag1473
asg7
(lp1566
g2
ag57
ag138
ag201
ag207
ag209
ag221
ag245
ag263
ag271
ag283
ag325
ag347
ag383
ag387
ag391
ag449
ag467
ag1069
ag527
ag529
ag1103
ag545
ag567
ag631
ag639
ag657
ag659
ag665
ag965
ag731
ag699
ag703
ag727
ag755
ag771
ag799
ag801
ag1367
ag867
ag881
ag883
ag909
ag741
ag939
ag945
ag947
ag957
ag959
ag975
ag995
ag1007
ag1267
ag1011
ag96
ag1047
ag1247
ag477
ag1119
ag1123
ag671
ag1193
ag1141
ag1143
ag1177
ag1185
ag1093
ag1139
ag1209
ag1229
ag1253
ag1283
ag1287
ag805
ag509
ag367
ag1355
ag1401
ag903
ag1415
ag1469
ag1473
asg66
(lp1567
g57
ag138
ag207
ag209
ag221
ag245
ag263
ag271
ag283
ag325
ag347
ag383
ag387
ag1103
ag657
ag659
ag731
ag703
ag727
ag755
ag801
ag867
ag881
ag883
ag909
ag741
ag945
ag947
ag959
ag995
ag1047
ag477
ag671
ag1193
ag1177
ag1093
ag1139
ag1209
ag1253
ag1283
ag509
ag367
ag1355
ag1401
ag1469
ag1473
asg112
(lp1568
g138
ag201
ag207
ag209
ag221
ag245
ag263
ag271
ag283
ag325
ag337
ag347
ag387
ag393
ag527
ag529
ag1103
ag601
ag1117
ag639
ag645
ag659
ag965
ag731
ag693
ag727
ag755
ag799
ag801
ag867
ag881
ag883
ag741
ag945
ag947
ag957
ag959
ag975
ag995
ag1007
ag1011
ag96
ag1047
ag477
ag1119
ag1123
ag671
ag1193
ag1143
ag1177
ag1139
ag1209
ag1253
ag509
ag367
ag1355
ag1401
ag1415
ag1473
asg87
(lp1569
g57
ag138
ag145
ag177
ag179
ag183
ag207
ag209
ag221
ag245
ag271
ag283
ag325
ag331
ag347
ag353
ag383
ag387
ag391
ag503
ag449
ag467
ag1069
ag529
ag1103
ag545
ag567
ag1425
ag631
ag653
ag657
ag659
ag665
ag731
ag703
ag693
ag727
ag755
ag771
ag781
ag801
ag1351
ag1367
ag881
ag883
ag885
ag909
ag741
ag921
ag937
ag945
ag975
ag995
ag1007
ag1267
ag1011
ag96
ag1247
ag477
ag1109
ag1121
ag1123
ag671
ag1193
ag1141
ag1143
ag1177
ag1093
ag1139
ag1209
ag1229
ag1239
ag1249
ag1253
ag1283
ag265
ag805
ag509
ag367
ag1355
ag897
ag1401
ag903
ag1469
ag1473
asg26
(lp1570
g2
ag57
ag138
ag145
ag183
ag201
ag207
ag209
ag221
ag245
ag263
ag271
ag283
ag325
ag331
ag347
ag353
ag383
ag387
ag527
ag529
ag1103
ag545
ag567
ag601
ag1117
ag657
ag659
ag665
ag965
ag731
ag703
ag693
ag727
ag755
ag799
ag801
ag867
ag881
ag883
ag741
ag937
ag945
ag947
ag957
ag959
ag975
ag995
ag1007
ag1011
ag96
ag1047
ag1247
ag477
ag671
ag1193
ag1143
ag1177
ag1093
ag1139
ag1209
ag1229
ag1239
ag1253
ag1283
ag509
ag367
ag1355
ag1401
ag903
ag1469
ag1473
asg116
(lp1571
g138
ag201
ag207
ag209
ag221
ag245
ag263
ag271
ag283
ag325
ag337
ag387
ag393
ag527
ag529
ag1103
ag601
ag1117
ag639
ag645
ag659
ag965
ag731
ag693
ag799
ag801
ag867
ag881
ag883
ag741
ag945
ag947
ag957
ag959
ag975
ag995
ag1011
ag96
ag1047
ag477
ag1119
ag671
ag1193
ag1177
ag1139
ag1209
ag1253
ag1305
ag509
ag367
ag1355
ag1401
ag1415
asg63
(lp1572
g57
ag138
ag183
ag207
ag209
ag221
ag245
ag263
ag271
ag283
ag331
ag347
ag383
ag387
ag449
ag1103
ag567
ag589
ag657
ag659
ag731
ag703
ag727
ag755
ag801
ag867
ag881
ag883
ag907
ag909
ag741
ag945
ag947
ag957
ag959
ag995
ag1047
ag477
ag671
ag1193
ag1141
ag1143
ag1177
ag1093
ag1139
ag1209
ag1253
ag1283
ag509
ag367
ag1355
ag1401
ag1469
ag1473
asg89
(lp1573
g57
ag138
ag145
ag179
ag183
ag201
ag207
ag209
ag221
ag245
ag263
ag271
ag331
ag347
ag353
ag383
ag387
ag391
ag449
ag1103
ag545
ag1425
ag653
ag657
ag659
ag731
ag703
ag693
ag727
ag755
ag781
ag799
ag801
ag881
ag883
ag909
ag741
ag939
ag945
ag947
ag995
ag1007
ag1267
ag477
ag1123
ag671
ag1193
ag1143
ag1177
ag1093
ag1139
ag1209
ag1229
ag1239
ag1253
ag1283
ag805
ag509
ag367
ag1355
ag1401
ag903
ag1469
ag1473
asg83
(lp1574
g57
ag138
ag145
ag183
ag207
ag209
ag221
ag271
ag331
ag347
ag353
ag383
ag387
ag449
ag1103
ag545
ag567
ag1425
ag659
ag665
ag731
ag693
ag727
ag755
ag801
ag867
ag881
ag883
ag909
ag741
ag937
ag945
ag947
ag995
ag1007
ag1267
ag1011
ag1247
ag1123
ag1193
ag1143
ag1177
ag1093
ag1139
ag1209
ag1239
ag1249
ag1253
ag1283
ag805
ag509
ag367
ag1355
ag1401
ag903
ag1469
ag1473
asg16
(lp1575
g2
ag57
ag138
ag183
ag201
ag207
ag209
ag221
ag245
ag263
ag271
ag283
ag325
ag331
ag347
ag353
ag383
ag387
ag449
ag527
ag529
ag1103
ag545
ag567
ag601
ag1117
ag631
ag639
ag659
ag665
ag965
ag731
ag703
ag693
ag727
ag755
ag799
ag801
ag867
ag881
ag883
ag741
ag937
ag939
ag945
ag947
ag957
ag959
ag975
ag995
ag1007
ag1011
ag96
ag1047
ag477
ag1123
ag671
ag1193
ag1143
ag1177
ag1093
ag1139
ag1209
ag1229
ag1239
ag1253
ag509
ag367
ag1355
ag1401
ag903
ag1415
ag1469
ag1473
asg113
(lp1576
g138
ag201
ag207
ag209
ag221
ag245
ag263
ag271
ag283
ag325
ag337
ag387
ag393
ag527
ag529
ag1103
ag1117
ag639
ag645
ag659
ag965
ag731
ag693
ag755
ag799
ag801
ag867
ag881
ag883
ag741
ag945
ag947
ag957
ag959
ag975
ag995
ag1011
ag96
ag1047
ag477
ag1107
ag1119
ag671
ag1193
ag1177
ag1139
ag1209
ag1253
ag1305
ag509
ag367
ag1355
ag1387
ag1401
ag1415
asg21
(lp1577
g2
ag138
ag201
ag207
ag221
ag245
ag263
ag271
ag283
ag311
ag325
ag331
ag383
ag387
ag393
ag1069
ag527
ag529
ag1103
ag601
ag1117
ag639
ag657
ag659
ag965
ag731
ag693
ag727
ag755
ag799
ag801
ag867
ag881
ag883
ag741
ag945
ag947
ag957
ag959
ag975
ag995
ag1011
ag96
ag1047
ag477
ag1119
ag1123
ag671
ag1193
ag1143
ag1177
ag1139
ag1209
ag1253
ag1305
ag509
ag367
ag1355
ag1401
ag1415
ag1469
ag1473
asg108
(lp1578
g138
ag201
ag207
ag221
ag245
ag263
ag271
ag283
ag325
ag337
ag387
ag393
ag527
ag529
ag1103
ag601
ag1117
ag631
ag639
ag645
ag659
ag965
ag731
ag693
ag799
ag801
ag867
ag881
ag883
ag741
ag939
ag945
ag947
ag957
ag959
ag975
ag995
ag1011
ag96
ag1047
ag477
ag1119
ag671
ag1193
ag1143
ag1177
ag1139
ag1209
ag1253
ag1305
ag509
ag367
ag1355
ag1387
ag1401
ag1415
asg76
(lp1579
g57
ag138
ag183
ag207
ag209
ag221
ag245
ag263
ag271
ag347
ag361
ag383
ag387
ag393
ag1103
ag657
ag659
ag731
ag703
ag727
ag755
ag801
ag867
ag881
ag883
ag909
ag741
ag939
ag945
ag947
ag959
ag975
ag995
ag1047
ag477
ag671
ag1193
ag1177
ag1093
ag1139
ag1209
ag1253
ag1283
ag509
ag367
ag1355
ag1401
ag903
ag1469
ag1473
asg17
(lp1580
g2
ag138
ag201
ag207
ag209
ag221
ag245
ag263
ag271
ag283
ag325
ag331
ag337
ag347
ag353
ag387
ag393
ag449
ag527
ag529
ag1103
ag545
ag567
ag601
ag1117
ag639
ag645
ag659
ag965
ag731
ag703
ag693
ag727
ag755
ag799
ag801
ag867
ag881
ag883
ag741
ag945
ag947
ag957
ag959
ag975
ag995
ag1011
ag96
ag1047
ag477
ag1119
ag671
ag1193
ag1143
ag1177
ag1093
ag1139
ag1209
ag1229
ag1253
ag509
ag367
ag1355
ag1387
ag1401
ag903
ag1473
asg109
(lp1581
g138
ag201
ag207
ag209
ag221
ag245
ag263
ag271
ag283
ag325
ag331
ag337
ag347
ag387
ag393
ag529
ag1103
ag1117
ag639
ag657
ag659
ag965
ag731
ag693
ag727
ag755
ag799
ag801
ag867
ag881
ag883
ag741
ag945
ag947
ag959
ag975
ag995
ag1011
ag96
ag1047
ag477
ag671
ag1193
ag1177
ag1139
ag1209
ag1253
ag509
ag367
ag1355
ag1401
ag1473
asg45
(lp1582
g2
ag57
ag138
ag183
ag207
ag209
ag221
ag245
ag263
ag271
ag283
ag331
ag347
ag353
ag383
ag387
ag391
ag449
ag1103
ag545
ag567
ag1425
ag631
ag653
ag657
ag659
ag665
ag965
ag731
ag703
ag693
ag727
ag755
ag799
ag801
ag867
ag881
ag883
ag909
ag741
ag937
ag939
ag945
ag947
ag957
ag995
ag1007
ag1267
ag1011
ag96
ag1047
ag1247
ag477
ag1123
ag671
ag1193
ag1141
ag1143
ag1177
ag1093
ag1139
ag1209
ag1229
ag1239
ag1249
ag1253
ag1283
ag805
ag509
ag367
ag1355
ag1401
ag903
ag1469
ag1473
asg14
(lp1583
g2
ag138
ag201
ag207
ag209
ag221
ag245
ag263
ag271
ag283
ag311
ag325
ag331
ag347
ag383
ag387
ag391
ag393
ag449
ag467
ag1069
ag529
ag1103
ag545
ag601
ag639
ag657
ag659
ag965
ag731
ag703
ag693
ag727
ag755
ag799
ag801
ag1367
ag867
ag881
ag883
ag741
ag945
ag947
ag957
ag959
ag975
ag995
ag1007
ag1267
ag1011
ag96
ag1047
ag477
ag1119
ag1123
ag671
ag1193
ag1143
ag1177
ag1093
ag1139
ag1209
ag1253
ag1287
ag509
ag367
ag1355
ag1401
ag1415
ag1469
ag1473
asg44
(lp1584
g2
ag57
ag138
ag201
ag207
ag209
ag221
ag245
ag263
ag271
ag347
ag353
ag361
ag383
ag387
ag393
ag527
ag1103
ag1425
ag1117
ag657
ag659
ag965
ag731
ag703
ag727
ag755
ag799
ag801
ag867
ag881
ag883
ag909
ag741
ag937
ag939
ag945
ag947
ag957
ag959
ag995
ag1007
ag1011
ag1047
ag477
ag671
ag1193
ag1177
ag1093
ag1139
ag1209
ag1253
ag1283
ag1305
ag509
ag367
ag1355
ag1401
ag1415
ag1469
ag1473
asg36
(lp1585
g2
ag138
ag201
ag207
ag221
ag245
ag263
ag271
ag283
ag325
ag337
ag387
ag393
ag527
ag529
ag1103
ag601
ag1117
ag631
ag639
ag659
ag965
ag731
ag693
ag755
ag799
ag801
ag867
ag881
ag883
ag741
ag945
ag947
ag957
ag959
ag975
ag995
ag1011
ag96
ag1047
ag477
ag1119
ag671
ag1193
ag1143
ag1177
ag1139
ag1209
ag1253
ag1305
ag509
ag367
ag1355
ag1401
ag1415
ag1469
ag1473
asg115
(lp1586
g138
ag201
ag207
ag209
ag221
ag245
ag263
ag271
ag283
ag311
ag325
ag331
ag347
ag383
ag387
ag391
ag467
ag1069
ag527
ag1103
ag567
ag1425
ag639
ag653
ag657
ag659
ag965
ag731
ag699
ag703
ag707
ag727
ag801
ag217
ag1367
ag867
ag881
ag883
ag909
ag741
ag945
ag947
ag959
ag975
ag995
ag1007
ag1267
ag1011
ag96
ag1047
ag1247
ag477
ag1119
ag1123
ag671
ag1193
ag1141
ag1177
ag1185
ag1093
ag1139
ag1209
ag1217
ag1253
ag1283
ag1287
ag805
ag509
ag367
ag1355
ag1401
ag1415
ag1469
ag1473
asg125
(lp1587
g138
ag207
ag209
ag221
ag245
ag263
ag271
ag283
ag325
ag347
ag353
ag383
ag387
ag393
ag449
ag1069
ag527
ag529
ag1103
ag1117
ag631
ag657
ag659
ag965
ag731
ag699
ag703
ag727
ag755
ag801
ag1367
ag867
ag881
ag883
ag909
ag741
ag939
ag945
ag947
ag959
ag975
ag995
ag96
ag1047
ag477
ag671
ag1193
ag1177
ag1093
ag1139
ag1209
ag1253
ag1283
ag509
ag367
ag1355
ag1401
ag1469
ag1473
asg60
(lp1588
g57
ag138
ag183
ag207
ag209
ag221
ag245
ag263
ag271
ag283
ag325
ag331
ag347
ag383
ag387
ag527
ag529
ag1103
ag545
ag567
ag601
ag1117
ag639
ag659
ag665
ag965
ag731
ag703
ag693
ag727
ag755
ag799
ag801
ag867
ag881
ag883
ag741
ag937
ag939
ag945
ag947
ag957
ag959
ag975
ag995
ag1011
ag96
ag1047
ag477
ag671
ag1193
ag1143
ag1177
ag1093
ag1139
ag1209
ag1229
ag1239
ag1253
ag509
ag367
ag1355
ag1401
ag1473
asg93
(lp1589
g57
ag138
ag207
ag209
ag221
ag245
ag263
ag271
ag283
ag311
ag325
ag347
ag353
ag383
ag387
ag393
ag449
ag1069
ag529
ag1103
ag545
ag567
ag1425
ag631
ag657
ag659
ag665
ag687
ag731
ag699
ag703
ag693
ag727
ag755
ag771
ag781
ag801
ag1367
ag867
ag881
ag883
ag909
ag741
ag945
ag947
ag957
ag959
ag975
ag995
ag1007
ag1267
ag1011
ag96
ag1047
ag1247
ag477
ag1123
ag671
ag1193
ag1143
ag1177
ag1185
ag1093
ag1139
ag1209
ag1217
ag1229
ag1239
ag1253
ag1283
ag1287
ag805
ag509
ag367
ag1355
ag1401
ag903
ag1469
ag1473
asg100
(lp1590
g138
ag177
ag201
ag207
ag209
ag221
ag245
ag263
ag271
ag283
ag325
ag347
ag383
ag387
ag449
ag467
ag1103
ag567
ag639
ag653
ag657
ag659
ag687
ag731
ag699
ag703
ag727
ag801
ag1367
ag867
ag881
ag883
ag909
ag741
ag945
ag947
ag959
ag975
ag995
ag1007
ag1267
ag1011
ag96
ag1047
ag477
ag1123
ag671
ag1193
ag1141
ag1143
ag1177
ag1185
ag1093
ag1139
ag1209
ag1253
ag1283
ag805
ag509
ag367
ag1355
ag1401
ag1415
ag1469
ag1473
asg5
(lp1591
g2
ag138
ag177
ag201
ag207
ag209
ag221
ag245
ag263
ag271
ag283
ag347
ag383
ag387
ag449
ag467
ag1069
ag527
ag529
ag1103
ag567
ag657
ag659
ag665
ag731
ag703
ag727
ag801
ag867
ag881
ag883
ag909
ag741
ag945
ag947
ag959
ag975
ag995
ag1007
ag1267
ag1011
ag96
ag1047
ag477
ag1123
ag671
ag1193
ag1141
ag1143
ag1177
ag1185
ag1093
ag1139
ag1209
ag1217
ag1239
ag1253
ag1283
ag805
ag509
ag367
ag1355
ag1401
ag1469
ag1473
asg30
(lp1592
g2
ag57
ag138
ag145
ag183
ag207
ag209
ag221
ag271
ag283
ag325
ag331
ag347
ag353
ag379
ag383
ag387
ag391
ag449
ag1069
ag527
ag1103
ag545
ag567
ag1425
ag1117
ag631
ag657
ag659
ag665
ag731
ag703
ag693
ag727
ag755
ag799
ag801
ag867
ag881
ag883
ag909
ag741
ag921
ag937
ag939
ag945
ag947
ag957
ag995
ag1007
ag1267
ag1011
ag96
ag1047
ag1247
ag1123
ag671
ag1193
ag1143
ag1177
ag1093
ag1139
ag1209
ag1229
ag1239
ag1249
ag1253
ag805
ag509
ag367
ag1355
ag1401
ag903
ag1469
asg48
(lp1593
g2
ag138
ag201
ag207
ag209
ag221
ag245
ag263
ag271
ag283
ag325
ag337
ag347
ag387
ag393
ag529
ag1103
ag1117
ag639
ag657
ag659
ag965
ag731
ag693
ag727
ag755
ag799
ag801
ag867
ag881
ag883
ag741
ag939
ag945
ag947
ag957
ag959
ag975
ag995
ag1007
ag1011
ag96
ag1047
ag477
ag1119
ag671
ag1193
ag1177
ag1139
ag1209
ag1253
ag1305
ag509
ag367
ag1355
ag1401
ag1415
ag1473
asg133
(lp1594
g138
ag207
ag209
ag221
ag245
ag263
ag271
ag283
ag325
ag347
ag383
ag387
ag393
ag1103
ag601
ag653
ag657
ag659
ag731
ag703
ag727
ag755
ag799
ag801
ag867
ag881
ag883
ag909
ag741
ag945
ag947
ag959
ag995
ag1011
ag96
ag1047
ag477
ag1119
ag671
ag1193
ag1143
ag1177
ag1185
ag1093
ag1139
ag1209
ag1217
ag1253
ag1283
ag509
ag367
ag1355
ag1401
ag1469
ag1473
asg105
(lp1595
g138
ag201
ag207
ag209
ag221
ag245
ag263
ag271
ag283
ag311
ag347
ag383
ag387
ag449
ag527
ag1103
ag567
ag1425
ag631
ag639
ag653
ag657
ag659
ag731
ag699
ag703
ag707
ag727
ag771
ag801
ag1367
ag867
ag881
ag883
ag909
ag741
ag945
ag947
ag959
ag975
ag995
ag1007
ag1267
ag1011
ag96
ag1047
ag1247
ag477
ag1119
ag1123
ag671
ag1193
ag1141
ag1143
ag1177
ag1185
ag1093
ag1139
ag1209
ag1217
ag1253
ag1283
ag1287
ag805
ag509
ag1329
ag367
ag1355
ag1401
ag1415
ag1469
ag1473
asg25
(lp1596
g2
ag57
ag138
ag183
ag201
ag207
ag209
ag221
ag245
ag263
ag271
ag283
ag311
ag331
ag347
ag353
ag383
ag387
ag391
ag449
ag467
ag1069
ag529
ag1103
ag545
ag567
ag1425
ag631
ag639
ag653
ag657
ag659
ag665
ag965
ag731
ag703
ag693
ag727
ag755
ag799
ag801
ag1351
ag867
ag881
ag883
ag909
ag741
ag937
ag945
ag947
ag959
ag975
ag995
ag1007
ag1267
ag1011
ag96
ag1047
ag1247
ag477
ag1123
ag671
ag1193
ag1141
ag1143
ag1177
ag1093
ag1139
ag1209
ag1229
ag1239
ag1249
ag1253
ag1283
ag805
ag509
ag367
ag1355
ag1401
ag903
ag1469
ag1473
asg8
(lp1597
g2
ag138
ag177
ag201
ag207
ag209
ag221
ag245
ag263
ag271
ag283
ag311
ag325
ag331
ag347
ag361
ag383
ag387
ag391
ag393
ag403
ag449
ag467
ag1069
ag527
ag1103
ag1425
ag631
ag639
ag653
ag657
ag659
ag665
ag965
ag687
ag731
ag699
ag703
ag707
ag727
ag755
ag763
ag771
ag799
ag801
ag1367
ag867
ag881
ag883
ag907
ag909
ag741
ag937
ag945
ag947
ag957
ag959
ag975
ag995
ag1007
ag1267
ag1011
ag96
ag1047
ag1247
ag477
ag1119
ag671
ag1193
ag1141
ag1177
ag1185
ag1093
ag1139
ag1209
ag1217
ag1229
ag1253
ag1283
ag1287
ag805
ag1403
ag509
ag1329
ag367
ag1355
ag1401
ag1415
ag1469
ag1473
asg11
(lp1598
g2
ag57
ag138
ag177
ag183
ag207
ag209
ag221
ag245
ag263
ag271
ag283
ag325
ag331
ag347
ag353
ag383
ag387
ag391
ag449
ag467
ag1069
ag527
ag529
ag1103
ag545
ag1425
ag631
ag639
ag657
ag659
ag665
ag965
ag731
ag703
ag693
ag727
ag755
ag801
ag1367
ag867
ag881
ag883
ag909
ag741
ag937
ag945
ag947
ag957
ag959
ag975
ag995
ag1007
ag1267
ag1011
ag96
ag1047
ag477
ag1123
ag671
ag1193
ag1143
ag1177
ag1093
ag1139
ag1209
ag1229
ag1239
ag1253
ag1283
ag1287
ag805
ag509
ag367
ag1355
ag1401
ag903
ag1469
ag1473
asVBarnstable (001)
p1599
(lp1600
sg107
(lp1601
g138
ag201
ag207
ag209
ag221
ag245
ag263
ag271
ag283
ag325
ag337
ag347
ag387
ag393
ag527
ag529
ag1103
ag601
ag1117
ag639
ag645
ag657
ag659
ag731
ag693
ag727
ag755
ag799
ag801
ag867
ag881
ag883
ag909
ag741
ag947
ag957
ag959
ag975
ag995
ag1011
ag96
ag1047
ag477
ag1119
ag671
ag1193
ag1177
ag1139
ag1209
ag1253
ag1403
ag509
ag367
ag1355
ag1401
ag1473
asg67
(lp1602
g57
ag138
ag207
ag209
ag221
ag245
ag263
ag271
ag283
ag311
ag347
ag383
ag385
ag387
ag449
ag1069
ag529
ag1103
ag567
ag653
ag657
ag659
ag731
ag703
ag727
ag801
ag867
ag881
ag883
ag909
ag741
ag947
ag959
ag975
ag995
ag1007
ag1011
ag96
ag1047
ag477
ag1123
ag671
ag1193
ag1141
ag1143
ag1177
ag1093
ag1139
ag1209
ag1229
ag1253
ag1283
ag509
ag367
ag1355
ag1401
ag903
ag1469
ag1473
asg119
(lp1603
g138
ag177
ag207
ag209
ag221
ag245
ag263
ag271
ag283
ag325
ag331
ag383
ag387
ag393
ag1069
ag527
ag1103
ag601
ag1117
ag639
ag657
ag659
ag965
ag731
ag703
ag693
ag727
ag755
ag799
ag801
ag867
ag881
ag883
ag741
ag945
ag947
ag957
ag959
ag975
ag995
ag1007
ag1267
ag1011
ag96
ag1047
ag477
ag671
ag1193
ag1143
ag1177
ag1139
ag1209
ag1253
ag509
ag367
ag1355
ag1401
ag1415
ag1469
ag1473
asg132
(lp1604
g138
ag201
ag207
ag221
ag245
ag263
ag271
ag283
ag325
ag331
ag387
ag391
ag393
ag449
ag1069
ag527
ag529
ag1103
ag589
ag601
ag1117
ag631
ag639
ag653
ag657
ag659
ag965
ag731
ag699
ag693
ag727
ag755
ag799
ag801
ag867
ag881
ag883
ag909
ag741
ag945
ag947
ag957
ag959
ag975
ag995
ag1011
ag96
ag1047
ag477
ag1119
ag671
ag1193
ag1143
ag1177
ag1185
ag1139
ag1209
ag1229
ag1253
ag509
ag367
ag1355
ag1401
ag1415
ag1469
ag1473
asg79
(lp1605
g57
ag138
ag183
ag207
ag209
ag221
ag245
ag263
ag271
ag283
ag325
ag331
ag383
ag387
ag393
ag467
ag527
ag529
ag1103
ag545
ag601
ag1117
ag639
ag659
ag965
ag731
ag699
ag703
ag693
ag727
ag755
ag799
ag801
ag867
ag881
ag883
ag741
ag937
ag945
ag947
ag957
ag959
ag975
ag995
ag1011
ag96
ag1047
ag477
ag671
ag1193
ag1143
ag1177
ag1185
ag1139
ag1209
ag1239
ag1249
ag1253
ag509
ag367
ag1355
ag1401
ag1415
ag1473
asg23
(lp1606
g2
ag57
ag138
ag183
ag207
ag209
ag221
ag245
ag263
ag271
ag283
ag325
ag331
ag353
ag383
ag387
ag393
ag449
ag527
ag529
ag1103
ag567
ag601
ag1117
ag631
ag639
ag659
ag665
ag965
ag731
ag703
ag693
ag727
ag755
ag799
ag801
ag867
ag881
ag883
ag741
ag937
ag939
ag945
ag947
ag957
ag959
ag975
ag995
ag1007
ag1011
ag96
ag1047
ag477
ag671
ag1193
ag1143
ag1177
ag1093
ag1139
ag1209
ag1229
ag1239
ag1253
ag509
ag367
ag1355
ag1401
ag1415
ag1469
ag1473
asg37
(lp1607
g2
ag57
ag138
ag183
ag201
ag207
ag209
ag221
ag245
ag263
ag271
ag283
ag325
ag331
ag337
ag347
ag353
ag387
ag393
ag403
ag449
ag527
ag529
ag1103
ag545
ag601
ag1117
ag645
ag659
ag965
ag731
ag693
ag727
ag755
ag799
ag801
ag867
ag881
ag883
ag741
ag945
ag947
ag957
ag959
ag975
ag995
ag1007
ag1011
ag96
ag1047
ag477
ag1119
ag671
ag1193
ag1143
ag1177
ag1093
ag1139
ag1209
ag1229
ag1253
ag509
ag367
ag1355
ag1387
ag1401
ag903
ag1469
ag1473
asg77
(lp1608
g57
ag138
ag145
ag183
ag207
ag209
ag221
ag271
ag331
ag347
ag353
ag383
ag387
ag391
ag449
ag1103
ag545
ag567
ag1425
ag659
ag665
ag731
ag703
ag693
ag727
ag755
ag801
ag867
ag881
ag883
ag909
ag741
ag937
ag945
ag947
ag995
ag1007
ag1267
ag1011
ag1247
ag1123
ag671
ag1193
ag1143
ag1177
ag1093
ag1139
ag1209
ag1229
ag1239
ag1249
ag1253
ag1283
ag805
ag509
ag367
ag1355
ag1401
ag903
ag1469
ag1473
asg51
(lp1609
g2
ag57
ag138
ag183
ag207
ag209
ag221
ag245
ag263
ag271
ag283
ag325
ag331
ag347
ag353
ag383
ag387
ag449
ag527
ag529
ag1103
ag545
ag567
ag601
ag639
ag659
ag665
ag965
ag731
ag703
ag693
ag727
ag755
ag781
ag799
ag801
ag867
ag881
ag883
ag741
ag937
ag939
ag945
ag947
ag957
ag959
ag975
ag995
ag1007
ag1267
ag1011
ag96
ag1047
ag1247
ag477
ag1123
ag671
ag1193
ag1143
ag1177
ag1093
ag1139
ag1209
ag1229
ag1239
ag1249
ag1253
ag1283
ag805
ag509
ag367
ag1355
ag1401
ag903
ag1469
ag1473
asg24
(lp1610
g2
ag57
ag138
ag201
ag207
ag209
ag221
ag245
ag263
ag271
ag283
ag325
ag331
ag347
ag383
ag387
ag393
ag527
ag529
ag1103
ag601
ag1117
ag639
ag657
ag659
ag965
ag731
ag703
ag693
ag727
ag755
ag799
ag801
ag867
ag881
ag883
ag909
ag741
ag945
ag947
ag957
ag959
ag975
ag995
ag1007
ag1011
ag96
ag1047
ag477
ag1119
ag671
ag1193
ag1177
ag1093
ag1139
ag1209
ag1253
ag509
ag367
ag1355
ag1401
ag1415
ag1469
ag1473
asa.