(lp0
(dp1
S'junicomm'
p2
(lp3
VSHARON, CT
p4
aVWINDSOR, CT
p5
aVCORNWALL, CT
p6
aVPUTNAM, CT
p7
aVSALISBURY, CT
p8
aVNORTH CANAAN, CT
p9
aVNORFOLK, CT
p10
aVCOLEBROOK, CT
p11
aVHARTLAND, CT
p12
aVGRANBY, CT
p13
aVSUFFIELD, CT
p14
aVENFIELD, CT
p15
aVSOMERS, CT
p16
aVSTAFFORD, CT
p17
aVUNION, CT
p18
aVWOODSTOCK, CT
p19
aVTHOMPSON, CT
p20
aVCANAAN, CT
p21
aVEAST GRANBY, CT
p22
aVBARKHAMSTED, CT
p23
aVWINCHESTER, CT
p24
aVASHFORD, CT
p25
aVEASTFORD, CT
p26
aVELLINGTON, CT
p27
aVWILLINGTON, CT
p28
aVWINDSOR LOCKS, CT
p29
aVEAST WINDSOR, CT
p30
aVMANSFIELD, CT
p31
aVCHAPLIN, CT
p32
aVHAMPTON, CT
p33
aVAVON, CT
p34
aVBROOKLYN, CT
p35
aVMANCHESTER, CT
p36
aVBURLINGTON, CT
p37
aVHARTFORD, CT
p38
aVWEST HARTFORD, CT
p39
aVBOLTON, CT
p40
aVHARWINTON, CT
p41
aVKENT, CT
p42
aVLITCHFIELD, CT
p43
aVEAST HARTFORD, CT
p44
aVWINDHAM, CT
p45
aVGLASTONBURY, CT
p46
aVSCOTLAND, CT
p47
aVWARREN, CT
p48
aVFARMINGTON, CT
p49
aVANDOVER, CT
p50
aVCANTERBURY, CT
p51
aVTOLLAND, CT
p52
aVCANTON, CT
p53
aVGOSHEN, CT
p54
aVSIMSBURY, CT
p55
aVPOMFRET, CT
p56
aVBLOOMFIELD, CT
p57
aVTORRINGTON, CT
p58
aVNEW HARTFORD, CT
p59
aVVERNON, CT
p60
aVSOUTH WINDSOR, CT
p61
aVCOVENTRY, CT
p62
aVCOLUMBIA, CT
p63
aVWETHERSFIELD, CT
p64
aVSOUTHINGTON, CT
p65
aVSPRAGUE, CT
p66
aVWOLCOTT, CT
p67
aVWATERBURY, CT
p68
aVWOODBURY, CT
p69
aVROXBURY, CT
p70
aVLISBON, CT
p71
aVHEBRON, CT
p72
aVBRISTOL, CT
p73
aVNEWINGTON, CT
p74
aVMORRIS, CT
p75
aVPLYMOUTH, CT
p76
aVWASHINGTON, CT
p77
aVNEW BRITAIN, CT
p78
aVTHOMASTON, CT
p79
aVLEBANON, CT
p80
aVPLAINVILLE, CT
p81
aVNEW MILFORD, CT
p82
aVWATERTOWN, CT
p83
aVBETHLEHEM, CT
p84
aVFRANKLIN, CT
p85
aVNAUGATUCK, CT
p86
aVSOUTHBURY, CT
p87
aVBETHANY, CT
p88
aVBEACON FALLS, CT
p89
aVOXFORD, CT
p90
aVMIDDLEBURY, CT
p91
aVBRIDGEWATER, CT
p92
aVCHESHIRE, CT
p93
aVPROSPECT, CT
p94
aVSEYMOUR, CT
p95
aVWOODBRIDGE, CT
p96
aVANSONIA, CT
p97
asS'popuariz'
p98
(lp99
sS'amyrbals'
p100
(lp101
sS'kalmlati'
p102
(lp103
g4
ag5
ag6
ag7
ag8
ag9
ag10
ag11
ag12
ag13
ag14
ag15
ag16
ag17
ag18
ag19
ag20
ag21
ag22
ag23
ag24
ag25
ag26
ag27
ag28
ag29
ag30
ag31
ag32
ag33
ag34
ag35
ag36
ag37
ag38
ag39
ag40
ag41
ag42
ag43
ag44
ag45
ag46
ag47
ag48
ag49
aVSTERLING, CT
p104
ag50
aVPLAINFIELD, CT
p105
ag51
ag52
ag53
ag54
ag55
ag56
ag57
ag58
aVKILLINGLY, CT
p106
ag59
ag60
ag61
ag62
ag63
ag64
ag65
ag66
aVBERLIN, CT
p107
ag67
aVEAST HAMPTON, CT
p108
aVVOLUNTOWN, CT
p109
aVGRISWOLD, CT
p110
ag68
ag69
aVCOLCHESTER, CT
p111
ag70
ag71
aVPORTLAND, CT
p112
aVCROMWELL, CT
p113
ag72
ag73
ag74
ag75
ag76
ag77
ag78
ag79
ag80
ag81
ag82
aVROCKY HILL, CT
p114
aVMARLBOROUGH, CT
p115
aVSHERMAN, CT
p116
ag83
ag84
ag85
aVBROOKFIELD, CT
p117
aVNORTH STONINGTON, CT
p118
ag86
ag87
aVWALLINGFORD, CT
p119
aVHADDAM, CT
p120
aVMONTVILLE, CT
p121
aVDURHAM, CT
p122
aVNEWTOWN, CT
p123
aVDANBURY, CT
p124
ag88
ag89
ag90
aVLEDYARD, CT
p125
aVMIDDLETOWN, CT
p126
aVNORWICH, CT
p127
aVBOZRAH, CT
p128
aVMERIDEN, CT
p129
ag91
ag92
ag93
aVPRESTON, CT
p130
aVMIDDLEFIELD, CT
p131
aVNEW FAIRFIELD, CT
p132
aVEAST HADDAM, CT
p133
ag94
aVSALEM, CT
p134
aVHAMDEN, CT
p135
aVKILLINGWORTH, CT
p136
aVCHESTER, CT
p137
ag95
aVSTONINGTON, CT
p138
aVNORTH BRANFORD, CT
p139
aVWATERFORD, CT
p140
ag96
aVDEEP RIVER, CT
p141
aVEAST LYME, CT
p142
aVBETHEL, CT
p143
aVMADISON, CT
p144
aVLYME, CT
p145
aVNORTH HAVEN, CT
p146
aVGUILFORD, CT
p147
aVNEW HAVEN, CT
p148
aVOLD SAYBROOK, CT
p149
aVBRANFORD, CT
p150
aVORANGE, CT
p151
aVWESTBROOK, CT
p152
aVEASTON, CT
p153
aVCLINTON, CT
p154
aVMONROE, CT
p155
aVGROTON, CT
p156
aVRIDGEFIELD, CT
p157
aVSHELTON, CT
p158
aVNEW LONDON, CT
p159
aVESSEX, CT
p160
ag97
aVEAST HAVEN, CT
p161
aVOLD LYME, CT
p162
aVREDDING, CT
p163
aVDERBY, CT
p164
aVWEST HAVEN, CT
p165
aVTRUMBULL, CT
p166
aVWESTON, CT
p167
aVWESTPORT, CT
p168
aVSTAMFORD, CT
p169
aVNORWALK, CT
p170
aVGREENWICH, CT
p171
aVDARIEN, CT
p172
aVMILFORD, CT
p173
aVWILTON, CT
p174
aVSTRATFORD, CT
p175
aVFAIRFIELD, CT
p176
aVBRIDGEPORT, CT
p177
aVNEW CANAAN, CT
p178
asS'zantflav'
p179
(lp180
sS'cornrugo'
p181
(lp182
g4
ag5
ag6
ag7
ag8
ag9
ag10
ag11
ag12
ag13
ag14
ag15
ag16
ag17
ag18
ag19
ag20
ag21
ag22
ag23
ag24
ag25
ag26
ag27
ag28
ag29
ag30
ag31
ag32
ag33
ag34
ag35
ag36
ag37
ag38
ag39
ag40
ag41
ag42
ag43
ag44
ag45
ag46
ag47
ag48
ag49
ag104
ag50
ag105
ag51
ag52
ag53
ag54
ag55
ag56
ag57
ag58
ag106
ag59
ag60
ag61
ag62
ag63
ag64
ag65
ag66
ag67
ag109
ag110
ag68
ag69
ag111
ag70
ag71
ag72
ag73
ag74
ag75
ag76
ag77
ag78
ag79
ag80
ag81
ag82
ag114
ag115
ag116
ag83
ag84
ag85
ag117
ag86
ag87
ag121
ag123
ag124
ag89
ag90
ag127
ag128
ag91
ag92
ag130
ag132
ag94
ag95
ag143
ag155
ag157
ag163
asS'persborb'
p183
(lp184
sS'pithguad'
p185
(lp186
sS'alnurugo'
p187
(lp188
g4
ag5
ag6
ag7
ag8
ag9
ag10
ag11
ag12
ag13
ag14
ag15
ag16
ag17
ag18
ag19
ag20
ag21
ag22
ag23
ag24
ag25
ag26
ag27
ag28
ag29
ag30
ag31
ag32
ag33
ag34
ag35
ag36
ag37
ag38
ag39
ag40
ag41
ag42
ag43
ag44
ag45
ag46
ag47
ag48
ag49
ag104
ag50
ag105
ag51
ag52
ag53
ag54
ag55
ag56
ag57
ag58
ag106
ag59
ag60
ag61
ag62
ag63
ag64
ag65
ag66
ag107
ag67
ag108
ag109
ag110
ag68
ag69
ag111
ag70
ag71
ag112
ag113
ag72
ag73
ag74
ag75
ag76
ag77
ag78
ag79
ag80
ag81
ag82
ag114
ag115
ag116
ag83
ag84
ag85
ag117
ag118
ag86
ag87
ag119
ag120
ag121
ag122
ag123
ag124
ag88
ag89
ag90
ag125
ag126
ag127
ag128
ag129
ag91
ag92
ag93
ag130
ag131
ag132
ag133
ag94
ag134
ag135
ag136
ag137
ag95
ag138
ag139
ag140
ag96
ag141
ag142
ag143
ag144
ag145
ag146
ag147
ag148
ag149
ag150
ag151
ag152
ag153
ag154
ag155
ag156
ag157
ag158
ag159
ag160
ag97
ag161
ag162
ag163
ag164
ag165
ag166
ag167
ag168
ag169
ag170
ag171
ag172
ag173
ag174
ag175
ag176
ag177
ag178
asS'chamthyo'
p189
(lp190
g7
ag18
ag19
ag20
ag25
ag26
ag28
ag31
ag32
ag33
ag35
ag45
ag47
ag104
ag105
ag51
ag56
ag106
ag63
ag65
ag66
ag67
ag109
ag110
ag68
ag111
ag71
ag72
ag73
ag76
ag80
ag82
ag116
ag85
ag117
ag118
ag86
ag87
ag119
ag120
ag121
ag122
ag123
ag124
ag88
ag89
ag90
ag125
ag127
ag128
ag129
ag91
ag92
ag93
ag130
ag131
ag132
ag133
ag94
ag134
ag135
ag136
ag137
ag95
ag138
ag139
ag140
ag96
ag141
ag142
ag143
ag144
ag145
ag146
ag147
ag148
ag149
ag150
ag151
ag152
ag153
ag154
ag155
ag156
ag157
ag158
ag159
ag160
ag97
ag161
ag162
ag163
ag164
ag165
ag166
ag167
ag168
ag169
ag170
ag171
ag172
ag173
ag174
ag175
ag176
ag177
ag178
asS'bursfaga'
p191
(lp192
sS'fraxtexe'
p193
(lp194
sS'tremmicr'
p195
(lp196
sS'quergamb'
p197
(lp198
sS'pinuglab'
p199
(lp200
sS'juniscop'
p201
(lp202
sS'cratsali'
p203
(lp204
sS'juniashe'
p205
(lp206
sS'alnusinu'
p207
(lp208
sS'fraxcusp'
p209
(lp210
sS'planaqua'
p211
(lp212
sS'cuprbake'
p213
(lp214
sS'stewmala'
p215
(lp216
sS'illiparv'
p217
(lp218
sS'ilexkrug'
p219
(lp220
sS'morurubr'
p221
(lp222
g34
ag39
ag49
ag74
ag78
ag81
ag96
ag148
ag151
ag97
ag164
ag165
ag167
ag168
ag170
ag174
ag176
ag178
asS'vibuprun'
p223
(lp224
g153
ag166
ag167
ag168
ag169
ag170
ag171
ag174
ag176
ag178
asS'rhuslaur'
p225
(lp226
sS'rhuscopa'
p227
(lp228
g5
ag7
ag12
ag13
ag14
ag15
ag16
ag17
ag18
ag19
ag20
ag22
ag25
ag26
ag27
ag28
ag29
ag30
ag31
ag32
ag33
ag34
ag35
ag36
ag38
ag39
ag40
ag44
ag45
ag46
ag47
ag49
ag104
ag50
ag105
ag51
ag52
ag55
ag56
ag57
ag106
ag60
ag61
ag62
ag63
ag64
ag65
ag66
ag107
ag108
ag109
ag110
ag111
ag71
ag112
ag113
ag72
ag74
ag78
ag80
ag81
ag114
ag115
ag85
ag118
ag119
ag120
ag121
ag122
ag123
ag124
ag88
ag89
ag90
ag125
ag126
ag127
ag128
ag129
ag93
ag130
ag131
ag133
ag94
ag134
ag135
ag136
ag137
ag95
ag138
ag139
ag140
ag96
ag141
ag142
ag143
ag144
ag145
ag146
ag147
ag148
ag149
ag150
ag151
ag152
ag153
ag154
ag155
ag156
ag157
ag158
ag159
ag160
ag97
ag161
ag162
ag163
ag164
ag165
ag166
ag167
ag168
ag169
ag170
ag171
ag172
ag173
ag174
ag175
ag176
ag177
ag178
asS'ximeamer'
p229
(lp230
sS'nyssogec'
p231
(lp232
sS'pinuocci'
p233
(lp234
sS'prunalle'
p235
(lp236
g33
ag35
ag105
ag51
ag71
ag123
ag127
ag128
ag130
ag143
asS'castozar'
p237
(lp238
sS'exotpani'
p239
(lp240
sS'querwisl'
p241
(lp242
sS'aesccali'
p243
(lp244
sS'thujocci'
p245
(lp246
g6
ag7
ag9
ag10
ag21
ag24
ag34
ag35
ag38
ag39
ag49
ag54
ag56
ag57
ag58
ag106
ag74
asS'juglmajo'
p247
(lp248
sS'gledtria'
p249
(lp250
sS'prunpens'
p251
(lp252
g4
ag5
ag6
ag7
ag8
ag9
ag10
ag11
ag12
ag13
ag14
ag15
ag16
ag17
ag18
ag19
ag20
ag21
ag22
ag23
ag24
ag25
ag26
ag27
ag28
ag29
ag30
ag31
ag32
ag33
ag34
ag35
ag36
ag37
ag38
ag39
ag40
ag41
ag42
ag43
ag44
ag45
ag46
ag47
ag48
ag49
ag104
ag50
ag105
ag51
ag52
ag53
ag54
ag55
ag56
ag57
ag58
ag106
ag59
ag60
ag61
ag62
ag63
ag64
ag65
ag66
ag107
ag67
ag108
ag109
ag110
ag68
ag69
ag111
ag70
ag71
ag112
ag113
ag72
ag73
ag74
ag75
ag76
ag77
ag78
ag79
ag80
ag81
ag82
ag114
ag115
ag116
ag83
ag84
ag85
ag117
ag118
ag86
ag87
ag119
ag120
ag121
ag122
ag123
ag124
ag88
ag89
ag90
ag125
ag126
ag127
ag128
ag129
ag91
ag92
ag93
ag130
ag131
ag132
ag133
ag94
ag134
ag135
ag136
ag137
ag95
ag138
ag139
ag140
ag96
ag141
ag142
ag143
ag144
ag145
ag146
ag147
ag148
ag149
ag150
ag151
ag152
ag153
ag154
ag155
ag156
ag157
ag158
ag159
ag160
ag97
ag161
ag162
ag163
ag164
ag165
ag166
ag167
ag168
ag169
ag170
ag171
ag172
ag173
ag174
ag175
ag176
ag177
ag178
asS'hamavirg'
p253
(lp254
g4
ag5
ag6
ag7
ag8
ag9
ag10
ag11
ag12
ag13
ag14
ag15
ag16
ag17
ag18
ag19
ag20
ag21
ag22
ag23
ag24
ag25
ag26
ag27
ag28
ag29
ag30
ag31
ag32
ag33
ag34
ag35
ag36
ag37
ag38
ag39
ag40
ag41
ag42
ag43
ag44
ag45
ag46
ag47
ag48
ag49
ag104
ag50
ag105
ag51
ag52
ag53
ag54
ag55
ag56
ag57
ag58
ag106
ag59
ag60
ag61
ag62
ag63
ag64
ag65
ag66
ag107
ag67
ag108
ag109
ag110
ag68
ag69
ag111
ag70
ag71
ag112
ag113
ag72
ag73
ag74
ag75
ag76
ag77
ag78
ag79
ag80
ag81
ag82
ag114
ag115
ag116
ag83
ag84
ag85
ag117
ag118
ag86
ag87
ag119
ag120
ag121
ag122
ag123
ag124
ag88
ag89
ag90
ag125
ag126
ag127
ag128
ag129
ag91
ag92
ag93
ag130
ag131
ag132
ag133
ag94
ag134
ag135
ag136
ag137
ag95
ag138
ag139
ag140
ag96
ag141
ag142
ag143
ag144
ag145
ag146
ag147
ag148
ag149
ag150
ag151
ag152
ag153
ag154
ag155
ag156
ag157
ag158
ag159
ag160
ag97
ag161
ag162
ag163
ag164
ag165
ag166
ag167
ag168
ag169
ag170
ag171
ag172
ag173
ag174
ag175
ag176
ag177
ag178
asS'salilasi'
p255
(lp256
sS'catabign'
p257
(lp258
sS'cercocci'
p259
(lp260
sS'carylaci'
p261
(lp262
sS'salilaso'
p263
(lp264
sS'prunvirg'
p265
(lp266
g4
ag5
ag6
ag7
ag8
ag9
ag10
ag11
ag12
ag13
ag14
ag15
ag16
ag17
ag18
ag19
ag20
ag21
ag22
ag23
ag24
ag25
ag26
ag27
ag28
ag29
ag30
ag31
ag32
ag33
ag34
ag35
ag36
ag37
ag38
ag39
ag40
ag41
ag42
ag43
ag44
ag45
ag46
ag47
ag48
ag49
ag104
ag50
ag105
ag51
ag52
ag53
ag54
ag55
ag56
ag57
ag58
ag106
ag59
ag60
ag61
ag62
ag63
ag64
ag65
ag66
ag107
ag67
ag108
ag109
ag110
ag68
ag69
ag111
ag70
ag71
ag112
ag113
ag72
ag73
ag74
ag75
ag76
ag77
ag78
ag79
ag80
ag81
ag82
ag114
ag115
ag116
ag83
ag84
ag85
ag117
ag118
ag86
ag87
ag119
ag120
ag121
ag122
ag123
ag124
ag88
ag89
ag90
ag125
ag126
ag127
ag128
ag129
ag91
ag92
ag93
ag130
ag131
ag132
ag133
ag94
ag134
ag135
ag136
ag137
ag95
ag138
ag139
ag140
ag96
ag141
ag142
ag143
ag144
ag145
ag146
ag147
ag148
ag149
ag150
ag151
ag152
ag153
ag154
ag155
ag156
ag157
ag158
ag159
ag160
ag97
ag161
ag162
ag163
ag164
ag165
ag166
ag167
ag168
ag169
ag170
ag171
ag172
ag173
ag174
ag175
ag176
ag177
ag178
asS'erytherb'
p267
(lp268
sS'zantclav'
p269
(lp270
sS'magnpyra'
p271
(lp272
sS'sambmexi'
p273
(lp274
sS'fraxdipe'
p275
(lp276
sS'pinuvirg'
p277
(lp278
sS'prunlyon'
p279
(lp280
sS'pinuteoc'
p281
(lp282
sS'bursmicr'
p283
(lp284
sS'gledaqua'
p285
(lp286
sS'ulmusero'
p287
(lp288
sS'fraxnigr'
p289
(lp290
g4
ag5
ag6
ag8
ag9
ag10
ag11
ag12
ag13
ag14
ag15
ag16
ag17
ag18
ag21
ag22
ag23
ag24
ag27
ag29
ag30
ag34
ag36
ag37
ag38
ag39
ag40
ag41
ag42
ag43
ag44
ag46
ag48
ag49
ag52
ag53
ag54
ag55
ag57
ag58
ag59
ag60
ag61
ag64
ag65
ag107
ag67
ag68
ag69
ag70
ag73
ag74
ag75
ag76
ag77
ag78
ag79
ag81
ag82
ag114
ag116
ag83
ag84
ag117
ag86
ag87
ag123
ag124
ag89
ag90
ag91
ag92
ag132
ag94
ag95
ag143
ag153
ag155
ag157
ag158
ag163
ag166
ag167
ag168
ag169
ag170
ag171
ag172
ag174
ag176
ag177
ag178
asS'pinupatu'
p291
(lp292
sS'juniflac'
p293
(lp294
sS'queroblo'
p295
(lp296
sS'sambcall'
p297
(lp298
sS'erytflab'
p299
(lp300
sS'prunsubc'
p301
(lp302
sS'carypall'
p303
(lp304
sS'cratsucc'
p305
(lp306
sS'taxucana'
p307
(lp308
g4
ag5
ag6
ag7
ag8
ag9
ag10
ag11
ag12
ag13
ag14
ag15
ag16
ag17
ag18
ag19
ag20
ag21
ag22
ag23
ag24
ag25
ag26
ag27
ag28
ag29
ag30
ag31
ag32
ag33
ag34
ag35
ag36
ag37
ag38
ag39
ag40
ag41
ag42
ag43
ag44
ag45
ag46
ag47
ag48
ag49
ag50
ag52
ag53
ag54
ag55
ag56
ag57
ag58
ag59
ag60
ag61
ag62
ag63
ag64
ag65
ag67
ag68
ag69
ag70
ag72
ag73
ag74
ag75
ag76
ag77
ag78
ag79
ag81
ag82
ag114
ag116
ag83
ag84
ag117
ag86
ag87
ag123
ag124
ag89
ag90
ag91
ag92
ag132
ag94
ag95
ag143
ag155
ag157
asS'diosvirg'
p309
(lp310
g96
ag148
ag150
ag151
ag161
ag165
ag173
asS'dodovisc'
p311
(lp312
sS'photarbu'
p313
(lp314
sS'poputrem'
p315
(lp316
g4
ag5
ag6
ag7
ag8
ag9
ag10
ag11
ag12
ag13
ag14
ag15
ag16
ag17
ag18
ag19
ag20
ag21
ag22
ag23
ag24
ag25
ag26
ag27
ag28
ag29
ag30
ag31
ag32
ag33
ag34
ag35
ag36
ag37
ag38
ag39
ag40
ag41
ag42
ag43
ag44
ag45
ag46
ag47
ag48
ag49
ag104
ag50
ag105
ag51
ag52
ag53
ag54
ag55
ag56
ag57
ag58
ag106
ag59
ag60
ag61
ag62
ag63
ag64
ag65
ag66
ag107
ag67
ag108
ag109
ag110
ag68
ag69
ag111
ag70
ag71
ag112
ag113
ag72
ag73
ag74
ag75
ag76
ag77
ag78
ag79
ag80
ag81
ag82
ag114
ag115
ag116
ag83
ag84
ag85
ag117
ag118
ag86
ag87
ag119
ag120
ag121
ag122
ag123
ag124
ag88
ag89
ag90
ag125
ag126
ag127
ag128
ag129
ag91
ag92
ag93
ag130
ag131
ag132
ag133
ag94
ag134
ag135
ag136
ag137
ag95
ag138
ag139
ag140
ag96
ag141
ag142
ag143
ag144
ag145
ag146
ag147
ag148
ag149
ag150
ag151
ag152
ag153
ag154
ag155
ag156
ag157
ag158
ag159
ag160
ag97
ag161
ag162
ag163
ag164
ag165
ag166
ag167
ag168
ag169
ag170
ag171
ag172
ag173
ag174
ag175
ag176
ag177
ag178
asS'esenberl'
p317
(lp318
sS'pinucube'
p319
(lp320
sS'diostexa'
p321
(lp322
sS'abiegran'
p323
(lp324
sS'euonocci'
p325
(lp326
sS'rhustyph'
p327
(lp328
g4
ag5
ag6
ag7
ag8
ag9
ag10
ag11
ag12
ag13
ag14
ag15
ag16
ag17
ag18
ag19
ag20
ag21
ag22
ag23
ag24
ag25
ag26
ag27
ag28
ag29
ag30
ag31
ag32
ag33
ag34
ag35
ag36
ag37
ag38
ag39
ag40
ag41
ag42
ag43
ag44
ag45
ag46
ag47
ag48
ag49
ag50
ag51
ag52
ag53
ag54
ag55
ag56
ag57
ag58
ag106
ag59
ag60
ag61
ag62
ag63
ag64
ag65
ag107
ag67
ag108
ag68
ag69
ag111
ag70
ag112
ag113
ag72
ag73
ag74
ag75
ag76
ag77
ag78
ag79
ag80
ag81
ag82
ag114
ag115
ag116
ag83
ag84
ag85
ag117
ag86
ag87
ag119
ag120
ag122
ag123
ag124
ag88
ag89
ag90
ag126
ag129
ag91
ag92
ag93
ag131
ag132
ag133
ag94
ag135
ag136
ag137
ag95
ag139
ag96
ag141
ag143
ag144
ag146
ag147
ag148
ag150
ag151
ag153
ag154
ag155
ag157
ag158
ag97
ag161
ag163
ag164
ag165
ag166
ag167
ag168
ag169
ag170
ag171
ag172
ag173
ag174
ag175
ag176
ag177
ag178
asS'vibuobov'
p329
(lp330
sS'rhusinte'
p331
(lp332
sS'torrcali'
p333
(lp334
sS'lagurace'
p335
(lp336
sS'guaiangu'
p337
(lp338
sS'cordbois'
p339
(lp340
sS'styrplat'
p341
(lp342
sS'ilexmyrt'
p343
(lp344
sS'cataspec'
p345
(lp346
sS'amelalni'
p347
(lp348
sS'jacqkeye'
p349
(lp350
sS'salialax'
p351
(lp352
sS'guaisanc'
p353
(lp354
sS'popudelt'
p355
(lp356
g5
ag13
ag14
ag22
ag29
ag30
ag34
ag37
ag38
ag39
ag44
ag46
ag49
ag53
ag55
ag57
ag61
ag64
ag108
ag69
ag70
ag112
ag113
ag74
ag77
ag78
ag82
ag114
ag115
ag86
ag87
ag88
ag89
ag90
ag91
ag92
ag95
ag96
ag151
ag155
ag158
ag97
ag164
ag166
ag175
asS'krugferr'
p357
(lp358
sS'saligeye'
p359
(lp360
sS'pinutorr'
p361
(lp362
sS'querariz'
p363
(lp364
sS'nemocoll'
p365
(lp366
sS'quermyrt'
p367
(lp368
sS'cornstol'
p369
(lp370
g4
ag6
ag8
ag9
ag10
ag11
ag12
ag13
ag14
ag21
ag22
ag23
ag24
ag34
ag37
ag41
ag42
ag43
ag48
ag49
ag53
ag54
ag55
ag57
ag58
ag59
ag67
ag68
ag69
ag70
ag73
ag75
ag76
ag77
ag79
ag82
ag116
ag83
ag84
ag117
ag86
ag87
ag123
ag124
ag89
ag90
ag91
ag92
ag132
ag94
ag143
ag155
ag157
ag163
asS'querloba'
p371
(lp372
sS'prunilic'
p373
(lp374
sS'alnuserr'
p375
(lp376
g4
ag5
ag6
ag7
ag8
ag9
ag10
ag11
ag12
ag13
ag14
ag15
ag16
ag17
ag18
ag19
ag20
ag21
ag22
ag23
ag24
ag25
ag26
ag27
ag28
ag29
ag30
ag31
ag32
ag33
ag34
ag35
ag36
ag37
ag38
ag39
ag40
ag41
ag42
ag43
ag44
ag45
ag46
ag47
ag48
ag49
ag104
ag50
ag105
ag51
ag52
ag53
ag54
ag55
ag56
ag57
ag58
ag106
ag59
ag60
ag61
ag62
ag63
ag64
ag65
ag66
ag107
ag67
ag108
ag109
ag110
ag68
ag69
ag111
ag70
ag71
ag112
ag113
ag72
ag73
ag74
ag75
ag76
ag77
ag78
ag79
ag80
ag81
ag82
ag114
ag115
ag116
ag83
ag84
ag85
ag117
ag118
ag86
ag87
ag119
ag120
ag121
ag122
ag123
ag124
ag88
ag89
ag90
ag125
ag126
ag127
ag128
ag129
ag91
ag92
ag93
ag130
ag131
ag132
ag133
ag94
ag134
ag135
ag136
ag137
ag95
ag138
ag139
ag140
ag96
ag141
ag142
ag143
ag144
ag145
ag146
ag147
ag148
ag149
ag150
ag151
ag152
ag153
ag154
ag155
ag156
ag157
ag158
ag159
ag160
ag97
ag161
ag162
ag163
ag164
ag165
ag166
ag167
ag168
ag169
ag170
ag171
ag172
ag173
ag174
ag175
ag176
ag177
ag178
asS'piceenge'
p377
(lp378
sS'coccarge'
p379
(lp380
sS'piceglau'
p381
(lp382
sS'abieconc'
p383
(lp384
sS'tsugmert'
p385
(lp386
sS'maludive'
p387
(lp388
sS'celttenu'
p389
(lp390
sS'queralba'
p391
(lp392
g4
ag5
ag6
ag7
ag8
ag9
ag10
ag11
ag12
ag13
ag14
ag15
ag16
ag17
ag18
ag19
ag20
ag21
ag22
ag23
ag24
ag25
ag26
ag27
ag28
ag29
ag30
ag31
ag32
ag33
ag34
ag35
ag36
ag37
ag38
ag39
ag40
ag41
ag42
ag43
ag44
ag45
ag46
ag47
ag48
ag49
ag104
ag50
ag105
ag51
ag52
ag53
ag54
ag55
ag56
ag57
ag58
ag106
ag59
ag60
ag61
ag62
ag63
ag64
ag65
ag66
ag107
ag67
ag108
ag109
ag110
ag68
ag69
ag111
ag70
ag71
ag112
ag113
ag72
ag73
ag74
ag75
ag76
ag77
ag78
ag79
ag80
ag81
ag82
ag114
ag115
ag116
ag83
ag84
ag85
ag117
ag118
ag86
ag87
ag119
ag120
ag121
ag122
ag123
ag124
ag88
ag89
ag90
ag125
ag126
ag127
ag128
ag129
ag91
ag92
ag93
ag130
ag131
ag132
ag133
ag94
ag134
ag135
ag136
ag137
ag95
ag138
ag139
ag140
ag96
ag141
ag142
ag143
ag144
ag145
ag146
ag147
ag148
ag149
ag150
ag151
ag152
ag153
ag154
ag155
ag156
ag157
ag158
ag159
ag160
ag97
ag161
ag162
ag163
ag164
ag165
ag166
ag167
ag168
ag169
ag170
ag171
ag172
ag173
ag174
ag175
ag176
ag177
ag178
asS'rhuskear'
p393
(lp394
sS'quermacd'
p395
(lp396
sS'querilic'
p397
(lp398
g4
ag5
ag6
ag7
ag8
ag9
ag10
ag11
ag12
ag13
ag14
ag15
ag16
ag17
ag18
ag19
ag20
ag21
ag22
ag23
ag24
ag25
ag26
ag27
ag28
ag29
ag30
ag31
ag32
ag33
ag34
ag35
ag36
ag37
ag38
ag39
ag40
ag41
ag42
ag43
ag44
ag45
ag46
ag47
ag48
ag49
ag104
ag50
ag105
ag51
ag52
ag53
ag54
ag55
ag56
ag57
ag58
ag106
ag59
ag60
ag61
ag62
ag63
ag64
ag65
ag66
ag107
ag67
ag108
ag109
ag110
ag68
ag69
ag111
ag70
ag71
ag112
ag113
ag72
ag73
ag74
ag75
ag76
ag77
ag78
ag79
ag80
ag81
ag82
ag114
ag115
ag116
ag83
ag84
ag85
ag117
ag118
ag86
ag87
ag119
ag120
ag121
ag122
ag123
ag124
ag88
ag89
ag90
ag125
ag126
ag127
ag128
ag129
ag91
ag92
ag93
ag130
ag131
ag132
ag133
ag94
ag134
ag135
ag136
ag137
ag95
ag138
ag139
ag140
ag96
ag141
ag142
ag143
ag144
ag145
ag146
ag147
ag148
ag149
ag150
ag151
ag152
ag153
ag154
ag155
ag156
ag157
ag158
ag159
ag160
ag97
ag161
ag162
ag163
ag164
ag165
ag166
ag167
ag168
ag169
ag170
ag171
ag172
ag173
ag174
ag175
ag176
ag177
ag178
asS'celtlind'
p399
(lp400
sS'nyssaqua'
p401
(lp402
sS'zantcori'
p403
(lp404
sS'ilexmont'
p405
(lp406
sS'ceregiga'
p407
(lp408
sS'annoglab'
p409
(lp410
sS'pinustrb'
p411
(lp412
g4
ag5
ag6
ag7
ag8
ag9
ag10
ag11
ag12
ag13
ag14
ag15
ag16
ag17
ag18
ag19
ag20
ag21
ag22
ag23
ag24
ag25
ag26
ag27
ag28
ag29
ag30
ag31
ag32
ag33
ag34
ag35
ag36
ag37
ag38
ag39
ag40
ag41
ag42
ag43
ag44
ag45
ag46
ag47
ag48
ag49
ag104
ag50
ag105
ag51
ag52
ag53
ag54
ag55
ag56
ag57
ag58
ag106
ag59
ag60
ag61
ag62
ag63
ag64
ag65
ag66
ag107
ag67
ag108
ag109
ag110
ag68
ag69
ag111
ag70
ag71
ag112
ag113
ag72
ag73
ag74
ag75
ag76
ag77
ag78
ag79
ag80
ag81
ag82
ag114
ag115
ag116
ag83
ag84
ag85
ag117
ag118
ag86
ag87
ag119
ag120
ag121
ag122
ag123
ag124
ag88
ag89
ag90
ag125
ag126
ag127
ag128
ag129
ag91
ag92
ag93
ag130
ag131
ag132
ag133
ag94
ag134
ag135
ag136
ag137
ag95
ag138
ag139
ag140
ag96
ag141
ag142
ag143
ag144
ag145
ag146
ag147
ag148
ag149
ag150
ag151
ag152
ag153
ag154
ag155
ag156
ag157
ag158
ag159
ag160
ag97
ag161
ag162
ag163
ag164
ag165
ag166
ag167
ag168
ag169
ag170
ag171
ag172
ag173
ag174
ag175
ag176
ag177
ag178
asS'robipseu'
p413
(lp414
sS'salicaro'
p415
(lp416
sS'morumicr'
p417
(lp418
sS'bourovat'
p419
(lp420
sS'cercbrev'
p421
(lp422
sS'ilexopac'
p423
(lp424
g140
ag153
ag156
ag159
ag166
ag167
ag168
ag176
ag177
asS'saliscou'
p425
(lp426
sS'cornrace'
p427
(lp428
g4
ag5
ag6
ag7
ag8
ag9
ag10
ag11
ag12
ag13
ag14
ag15
ag16
ag17
ag18
ag19
ag20
ag21
ag22
ag23
ag24
ag25
ag26
ag27
ag28
ag29
ag30
ag31
ag32
ag33
ag34
ag35
ag36
ag37
ag38
ag39
ag40
ag41
ag42
ag43
ag44
ag45
ag46
ag47
ag48
ag49
ag104
ag50
ag105
ag51
ag52
ag53
ag54
ag55
ag56
ag57
ag58
ag106
ag59
ag60
ag61
ag62
ag63
ag64
ag65
ag66
ag107
ag67
ag108
ag109
ag110
ag68
ag69
ag111
ag70
ag71
ag112
ag113
ag72
ag73
ag74
ag75
ag76
ag77
ag78
ag79
ag80
ag81
ag82
ag114
ag115
ag116
ag83
ag84
ag85
ag117
ag118
ag86
ag87
ag119
ag120
ag121
ag122
ag123
ag124
ag88
ag89
ag90
ag125
ag126
ag127
ag128
ag129
ag91
ag92
ag93
ag130
ag131
ag132
ag133
ag94
ag134
ag135
ag136
ag137
ag95
ag138
ag139
ag140
ag96
ag141
ag142
ag143
ag144
ag145
ag146
ag147
ag148
ag149
ag150
ag151
ag152
ag153
ag154
ag155
ag156
ag157
ag158
ag159
ag160
ag97
ag161
ag162
ag163
ag164
ag165
ag166
ag167
ag168
ag169
ag170
ag171
ag172
ag173
ag174
ag175
ag176
ag177
ag178
asS'euonatro'
p429
(lp430
sS'ilexvert'
p431
(lp432
g4
ag5
ag6
ag7
ag8
ag9
ag10
ag11
ag12
ag13
ag14
ag15
ag16
ag17
ag18
ag19
ag20
ag21
ag22
ag23
ag24
ag25
ag26
ag27
ag28
ag29
ag30
ag31
ag32
ag33
ag34
ag35
ag36
ag37
ag38
ag39
ag40
ag41
ag42
ag43
ag44
ag45
ag46
ag47
ag48
ag49
ag104
ag50
ag105
ag51
ag52
ag53
ag54
ag55
ag56
ag57
ag58
ag106
ag59
ag60
ag61
ag62
ag63
ag64
ag65
ag66
ag107
ag67
ag108
ag109
ag110
ag68
ag69
ag111
ag70
ag71
ag112
ag113
ag72
ag73
ag74
ag75
ag76
ag77
ag78
ag79
ag80
ag81
ag82
ag114
ag115
ag116
ag83
ag84
ag85
ag117
ag118
ag86
ag87
ag119
ag120
ag121
ag122
ag123
ag124
ag88
ag89
ag90
ag125
ag126
ag127
ag128
ag129
ag91
ag92
ag93
ag130
ag131
ag132
ag133
ag94
ag134
ag135
ag136
ag137
ag95
ag138
ag139
ag140
ag96
ag141
ag142
ag143
ag144
ag145
ag146
ag147
ag148
ag149
ag150
ag151
ag152
ag153
ag154
ag155
ag156
ag157
ag158
ag159
ag160
ag97
ag161
ag162
ag163
ag164
ag165
ag166
ag167
ag168
ag169
ag170
ag171
ag172
ag173
ag174
ag175
ag176
ag177
ag178
asS'pinunels'
p433
(lp434
sS'carytome'
p435
(lp436
g4
ag5
ag6
ag7
ag8
ag9
ag10
ag11
ag12
ag13
ag14
ag15
ag16
ag17
ag18
ag19
ag21
ag22
ag23
ag24
ag25
ag26
ag27
ag28
ag29
ag30
ag31
ag32
ag33
ag34
ag35
ag36
ag37
ag38
ag39
ag40
ag41
ag42
ag43
ag44
ag45
ag46
ag47
ag48
ag49
ag104
ag50
ag105
ag51
ag52
ag53
ag54
ag55
ag56
ag57
ag58
ag106
ag59
ag60
ag61
ag62
ag63
ag64
ag65
ag66
ag107
ag67
ag108
ag109
ag110
ag68
ag69
ag111
ag70
ag71
ag112
ag113
ag72
ag73
ag74
ag75
ag76
ag77
ag78
ag79
ag80
ag81
ag82
ag114
ag115
ag116
ag83
ag84
ag85
ag117
ag118
ag86
ag87
ag119
ag120
ag121
ag122
ag123
ag124
ag88
ag89
ag90
ag125
ag126
ag127
ag128
ag129
ag91
ag92
ag93
ag130
ag131
ag132
ag133
ag94
ag134
ag135
ag136
ag137
ag95
ag138
ag139
ag140
ag96
ag141
ag142
ag143
ag144
ag145
ag146
ag147
ag148
ag149
ag150
ag151
ag152
ag153
ag154
ag155
ag156
ag157
ag158
ag159
ag160
ag97
ag161
ag162
ag163
ag164
ag165
ag166
ag167
ag168
ag169
ag170
ag171
ag172
ag173
ag174
ag175
ag176
ag177
ag178
asS'abiebals'
p437
(lp438
g4
ag6
ag8
ag9
ag10
ag11
ag21
ag24
ag43
ag48
ag54
ag58
ag69
ag75
ag83
ag84
ag86
ag91
asS'yuccrost'
p439
(lp440
sS'quershum'
p441
(lp442
sS'juniocci'
p443
(lp444
sS'taxomucr'
p445
(lp446
sS'junihori'
p447
(lp448
sS'lyonferr'
p449
(lp450
sS'prunumbe'
p451
(lp452
sS'cowamexi'
p453
(lp454
sS'aescsylv'
p455
(lp456
sS'schochry'
p457
(lp458
sS'myricali'
p459
(lp460
sS'querinca'
p461
(lp462
sS'cratdoug'
p463
(lp464
sS'salisitc'
p465
(lp466
sS'magnfras'
p467
(lp468
sS'quergarr'
p469
(lp470
sS'lithdens'
p471
(lp472
sS'tsughete'
p473
(lp474
sS'maclpomi'
p475
(lp476
sS'prunfrem'
p477
(lp478
sS'picesitc'
p479
(lp480
sS'rhamcaro'
p481
(lp482
sS'exoscari'
p483
(lp484
sS'cupaglab'
p485
(lp486
sS'betuuber'
p487
(lp488
sS'quernigr'
p489
(lp490
sS'sophaffi'
p491
(lp492
sS'castdent'
p493
(lp494
g4
ag5
ag7
ag8
ag12
ag13
ag14
ag15
ag16
ag17
ag18
ag19
ag20
ag22
ag23
ag25
ag26
ag27
ag28
ag29
ag30
ag31
ag32
ag33
ag34
ag35
ag36
ag37
ag38
ag39
ag40
ag41
ag42
ag44
ag45
ag46
ag47
ag48
ag49
ag104
ag50
ag105
ag51
ag52
ag53
ag55
ag56
ag57
ag106
ag59
ag60
ag61
ag62
ag63
ag64
ag65
ag66
ag107
ag67
ag108
ag109
ag110
ag68
ag69
ag111
ag70
ag71
ag112
ag113
ag72
ag73
ag74
ag76
ag77
ag78
ag79
ag80
ag81
ag82
ag114
ag115
ag116
ag83
ag84
ag85
ag117
ag118
ag86
ag87
ag119
ag120
ag121
ag122
ag123
ag124
ag88
ag89
ag90
ag125
ag126
ag127
ag128
ag129
ag91
ag92
ag93
ag130
ag131
ag132
ag133
ag94
ag134
ag135
ag136
ag137
ag95
ag138
ag139
ag140
ag96
ag141
ag142
ag143
ag144
ag145
ag146
ag147
ag148
ag149
ag150
ag151
ag152
ag153
ag154
ag155
ag156
ag157
ag158
ag159
ag160
ag97
ag161
ag162
ag163
ag164
ag165
ag166
ag167
ag168
ag169
ag170
ag171
ag172
ag173
ag174
ag175
ag176
ag177
ag178
asS'pinusero'
p495
(lp496
sS'ostrknow'
p497
(lp498
sS'corndrum'
p499
(lp500
sS'ilexvomi'
p501
(lp502
sS'pinuooca'
p503
(lp504
sS'ceanarbo'
p505
(lp506
sS'cithfrut'
p507
(lp508
sS'leucretu'
p509
(lp510
sS'staptrif'
p511
(lp512
g4
ag5
ag6
ag8
ag9
ag10
ag11
ag12
ag13
ag14
ag21
ag22
ag23
ag24
ag29
ag34
ag37
ag38
ag39
ag41
ag42
ag43
ag48
ag49
ag53
ag54
ag55
ag57
ag58
ag59
ag64
ag65
ag107
ag67
ag68
ag69
ag70
ag113
ag73
ag74
ag75
ag76
ag77
ag78
ag79
ag81
ag82
ag114
ag116
ag83
ag84
ag117
ag86
ag87
ag119
ag122
ag123
ag124
ag88
ag89
ag90
ag126
ag129
ag91
ag92
ag93
ag131
ag132
ag94
ag135
ag95
ag139
ag96
ag143
ag146
ag153
ag155
ag157
ag97
ag163
ag167
asS'gordlasi'
p513
(lp514
sS'lyonflor'
p515
(lp516
sS'pinumont'
p517
(lp518
sS'salilaev'
p519
(lp520
sS'acersacc'
p521
(lp522
g4
ag5
ag6
ag7
ag8
ag9
ag10
ag11
ag12
ag13
ag14
ag15
ag16
ag17
ag18
ag19
ag20
ag21
ag22
ag23
ag24
ag25
ag26
ag27
ag28
ag29
ag30
ag31
ag32
ag33
ag34
ag35
ag36
ag37
ag38
ag39
ag40
ag41
ag42
ag43
ag44
ag45
ag46
ag47
ag48
ag49
ag104
ag50
ag105
ag51
ag52
ag53
ag54
ag55
ag56
ag57
ag58
ag106
ag59
ag60
ag61
ag62
ag63
ag64
ag65
ag66
ag107
ag67
ag108
ag110
ag68
ag69
ag111
ag70
ag71
ag112
ag113
ag72
ag73
ag74
ag75
ag76
ag77
ag78
ag79
ag80
ag81
ag82
ag114
ag115
ag116
ag83
ag84
ag85
ag117
ag86
ag87
ag119
ag120
ag122
ag123
ag124
ag88
ag89
ag90
ag126
ag127
ag128
ag129
ag91
ag92
ag93
ag131
ag132
ag133
ag94
ag135
ag95
ag96
ag143
ag146
ag155
ag157
ag163
asS'cercbetu'
p523
(lp524
sS'pinumono'
p525
(lp526
sS'rhizmang'
p527
(lp528
sS'fraxprof'
p529
(lp530
sS'junipinc'
p531
(lp532
sS'platwrig'
p533
(lp534
sS'betunana'
p535
(lp536
sS'cotiobov'
p537
(lp538
sS'pinuatte'
p539
(lp540
sS'cuprariz'
p541
(lp542
sS'nolibige'
p543
(lp544
sS'castpumi'
p545
(lp546
sS'magnvirg'
p547
(lp548
sS'guapdisc'
p549
(lp550
sS'quergris'
p551
(lp552
sS'fraxamer'
p553
(lp554
g4
ag5
ag6
ag7
ag8
ag9
ag10
ag11
ag12
ag13
ag14
ag15
ag16
ag17
ag18
ag19
ag20
ag21
ag22
ag23
ag24
ag25
ag26
ag27
ag28
ag29
ag30
ag31
ag32
ag33
ag34
ag35
ag36
ag37
ag38
ag39
ag40
ag41
ag42
ag43
ag44
ag45
ag46
ag47
ag48
ag49
ag104
ag50
ag105
ag51
ag52
ag53
ag54
ag55
ag56
ag57
ag58
ag106
ag59
ag60
ag61
ag62
ag63
ag64
ag65
ag66
ag107
ag67
ag108
ag109
ag110
ag68
ag69
ag111
ag70
ag71
ag112
ag113
ag72
ag73
ag74
ag75
ag76
ag77
ag78
ag79
ag80
ag81
ag82
ag114
ag115
ag116
ag83
ag84
ag85
ag117
ag118
ag86
ag87
ag119
ag120
ag121
ag122
ag123
ag124
ag88
ag89
ag90
ag125
ag126
ag127
ag128
ag129
ag91
ag92
ag93
ag130
ag131
ag132
ag133
ag94
ag134
ag135
ag136
ag137
ag95
ag138
ag139
ag140
ag96
ag141
ag142
ag143
ag144
ag145
ag146
ag147
ag148
ag149
ag150
ag151
ag152
ag153
ag154
ag155
ag156
ag157
ag158
ag159
ag160
ag97
ag161
ag162
ag163
ag164
ag165
ag166
ag167
ag168
ag169
ag170
ag171
ag172
ag173
ag174
ag175
ag176
ag177
ag178
asS'abieamab'
p555
(lp556
sS'gymilati'
p557
(lp558
sS'acercirc'
p559
(lp560
sS'abiemagn'
p561
(lp562
sS'cyrirace'
p563
(lp564
sS'acergran'
p565
(lp566
sS'pinugreg'
p567
(lp568
sS'mastfoet'
p569
(lp570
sS'salipeti'
p571
(lp572
g4
ag6
ag8
ag9
ag10
ag11
ag21
ag24
ag42
ag48
ag54
ag120
ag122
ag171
asS'pinuresi'
p573
(lp574
g4
ag5
ag6
ag8
ag9
ag21
ag34
ag42
ag55
ag57
asS'fraxlati'
p575
(lp576
sS'fraxberl'
p577
(lp578
sS'pinubalf'
p579
(lp580
sS'ficucitr'
p581
(lp582
sS'abiebrac'
p583
(lp584
sS'pinuradi'
p585
(lp586
sS'myrcfrag'
p587
(lp588
sS'quervelu'
p589
(lp590
g4
ag5
ag6
ag7
ag8
ag9
ag10
ag11
ag12
ag13
ag14
ag15
ag16
ag17
ag18
ag19
ag20
ag21
ag22
ag23
ag24
ag25
ag26
ag27
ag28
ag29
ag30
ag31
ag32
ag33
ag34
ag35
ag36
ag37
ag38
ag39
ag40
ag41
ag42
ag43
ag44
ag45
ag46
ag47
ag48
ag49
ag104
ag50
ag105
ag51
ag52
ag53
ag54
ag55
ag56
ag57
ag58
ag106
ag59
ag60
ag61
ag62
ag63
ag64
ag65
ag66
ag107
ag67
ag108
ag109
ag110
ag68
ag69
ag111
ag70
ag71
ag112
ag113
ag72
ag73
ag74
ag75
ag76
ag77
ag78
ag79
ag80
ag81
ag82
ag114
ag115
ag116
ag83
ag84
ag85
ag117
ag118
ag86
ag87
ag119
ag120
ag121
ag122
ag123
ag124
ag88
ag89
ag90
ag125
ag126
ag127
ag128
ag129
ag91
ag92
ag93
ag130
ag131
ag132
ag133
ag94
ag134
ag135
ag136
ag137
ag95
ag138
ag139
ag140
ag96
ag141
ag142
ag143
ag144
ag145
ag146
ag147
ag148
ag149
ag150
ag151
ag152
ag153
ag154
ag155
ag156
ag157
ag158
ag159
ag160
ag97
ag161
ag162
ag163
ag164
ag165
ag166
ag167
ag168
ag169
ag170
ag171
ag172
ag173
ag174
ag175
ag176
ag177
ag178
asS'aescparv'
p591
(lp592
sS'pinucont'
p593
(lp594
sS'sabapalm'
p595
(lp596
sS'betuocci'
p597
(lp598
sS'larrdiva'
p599
(lp600
sS'sapidrum'
p601
(lp602
sS'pinuaris'
p603
(lp604
sS'rhampurs'
p605
(lp606
sS'artetrid'
p607
(lp608
sS'maluangu'
p609
(lp610
sS'rhusglab'
p611
(lp612
g5
ag7
ag13
ag14
ag15
ag16
ag17
ag18
ag19
ag20
ag22
ag25
ag26
ag27
ag28
ag29
ag30
ag31
ag32
ag33
ag35
ag36
ag38
ag39
ag40
ag44
ag45
ag46
ag47
ag49
ag104
ag50
ag105
ag51
ag52
ag55
ag56
ag57
ag106
ag60
ag61
ag62
ag63
ag64
ag65
ag66
ag107
ag108
ag109
ag110
ag111
ag71
ag112
ag113
ag72
ag74
ag78
ag80
ag81
ag114
ag115
ag85
ag118
ag119
ag120
ag121
ag122
ag123
ag124
ag88
ag89
ag125
ag126
ag127
ag128
ag129
ag93
ag130
ag131
ag132
ag133
ag94
ag134
ag135
ag136
ag137
ag95
ag138
ag139
ag140
ag96
ag141
ag142
ag143
ag144
ag145
ag146
ag147
ag148
ag149
ag150
ag151
ag152
ag153
ag154
ag155
ag156
ag157
ag158
ag159
ag160
ag97
ag161
ag162
ag163
ag164
ag165
ag166
ag167
ag168
ag169
ag170
ag171
ag172
ag173
ag174
ag175
ag176
ag177
ag178
asS'nectcori'
p613
(lp614
sS'pinucari'
p615
(lp616
sS'eysepoly'
p617
(lp618
sS'heliparv'
p619
(lp620
sS'eugeconf'
p621
(lp622
sS'illiflor'
p623
(lp624
sS'haleparv'
p625
(lp626
sS'juglmicr'
p627
(lp628
sS'pteltrif'
p629
(lp630
sS'abiefras'
p631
(lp632
sS'acernegu'
p633
(lp634
g6
ag9
ag10
ag21
ag48
ag54
ag69
ag70
ag75
ag77
ag82
ag84
ag117
ag87
ag123
ag92
asS'pinudoug'
p635
(lp636
sS'yucccarn'
p637
(lp638
sS'cornnutt'
p639
(lp640
sS'fraxcaro'
p641
(lp642
sS'crattrac'
p643
(lp644
sS'prunnigr'
p645
(lp646
g8
ag9
ag21
ag36
ag40
ag50
ag60
ag62
ag75
ag77
ag84
ag86
ag89
ag90
ag95
asS'fraxvelu'
p647
(lp648
sS'caryflor'
p649
(lp650
sS'querlaur'
p651
(lp652
sS'pisttexa'
p653
(lp654
sS'acerleuc'
p655
(lp656
sS'eugeaxil'
p657
(lp658
sS'ilexcori'
p659
(lp660
sS'thujplic'
p661
(lp662
sS'crateryt'
p663
(lp664
sS'pinuhart'
p665
(lp666
sS'arbumenz'
p667
(lp668
sS'metotoxi'
p669
(lp670
sS'alvaamor'
p671
(lp672
sS'pinusabi'
p673
(lp674
sS'prunamer'
p675
(lp676
g4
ag5
ag6
ag7
ag8
ag9
ag10
ag11
ag12
ag13
ag14
ag15
ag16
ag17
ag18
ag19
ag20
ag21
ag22
ag23
ag24
ag25
ag26
ag27
ag28
ag29
ag30
ag31
ag32
ag33
ag34
ag35
ag36
ag37
ag38
ag39
ag40
ag41
ag42
ag43
ag44
ag45
ag46
ag47
ag48
ag49
ag104
ag50
ag105
ag51
ag52
ag53
ag54
ag55
ag56
ag57
ag58
ag106
ag59
ag60
ag61
ag62
ag63
ag64
ag65
ag66
ag107
ag67
ag109
ag110
ag68
ag69
ag70
ag71
ag72
ag73
ag74
ag75
ag76
ag77
ag78
ag79
ag80
ag81
ag82
ag114
ag116
ag83
ag84
ag85
ag117
ag118
ag86
ag87
ag123
ag124
ag89
ag90
ag125
ag127
ag128
ag91
ag92
ag93
ag130
ag132
ag94
ag143
ag153
ag155
ag157
ag163
asS'cornstri'
p677
(lp678
sS'yuccscho'
p679
(lp680
sS'yuccaloi'
p681
(lp682
sS'vibutril'
p683
(lp684
g4
ag5
ag6
ag8
ag9
ag10
ag11
ag12
ag13
ag14
ag15
ag16
ag17
ag21
ag22
ag23
ag24
ag27
ag29
ag30
ag34
ag37
ag38
ag39
ag41
ag42
ag43
ag48
ag49
ag53
ag54
ag55
ag57
ag58
ag59
ag61
ag67
ag68
ag69
ag70
ag73
ag75
ag76
ag77
ag79
ag81
ag82
ag116
ag83
ag84
ag117
ag87
ag123
ag124
ag91
ag92
ag132
ag143
asS'bumetena'
p685
(lp686
sS'fremmexi'
p687
(lp688
sS'salipyri'
p689
(lp690
sS'platrace'
p691
(lp692
sS'rhodmacr'
p693
(lp694
sS'eugerhom'
p695
(lp696
sS'lirituli'
p697
(lp698
g4
ag5
ag6
ag7
ag8
ag9
ag10
ag11
ag12
ag13
ag14
ag15
ag16
ag17
ag18
ag19
ag20
ag21
ag22
ag23
ag24
ag25
ag26
ag27
ag28
ag29
ag30
ag31
ag32
ag33
ag34
ag35
ag36
ag37
ag38
ag39
ag40
ag41
ag42
ag43
ag44
ag45
ag46
ag47
ag48
ag49
ag104
ag50
ag105
ag51
ag52
ag53
ag54
ag55
ag56
ag57
ag58
ag106
ag59
ag60
ag61
ag62
ag63
ag64
ag65
ag66
ag107
ag67
ag108
ag109
ag110
ag68
ag69
ag111
ag70
ag71
ag112
ag113
ag72
ag73
ag74
ag75
ag76
ag77
ag78
ag79
ag80
ag81
ag82
ag114
ag115
ag116
ag83
ag84
ag85
ag117
ag118
ag86
ag87
ag119
ag120
ag121
ag122
ag123
ag124
ag88
ag89
ag90
ag125
ag126
ag127
ag128
ag129
ag91
ag92
ag93
ag130
ag131
ag132
ag133
ag94
ag134
ag135
ag136
ag137
ag95
ag138
ag139
ag140
ag96
ag141
ag142
ag143
ag144
ag145
ag146
ag147
ag148
ag149
ag150
ag151
ag152
ag153
ag154
ag155
ag156
ag157
ag158
ag159
ag160
ag97
ag161
ag162
ag163
ag164
ag165
ag166
ag167
ag168
ag169
ag170
ag171
ag172
ag173
ag174
ag175
ag176
ag177
ag178
asS'pinupalu'
p699
(lp700
sS'ulmurubr'
p701
(lp702
g4
ag5
ag6
ag7
ag8
ag9
ag10
ag11
ag12
ag13
ag14
ag15
ag16
ag17
ag18
ag19
ag20
ag21
ag22
ag23
ag24
ag25
ag26
ag27
ag28
ag29
ag30
ag31
ag32
ag33
ag34
ag35
ag36
ag37
ag38
ag39
ag40
ag41
ag42
ag43
ag44
ag45
ag46
ag47
ag48
ag49
ag104
ag50
ag105
ag51
ag52
ag53
ag54
ag55
ag56
ag57
ag58
ag106
ag59
ag60
ag61
ag62
ag63
ag64
ag65
ag66
ag107
ag67
ag108
ag109
ag110
ag68
ag69
ag111
ag70
ag71
ag112
ag113
ag72
ag73
ag74
ag75
ag76
ag77
ag78
ag79
ag80
ag81
ag82
ag114
ag115
ag116
ag83
ag84
ag85
ag117
ag118
ag86
ag87
ag119
ag120
ag121
ag122
ag123
ag124
ag88
ag89
ag90
ag125
ag126
ag127
ag128
ag129
ag91
ag92
ag93
ag130
ag131
ag132
ag133
ag94
ag134
ag135
ag136
ag137
ag95
ag138
ag139
ag140
ag96
ag141
ag142
ag143
ag144
ag145
ag146
ag147
ag148
ag149
ag150
ag151
ag152
ag153
ag154
ag155
ag156
ag157
ag158
ag159
ag160
ag97
ag161
ag162
ag163
ag164
ag165
ag166
ag167
ag168
ag169
ag170
ag171
ag172
ag173
ag174
ag175
ag176
ag177
ag178
asS'tsugcana'
p703
(lp704
g4
ag5
ag6
ag7
ag8
ag9
ag10
ag11
ag12
ag13
ag14
ag15
ag16
ag17
ag18
ag19
ag20
ag21
ag22
ag23
ag24
ag25
ag26
ag27
ag28
ag29
ag30
ag31
ag32
ag33
ag34
ag35
ag36
ag37
ag38
ag39
ag40
ag41
ag42
ag43
ag44
ag45
ag46
ag47
ag48
ag49
ag104
ag50
ag105
ag51
ag52
ag53
ag54
ag55
ag56
ag57
ag58
ag106
ag59
ag60
ag61
ag62
ag63
ag64
ag65
ag66
ag107
ag67
ag108
ag109
ag110
ag68
ag69
ag111
ag70
ag71
ag112
ag113
ag72
ag73
ag74
ag75
ag76
ag77
ag78
ag79
ag80
ag81
ag82
ag114
ag115
ag116
ag83
ag84
ag85
ag117
ag118
ag86
ag87
ag119
ag120
ag121
ag122
ag123
ag124
ag88
ag89
ag90
ag125
ag126
ag127
ag128
ag129
ag91
ag92
ag93
ag130
ag131
ag132
ag133
ag94
ag134
ag135
ag136
ag137
ag95
ag138
ag139
ag140
ag96
ag141
ag142
ag143
ag144
ag145
ag146
ag147
ag148
ag149
ag150
ag151
ag152
ag153
ag154
ag155
ag156
ag157
ag158
ag159
ag160
ag97
ag161
ag162
ag163
ag164
ag165
ag166
ag167
ag168
ag169
ag170
ag171
ag172
ag173
ag174
ag175
ag176
ag177
ag178
asS'maytphyl'
p705
(lp706
sS'coccuvif'
p707
(lp708
sS'toxivern'
p709
(lp710
g4
ag5
ag6
ag7
ag8
ag9
ag10
ag11
ag12
ag13
ag14
ag15
ag16
ag17
ag18
ag19
ag20
ag21
ag22
ag23
ag24
ag25
ag26
ag27
ag28
ag29
ag30
ag31
ag32
ag33
ag34
ag35
ag36
ag37
ag38
ag39
ag40
ag41
ag42
ag43
ag44
ag45
ag46
ag47
ag48
ag49
ag104
ag50
ag105
ag51
ag52
ag53
ag54
ag55
ag56
ag57
ag58
ag106
ag59
ag60
ag61
ag62
ag63
ag64
ag65
ag66
ag107
ag67
ag108
ag109
ag110
ag68
ag69
ag111
ag70
ag71
ag112
ag113
ag72
ag73
ag74
ag75
ag76
ag77
ag78
ag79
ag80
ag81
ag82
ag114
ag115
ag116
ag83
ag84
ag85
ag117
ag118
ag86
ag87
ag119
ag120
ag121
ag122
ag123
ag124
ag88
ag89
ag90
ag125
ag126
ag127
ag128
ag129
ag91
ag92
ag93
ag130
ag131
ag132
ag133
ag94
ag134
ag135
ag136
ag137
ag95
ag138
ag139
ag140
ag96
ag141
ag142
ag143
ag144
ag145
ag146
ag147
ag148
ag149
ag150
ag151
ag152
ag153
ag154
ag155
ag156
ag157
ag158
ag159
ag160
ag97
ag161
ag162
ag163
ag164
ag165
ag166
ag167
ag168
ag169
ag170
ag171
ag172
ag173
ag174
ag175
ag176
ag177
ag178
asS'caryilli'
p711
(lp712
sS'tremlama'
p713
(lp714
sS'betualle'
p715
(lp716
g4
ag5
ag6
ag7
ag8
ag9
ag10
ag11
ag12
ag13
ag14
ag15
ag16
ag17
ag18
ag19
ag20
ag21
ag22
ag23
ag24
ag25
ag26
ag27
ag28
ag29
ag30
ag31
ag32
ag33
ag34
ag35
ag36
ag37
ag38
ag39
ag40
ag41
ag42
ag43
ag44
ag45
ag46
ag47
ag48
ag49
ag104
ag50
ag105
ag51
ag52
ag53
ag54
ag55
ag56
ag57
ag58
ag106
ag59
ag60
ag61
ag62
ag63
ag64
ag65
ag66
ag107
ag67
ag108
ag109
ag110
ag68
ag69
ag111
ag70
ag71
ag112
ag113
ag72
ag73
ag74
ag75
ag76
ag77
ag78
ag79
ag80
ag81
ag82
ag114
ag115
ag116
ag83
ag84
ag85
ag117
ag118
ag86
ag87
ag119
ag120
ag121
ag122
ag123
ag124
ag88
ag89
ag90
ag125
ag126
ag127
ag128
ag129
ag91
ag92
ag93
ag130
ag131
ag132
ag133
ag94
ag134
ag135
ag136
ag137
ag95
ag138
ag139
ag140
ag96
ag141
ag142
ag143
ag144
ag145
ag146
ag147
ag148
ag149
ag150
ag151
ag152
ag153
ag154
ag155
ag156
ag157
ag158
ag159
ag160
ag97
ag161
ag162
ag163
ag164
ag165
ag166
ag167
ag168
ag169
ag170
ag171
ag172
ag173
ag174
ag175
ag176
ag177
ag178
asS'fraxanom'
p717
(lp718
sS'pithpall'
p719
(lp720
sS'salimack'
p721
(lp722
sS'carymyri'
p723
(lp724
sS'querchry'
p725
(lp726
sS'garrelli'
p727
(lp728
sS'franalat'
p729
(lp730
sS'malucoro'
p731
(lp732
sS'clusrose'
p733
(lp734
sS'robikels'
p735
(lp736
sS'betupopu'
p737
(lp738
g4
ag5
ag6
ag7
ag8
ag9
ag10
ag11
ag12
ag13
ag14
ag15
ag16
ag17
ag18
ag19
ag20
ag21
ag22
ag23
ag24
ag25
ag26
ag27
ag28
ag29
ag30
ag31
ag32
ag33
ag34
ag35
ag36
ag37
ag38
ag39
ag40
ag41
ag42
ag43
ag44
ag45
ag46
ag47
ag48
ag49
ag104
ag50
ag105
ag51
ag52
ag53
ag54
ag55
ag56
ag57
ag58
ag106
ag59
ag60
ag61
ag62
ag63
ag64
ag65
ag66
ag107
ag67
ag108
ag109
ag110
ag68
ag69
ag111
ag70
ag71
ag112
ag113
ag72
ag73
ag74
ag75
ag76
ag77
ag78
ag79
ag80
ag81
ag82
ag114
ag115
ag116
ag83
ag84
ag85
ag117
ag118
ag86
ag87
ag119
ag120
ag121
ag122
ag123
ag124
ag88
ag89
ag90
ag125
ag126
ag127
ag128
ag129
ag91
ag92
ag93
ag130
ag131
ag132
ag133
ag94
ag134
ag135
ag136
ag137
ag95
ag138
ag139
ag140
ag96
ag141
ag142
ag143
ag144
ag145
ag146
ag147
ag148
ag149
ag150
ag151
ag152
ag153
ag154
ag155
ag156
ag157
ag158
ag159
ag160
ag97
ag161
ag162
ag163
ag164
ag165
ag166
ag167
ag168
ag169
ag170
ag171
ag172
ag173
ag174
ag175
ag176
ag177
ag178
asS'picebrew'
p739
(lp740
sS'thriradi'
p741
(lp742
sS'saliexig'
p743
(lp744
g44
ag46
ag64
ag108
ag112
ag113
ag114
ag120
ag122
ag126
ag131
ag142
ag145
ag149
ag160
ag162
asS'abieproc'
p745
(lp746
sS'betulent'
p747
(lp748
g4
ag5
ag6
ag7
ag8
ag9
ag10
ag11
ag12
ag13
ag14
ag15
ag16
ag17
ag18
ag19
ag20
ag21
ag22
ag23
ag24
ag25
ag26
ag27
ag28
ag29
ag30
ag31
ag32
ag33
ag34
ag35
ag36
ag37
ag38
ag39
ag40
ag41
ag42
ag43
ag44
ag45
ag46
ag47
ag48
ag49
ag104
ag50
ag105
ag51
ag52
ag53
ag54
ag55
ag56
ag57
ag58
ag106
ag59
ag60
ag61
ag62
ag63
ag64
ag65
ag66
ag107
ag67
ag108
ag109
ag110
ag68
ag69
ag111
ag70
ag71
ag112
ag113
ag72
ag73
ag74
ag75
ag76
ag77
ag78
ag79
ag80
ag81
ag82
ag114
ag115
ag116
ag83
ag84
ag85
ag117
ag118
ag86
ag87
ag119
ag120
ag121
ag122
ag123
ag124
ag88
ag89
ag90
ag125
ag126
ag127
ag128
ag129
ag91
ag92
ag93
ag130
ag131
ag132
ag133
ag94
ag134
ag135
ag136
ag137
ag95
ag138
ag139
ag140
ag96
ag141
ag142
ag143
ag144
ag145
ag146
ag147
ag148
ag149
ag150
ag151
ag152
ag153
ag154
ag155
ag156
ag157
ag158
ag159
ag160
ag97
ag161
ag162
ag163
ag164
ag165
ag166
ag167
ag168
ag169
ag170
ag171
ag172
ag173
ag174
ag175
ag176
ag177
ag178
asS'cercmicr'
p749
(lp750
sS'quermueh'
p751
(lp752
g4
ag6
ag8
ag9
ag10
ag21
ag42
ag48
ag54
ag77
ag88
ag89
ag135
ag95
ag96
ag146
ag148
ag150
ag151
ag97
ag161
ag164
ag165
asS'magngran'
p753
(lp754
sS'aescpavi'
p755
(lp756
sS'alnuoblo'
p757
(lp758
sS'pinuprin'
p759
(lp760
sS'carytexa'
p761
(lp762
sS'pinuflex'
p763
(lp764
sS'prunmuns'
p765
(lp766
sS'drypdive'
p767
(lp768
sS'castalni'
p769
(lp770
sS'cephocci'
p771
(lp772
g4
ag5
ag6
ag7
ag8
ag9
ag10
ag11
ag12
ag13
ag14
ag15
ag16
ag17
ag18
ag19
ag20
ag21
ag22
ag23
ag24
ag25
ag26
ag27
ag28
ag29
ag30
ag31
ag32
ag33
ag34
ag35
ag36
ag37
ag38
ag39
ag40
ag41
ag42
ag43
ag44
ag45
ag46
ag47
ag48
ag49
ag104
ag50
ag105
ag51
ag52
ag53
ag54
ag55
ag56
ag57
ag58
ag106
ag59
ag60
ag61
ag62
ag63
ag64
ag65
ag66
ag107
ag67
ag108
ag109
ag110
ag68
ag69
ag111
ag70
ag71
ag112
ag113
ag72
ag73
ag74
ag75
ag76
ag77
ag78
ag79
ag80
ag81
ag82
ag114
ag115
ag116
ag83
ag84
ag85
ag117
ag118
ag86
ag87
ag119
ag120
ag121
ag122
ag123
ag124
ag88
ag89
ag90
ag125
ag126
ag127
ag128
ag129
ag91
ag92
ag93
ag130
ag131
ag132
ag133
ag94
ag134
ag135
ag136
ag137
ag95
ag138
ag139
ag140
ag96
ag141
ag142
ag143
ag144
ag145
ag146
ag147
ag148
ag149
ag150
ag151
ag152
ag153
ag154
ag155
ag156
ag157
ag158
ag159
ag160
ag97
ag161
ag162
ag163
ag164
ag165
ag166
ag167
ag168
ag169
ag170
ag171
ag172
ag173
ag174
ag175
ag176
ag177
ag178
asS'ulmualat'
p773
(lp774
sS'amelarbo'
p775
(lp776
g4
ag5
ag6
ag7
ag8
ag9
ag10
ag11
ag12
ag13
ag14
ag15
ag16
ag17
ag18
ag19
ag20
ag21
ag22
ag23
ag24
ag25
ag26
ag27
ag28
ag29
ag30
ag31
ag32
ag33
ag34
ag35
ag36
ag37
ag38
ag39
ag40
ag41
ag42
ag43
ag44
ag45
ag46
ag47
ag48
ag49
ag104
ag50
ag105
ag51
ag52
ag53
ag54
ag55
ag56
ag57
ag58
ag106
ag59
ag60
ag61
ag62
ag63
ag64
ag65
ag66
ag107
ag67
ag108
ag109
ag110
ag68
ag69
ag111
ag70
ag71
ag112
ag113
ag72
ag73
ag74
ag75
ag76
ag77
ag78
ag79
ag80
ag81
ag82
ag114
ag115
ag116
ag83
ag84
ag85
ag117
ag118
ag86
ag87
ag119
ag120
ag121
ag122
ag123
ag124
ag88
ag89
ag90
ag125
ag126
ag127
ag128
ag129
ag91
ag92
ag93
ag130
ag131
ag132
ag133
ag94
ag134
ag135
ag136
ag137
ag95
ag138
ag139
ag140
ag96
ag141
ag142
ag143
ag144
ag145
ag146
ag147
ag148
ag149
ag150
ag151
ag152
ag153
ag154
ag155
ag156
ag157
ag158
ag159
ag160
ag97
ag161
ag162
ag163
ag164
ag165
ag166
ag167
ag168
ag169
ag170
ag171
ag172
ag173
ag174
ag175
ag176
ag177
ag178
asS'coluelli'
p777
(lp778
sS'burssima'
p779
(lp780
sS'yucctrec'
p781
(lp782
sS'queragri'
p783
(lp784
sS'cornalte'
p785
(lp786
g4
ag5
ag6
ag7
ag8
ag9
ag10
ag11
ag12
ag13
ag14
ag15
ag16
ag17
ag18
ag19
ag20
ag21
ag22
ag23
ag24
ag25
ag26
ag27
ag28
ag29
ag30
ag31
ag32
ag33
ag34
ag35
ag36
ag37
ag38
ag39
ag40
ag41
ag42
ag43
ag44
ag45
ag46
ag47
ag48
ag49
ag104
ag50
ag105
ag51
ag52
ag53
ag54
ag55
ag56
ag57
ag58
ag106
ag59
ag60
ag61
ag62
ag63
ag64
ag65
ag66
ag107
ag67
ag108
ag109
ag110
ag68
ag69
ag111
ag70
ag71
ag112
ag113
ag72
ag73
ag74
ag75
ag76
ag77
ag78
ag79
ag80
ag81
ag82
ag114
ag115
ag116
ag83
ag84
ag85
ag117
ag118
ag86
ag87
ag119
ag120
ag121
ag122
ag123
ag124
ag88
ag89
ag90
ag125
ag126
ag127
ag128
ag129
ag91
ag92
ag93
ag130
ag131
ag132
ag133
ag94
ag134
ag135
ag136
ag137
ag95
ag138
ag139
ag140
ag96
ag141
ag142
ag143
ag144
ag145
ag146
ag147
ag148
ag149
ag150
ag151
ag152
ag154
ag155
ag156
ag157
ag158
ag159
ag160
ag97
ag161
ag162
ag163
ag164
ag165
ag166
asS'pinuayac'
p787
(lp788
sS'alnutenu'
p789
(lp790
sS'querdunn'
p791
(lp792
sS'ungnspec'
p793
(lp794
sS'picepung'
p795
(lp796
sS'pinupung'
p797
(lp798
sS'vibulent'
p799
(lp800
g4
ag5
ag6
ag7
ag8
ag9
ag10
ag11
ag12
ag13
ag14
ag15
ag16
ag17
ag18
ag19
ag20
ag21
ag22
ag23
ag24
ag25
ag26
ag27
ag28
ag29
ag30
ag31
ag32
ag33
ag34
ag35
ag36
ag37
ag38
ag39
ag40
ag41
ag42
ag43
ag44
ag45
ag46
ag47
ag48
ag49
ag104
ag50
ag105
ag51
ag52
ag53
ag54
ag55
ag56
ag57
ag58
ag106
ag59
ag60
ag61
ag62
ag63
ag64
ag65
ag66
ag107
ag67
ag108
ag109
ag110
ag68
ag69
ag111
ag70
ag71
ag112
ag113
ag72
ag73
ag74
ag75
ag76
ag77
ag78
ag79
ag80
ag81
ag82
ag114
ag115
ag116
ag83
ag84
ag85
ag117
ag118
ag86
ag87
ag119
ag120
ag121
ag122
ag123
ag124
ag88
ag89
ag90
ag125
ag126
ag127
ag128
ag129
ag91
ag92
ag93
ag130
ag131
ag132
ag133
ag94
ag134
ag135
ag136
ag137
ag95
ag138
ag139
ag140
ag96
ag141
ag142
ag143
ag144
ag145
ag146
ag147
ag148
ag149
ag150
ag151
ag152
ag153
ag154
ag155
ag156
ag157
ag158
ag159
ag160
ag97
ag161
ag162
ag163
ag164
ag165
ag166
ag167
ag168
ag169
ag170
ag171
ag172
ag173
ag174
ag175
ag176
ag177
ag178
asS'ehreanac'
p801
(lp802
sS'pseumenz'
p803
(lp804
sS'prosjuli'
p805
(lp806
sS'tilihete'
p807
(lp808
sS'ilexlong'
p809
(lp810
sS'prunhort'
p811
(lp812
sS'yuccglor'
p813
(lp814
sS'juglnigr'
p815
(lp816
g4
ag6
ag8
ag9
ag10
ag21
ag54
asS'canewint'
p817
(lp818
sS'forephil'
p819
(lp820
sS'alnurubr'
p821
(lp822
sS'pinuelli'
p823
(lp824
sS'betunigr'
p825
(lp826
g167
ag168
ag170
ag174
ag176
asS'cladkent'
p827
(lp828
sS'acacmacr'
p829
(lp830
sS'salifluv'
p831
(lp832
sS'acermacr'
p833
(lp834
sS'querimbr'
p835
(lp836
sS'gymnluci'
p837
(lp838
sS'acerglab'
p839
(lp840
sS'magnashe'
p841
(lp842
sS'picemari'
p843
(lp844
g5
ag6
ag7
ag9
ag10
ag11
ag12
ag13
ag14
ag15
ag16
ag17
ag18
ag19
ag20
ag21
ag22
ag23
ag24
ag25
ag26
ag27
ag28
ag29
ag30
ag31
ag32
ag33
ag34
ag35
ag36
ag37
ag38
ag39
ag40
ag41
ag43
ag44
ag48
ag49
ag52
ag53
ag54
ag55
ag56
ag57
ag58
ag106
ag59
ag60
ag61
ag62
ag69
ag75
ag76
ag77
ag79
ag83
ag84
asS'ulmuamer'
p845
(lp846
g4
ag5
ag6
ag7
ag8
ag9
ag10
ag11
ag12
ag13
ag14
ag15
ag16
ag17
ag18
ag19
ag20
ag21
ag22
ag23
ag24
ag25
ag26
ag27
ag28
ag29
ag30
ag31
ag32
ag33
ag34
ag35
ag36
ag37
ag38
ag39
ag40
ag41
ag42
ag43
ag44
ag45
ag46
ag47
ag48
ag49
ag104
ag50
ag105
ag51
ag52
ag53
ag54
ag55
ag56
ag57
ag58
ag106
ag59
ag60
ag61
ag62
ag63
ag64
ag65
ag66
ag107
ag67
ag108
ag109
ag110
ag68
ag69
ag111
ag70
ag71
ag112
ag113
ag72
ag73
ag74
ag75
ag76
ag77
ag78
ag79
ag80
ag81
ag82
ag114
ag115
ag116
ag83
ag84
ag85
ag117
ag118
ag86
ag87
ag119
ag120
ag121
ag122
ag123
ag124
ag88
ag89
ag90
ag125
ag126
ag127
ag128
ag129
ag91
ag92
ag93
ag130
ag131
ag132
ag133
ag94
ag134
ag135
ag136
ag137
ag95
ag138
ag139
ag140
ag96
ag141
ag142
ag143
ag144
ag145
ag146
ag147
ag148
ag149
ag150
ag151
ag152
ag153
ag154
ag155
ag156
ag157
ag158
ag159
ag160
ag97
ag161
ag162
ag163
ag164
ag165
ag166
ag167
ag168
ag169
ag170
ag171
ag172
ag173
ag174
ag175
ag176
ag177
ag178
asS'sequgiga'
p847
(lp848
sS'sassalbi'
p849
(lp850
g4
ag5
ag6
ag7
ag8
ag9
ag10
ag11
ag12
ag13
ag14
ag15
ag16
ag17
ag18
ag19
ag20
ag21
ag22
ag23
ag24
ag25
ag26
ag27
ag28
ag29
ag30
ag31
ag32
ag33
ag34
ag35
ag36
ag37
ag38
ag39
ag40
ag41
ag42
ag43
ag44
ag45
ag46
ag47
ag48
ag49
ag104
ag50
ag105
ag51
ag52
ag53
ag54
ag55
ag56
ag57
ag58
ag106
ag59
ag60
ag61
ag62
ag63
ag64
ag65
ag66
ag107
ag67
ag108
ag109
ag110
ag68
ag69
ag111
ag70
ag71
ag112
ag113
ag72
ag73
ag74
ag75
ag76
ag77
ag78
ag79
ag80
ag81
ag82
ag114
ag115
ag116
ag83
ag84
ag85
ag117
ag118
ag86
ag87
ag119
ag120
ag121
ag122
ag123
ag124
ag88
ag89
ag90
ag125
ag126
ag127
ag128
ag129
ag91
ag92
ag93
ag130
ag131
ag132
ag133
ag94
ag134
ag135
ag136
ag137
ag95
ag138
ag139
ag140
ag96
ag141
ag142
ag143
ag144
ag145
ag146
ag147
ag148
ag149
ag150
ag151
ag152
ag153
ag154
ag155
ag156
ag157
ag158
ag159
ag160
ag97
ag161
ag162
ag163
ag164
ag165
ag166
ag167
ag168
ag169
ag170
ag171
ag172
ag173
ag174
ag175
ag176
ag177
ag178
asS'haledipt'
p851
(lp852
sS'cletacum'
p853
(lp854
sS'cuprmacn'
p855
(lp856
sS'amphlati'
p857
(lp858
sS'pinumuri'
p859
(lp860
sS'myrihete'
p861
(lp862
sS'cuprmacr'
p863
(lp864
sS'sorbscop'
p865
(lp866
sS'acacchor'
p867
(lp868
sS'torrtaxi'
p869
(lp870
sS'pinucemb'
p871
(lp872
sS'popuhinc'
p873
(lp874
sS'cratchry'
p875
(lp876
sS'pinuwash'
p877
(lp878
sS'sabamino'
p879
(lp880
sS'quergrav'
p881
(lp882
sS'ardiesca'
p883
(lp884
sS'coccdive'
p885
(lp886
sS'canoholo'
p887
(lp888
sS'acacrigi'
p889
(lp890
sS'quergrac'
p891
(lp892
sS'pinucoop'
p893
(lp894
sS'tsugcaro'
p895
(lp896
sS'myriceri'
p897
(lp898
sS'symptinc'
p899
(lp900
sS'prunmexi'
p901
(lp902
sS'washfili'
p903
(lp904
sS'ilexcass'
p905
(lp906
sS'osmaamer'
p907
(lp908
sS'querphel'
p909
(lp910
sS'salibebb'
p911
(lp912
g4
ag5
ag6
ag7
ag8
ag9
ag10
ag11
ag12
ag13
ag14
ag15
ag16
ag17
ag18
ag19
ag20
ag21
ag22
ag23
ag24
ag25
ag26
ag27
ag28
ag29
ag30
ag31
ag32
ag33
ag34
ag35
ag36
ag37
ag38
ag39
ag40
ag41
ag42
ag43
ag44
ag45
ag46
ag47
ag48
ag49
ag104
ag50
ag105
ag51
ag52
ag53
ag54
ag55
ag56
ag57
ag58
ag106
ag59
ag60
ag61
ag62
ag63
ag64
ag65
ag66
ag107
ag67
ag108
ag109
ag110
ag68
ag69
ag111
ag70
ag71
ag112
ag113
ag72
ag73
ag74
ag75
ag76
ag77
ag78
ag79
ag80
ag81
ag82
ag114
ag115
ag116
ag83
ag84
ag85
ag117
ag118
ag86
ag87
ag119
ag120
ag121
ag122
ag123
ag124
ag88
ag89
ag90
ag125
ag126
ag127
ag128
ag129
ag91
ag92
ag93
ag130
ag131
ag132
ag133
ag94
ag134
ag135
ag136
ag137
ag95
ag138
ag139
ag140
ag96
ag141
ag142
ag143
ag144
ag145
ag146
ag147
ag148
ag149
ag150
ag151
ag152
ag153
ag154
ag155
ag156
ag157
ag158
ag159
ag160
ag97
ag161
ag162
ag163
ag164
ag165
ag166
ag167
ag168
ag169
ag170
ag171
ag172
ag173
ag174
ag175
ag176
ag177
ag178
asS'tetrbico'
p913
(lp914
sS'pinupinc'
p915
(lp916
sS'eugefoet'
p917
(lp918
sS'chryicac'
p919
(lp920
sS'juglcali'
p921
(lp922
sS'alnurhom'
p923
(lp924
sS'salidisc'
p925
(lp926
g4
ag5
ag6
ag7
ag8
ag9
ag10
ag11
ag12
ag13
ag14
ag15
ag16
ag17
ag18
ag19
ag20
ag21
ag22
ag23
ag24
ag25
ag26
ag27
ag28
ag29
ag30
ag31
ag32
ag33
ag34
ag35
ag36
ag37
ag38
ag39
ag40
ag41
ag42
ag43
ag44
ag45
ag46
ag47
ag48
ag49
ag104
ag50
ag105
ag51
ag52
ag53
ag54
ag55
ag56
ag57
ag58
ag106
ag59
ag60
ag61
ag62
ag63
ag64
ag65
ag66
ag107
ag67
ag108
ag109
ag110
ag68
ag69
ag111
ag70
ag71
ag112
ag113
ag72
ag73
ag74
ag75
ag76
ag77
ag78
ag79
ag80
ag81
ag82
ag114
ag115
ag116
ag83
ag84
ag85
ag117
ag118
ag86
ag87
ag119
ag120
ag121
ag122
ag123
ag124
ag88
ag89
ag90
ag125
ag126
ag127
ag128
ag129
ag91
ag92
ag93
ag130
ag131
ag132
ag133
ag94
ag134
ag135
ag136
ag137
ag95
ag138
ag139
ag140
ag96
ag141
ag142
ag143
ag144
ag145
ag146
ag147
ag148
ag149
ag150
ag151
ag152
ag153
ag154
ag155
ag156
ag157
ag158
ag159
ag160
ag97
ag161
ag162
ag163
ag164
ag165
ag166
ag167
ag168
ag169
ag170
ag171
ag172
ag173
ag174
ag175
ag176
ag177
ag178
asS'querrubr'
p927
(lp928
g4
ag5
ag6
ag7
ag8
ag9
ag10
ag11
ag12
ag13
ag14
ag15
ag16
ag17
ag18
ag19
ag20
ag21
ag22
ag23
ag24
ag25
ag26
ag27
ag28
ag29
ag30
ag31
ag32
ag33
ag34
ag35
ag36
ag37
ag38
ag39
ag40
ag41
ag42
ag43
ag44
ag45
ag46
ag47
ag48
ag49
ag104
ag50
ag105
ag51
ag52
ag53
ag54
ag55
ag56
ag57
ag58
ag106
ag59
ag60
ag61
ag62
ag63
ag64
ag65
ag66
ag107
ag67
ag108
ag109
ag110
ag68
ag69
ag111
ag70
ag71
ag112
ag113
ag72
ag73
ag74
ag75
ag76
ag77
ag78
ag79
ag80
ag81
ag82
ag114
ag115
ag116
ag83
ag84
ag85
ag117
ag118
ag86
ag87
ag119
ag120
ag121
ag122
ag123
ag124
ag88
ag89
ag90
ag125
ag126
ag127
ag128
ag129
ag91
ag92
ag93
ag130
ag131
ag132
ag133
ag94
ag134
ag135
ag136
ag137
ag95
ag138
ag139
ag140
ag96
ag141
ag142
ag143
ag144
ag145
ag146
ag147
ag148
ag149
ag150
ag151
ag152
ag153
ag154
ag155
ag156
ag157
ag158
ag159
ag160
ag97
ag161
ag162
ag163
ag164
ag165
ag166
ag167
ag168
ag169
ag170
ag171
ag172
ag173
ag174
ag175
ag176
ag177
ag178
asS'querstel'
p929
(lp930
g142
ag145
ag148
ag149
ag150
ag151
ag160
ag161
ag162
ag165
ag166
ag167
ag168
ag169
ag170
ag171
ag172
ag173
ag174
ag175
ag176
ag177
ag178
asS'acerbarb'
p931
(lp932
sS'popuhete'
p933
(lp934
g65
ag107
ag67
ag68
ag112
ag113
ag74
ag78
ag81
ag114
ag86
ag119
ag121
ag122
ag88
ag89
ag90
ag126
ag127
ag128
ag129
ag91
ag93
ag131
ag94
ag134
ag135
ag95
ag139
ag96
ag144
ag146
ag147
ag148
ag150
ag161
ag165
asS'querdoug'
p935
(lp936
sS'pinupond'
p937
(lp938
sS'yuccmoha'
p939
(lp940
sS'pinuechi'
p941
(lp942
sS'bumelanu'
p943
(lp944
sS'eysetexa'
p945
(lp946
sS'nysssylv'
p947
(lp948
g4
ag5
ag6
ag7
ag8
ag9
ag10
ag11
ag12
ag13
ag14
ag15
ag16
ag17
ag18
ag19
ag20
ag21
ag22
ag23
ag24
ag25
ag26
ag27
ag28
ag29
ag30
ag31
ag32
ag33
ag34
ag35
ag36
ag37
ag38
ag39
ag40
ag41
ag42
ag43
ag44
ag45
ag46
ag47
ag48
ag49
ag104
ag50
ag105
ag51
ag52
ag53
ag54
ag55
ag56
ag57
ag58
ag106
ag59
ag60
ag61
ag62
ag63
ag64
ag65
ag66
ag107
ag67
ag108
ag109
ag110
ag68
ag69
ag111
ag70
ag71
ag112
ag113
ag72
ag73
ag74
ag75
ag76
ag77
ag78
ag79
ag80
ag81
ag82
ag114
ag115
ag116
ag83
ag84
ag85
ag117
ag118
ag86
ag87
ag119
ag120
ag121
ag122
ag123
ag124
ag88
ag89
ag90
ag125
ag126
ag127
ag128
ag129
ag91
ag92
ag93
ag130
ag131
ag132
ag133
ag94
ag134
ag135
ag136
ag137
ag95
ag138
ag139
ag140
ag96
ag141
ag142
ag143
ag144
ag145
ag146
ag147
ag148
ag149
ag150
ag151
ag152
ag153
ag154
ag155
ag156
ag157
ag158
ag159
ag160
ag97
ag161
ag162
ag163
ag164
ag165
ag166
ag167
ag168
ag169
ag170
ag171
ag172
ag173
ag174
ag175
ag176
ag177
ag178
asS'fraxgreg'
p949
(lp950
sS'aralspin'
p951
(lp952
sS'carycord'
p953
(lp954
g4
ag5
ag6
ag7
ag8
ag9
ag10
ag11
ag12
ag13
ag14
ag15
ag16
ag17
ag18
ag19
ag20
ag21
ag22
ag23
ag24
ag25
ag26
ag27
ag28
ag29
ag30
ag31
ag32
ag33
ag34
ag35
ag36
ag37
ag38
ag39
ag40
ag41
ag42
ag43
ag44
ag45
ag46
ag47
ag48
ag49
ag104
ag50
ag105
ag51
ag52
ag53
ag54
ag55
ag56
ag57
ag58
ag106
ag59
ag60
ag61
ag62
ag63
ag64
ag65
ag66
ag107
ag67
ag108
ag109
ag110
ag68
ag69
ag111
ag70
ag71
ag112
ag113
ag72
ag73
ag74
ag75
ag76
ag77
ag78
ag79
ag80
ag81
ag82
ag114
ag115
ag116
ag83
ag84
ag85
ag117
ag118
ag86
ag87
ag119
ag120
ag121
ag122
ag123
ag124
ag88
ag89
ag90
ag125
ag126
ag127
ag128
ag129
ag91
ag92
ag93
ag130
ag131
ag132
ag133
ag94
ag134
ag135
ag136
ag137
ag95
ag138
ag139
ag140
ag96
ag141
ag142
ag143
ag144
ag145
ag146
ag147
ag148
ag149
ag150
ag151
ag152
ag153
ag154
ag155
ag156
ag157
ag158
ag159
ag160
ag97
ag161
ag162
ag163
ag164
ag165
ag166
ag167
ag168
ag169
ag170
ag171
ag172
ag173
ag174
ag175
ag176
ag177
ag178
asS'cornocci'
p955
(lp956
sS'arctprin'
p957
(lp958
sS'querdura'
p959
(lp960
sS'querarka'
p961
(lp962
sS'cuprsarg'
p963
(lp964
sS'bacchali'
p965
(lp966
g148
ag150
ag151
ag161
ag165
ag166
ag167
ag168
ag169
ag170
ag171
ag172
ag173
ag174
ag175
ag176
ag177
ag178
asS'alnumari'
p967
(lp968
sS'salisess'
p969
(lp970
sS'pincpube'
p971
(lp972
sS'condhook'
p973
(lp974
sS'rhusovat'
p975
(lp976
sS'fraxgood'
p977
(lp978
sS'dryplate'
p979
(lp980
sS'ilexlaev'
p981
(lp982
g4
ag5
ag6
ag7
ag8
ag12
ag13
ag14
ag15
ag16
ag17
ag18
ag19
ag20
ag21
ag22
ag23
ag24
ag25
ag26
ag27
ag28
ag29
ag30
ag31
ag32
ag33
ag34
ag35
ag36
ag37
ag38
ag39
ag40
ag41
ag43
ag44
ag45
ag46
ag47
ag48
ag49
ag104
ag50
ag105
ag51
ag52
ag53
ag54
ag55
ag56
ag57
ag58
ag106
ag59
ag60
ag61
ag62
ag63
ag64
ag65
ag66
ag107
ag67
ag108
ag109
ag110
ag68
ag69
ag111
ag70
ag71
ag112
ag113
ag72
ag73
ag74
ag75
ag76
ag77
ag78
ag79
ag80
ag81
ag114
ag115
ag83
ag84
ag85
ag117
ag118
ag86
ag87
ag119
ag120
ag121
ag122
ag123
ag88
ag89
ag90
ag125
ag126
ag127
ag128
ag129
ag91
ag92
ag93
ag130
ag131
ag133
ag94
ag134
ag135
ag136
ag137
ag95
ag138
ag139
ag140
ag96
ag141
ag142
ag143
ag144
ag145
ag146
ag147
ag148
ag149
ag150
ag151
ag152
ag153
ag154
ag155
ag156
ag158
ag159
ag160
ag97
ag161
ag162
ag163
ag164
ag165
ag166
ag167
ag168
ag169
ag170
ag171
ag172
ag173
ag174
ag175
ag176
ag177
ag178
asS'rhodmaxi'
p983
(lp984
g4
ag6
ag8
ag9
ag10
ag11
ag12
ag21
ag23
ag24
ag27
ag42
ag43
ag48
ag49
ag104
ag105
ag52
ag54
ag58
ag59
ag60
ag65
ag66
ag107
ag67
ag109
ag110
ag68
ag69
ag70
ag71
ag73
ag74
ag76
ag77
ag78
ag79
ag81
ag82
ag116
ag83
ag84
ag117
ag118
ag86
ag87
ag121
ag123
ag124
ag88
ag89
ag90
ag125
ag127
ag128
ag129
ag91
ag92
ag93
ag130
ag132
ag133
ag94
ag134
ag135
ag136
ag137
ag95
ag138
ag140
ag96
ag141
ag142
ag143
ag144
ag145
ag149
ag152
ag154
ag155
ag156
ag159
ag160
ag97
ag162
ag164
asS'pinulaws'
p985
(lp986
sS'rhambetu'
p987
(lp988
sS'saliseri'
p989
(lp990
g4
ag5
ag6
ag7
ag8
ag9
ag10
ag11
ag12
ag13
ag14
ag15
ag16
ag17
ag18
ag19
ag20
ag21
ag22
ag23
ag24
ag25
ag26
ag27
ag28
ag29
ag30
ag31
ag32
ag33
ag34
ag35
ag36
ag37
ag38
ag39
ag40
ag41
ag42
ag43
ag44
ag45
ag46
ag47
ag48
ag49
ag104
ag50
ag105
ag51
ag52
ag53
ag54
ag55
ag56
ag57
ag58
ag106
ag59
ag60
ag61
ag62
ag63
ag64
ag65
ag66
ag107
ag67
ag108
ag109
ag110
ag68
ag69
ag111
ag70
ag71
ag112
ag113
ag72
ag73
ag74
ag75
ag76
ag77
ag78
ag79
ag80
ag81
ag82
ag114
ag115
ag116
ag83
ag84
ag85
ag117
ag118
ag86
ag87
ag119
ag120
ag121
ag122
ag123
ag124
ag88
ag89
ag90
ag125
ag126
ag127
ag128
ag129
ag91
ag92
ag93
ag130
ag131
ag132
ag133
ag94
ag134
ag135
ag136
ag137
ag95
ag138
ag139
ag140
ag96
ag141
ag142
ag143
ag144
ag145
ag146
ag147
ag148
ag149
ag150
ag151
ag152
ag153
ag154
ag155
ag156
ag157
ag158
ag159
ag160
ag97
ag161
ag162
ag163
ag164
ag165
ag166
ag167
ag168
ag169
ag170
ag171
ag172
ag173
ag174
ag175
ag176
ag177
ag178
asS'corycorn'
p991
(lp992
g4
ag5
ag6
ag7
ag8
ag9
ag10
ag11
ag12
ag13
ag14
ag15
ag16
ag17
ag18
ag19
ag20
ag21
ag22
ag23
ag24
ag25
ag26
ag27
ag28
ag29
ag30
ag31
ag32
ag33
ag34
ag35
ag36
ag37
ag38
ag39
ag40
ag41
ag42
ag43
ag44
ag45
ag46
ag47
ag48
ag49
ag104
ag50
ag105
ag51
ag52
ag53
ag54
ag55
ag56
ag57
ag58
ag106
ag59
ag60
ag61
ag62
ag63
ag64
ag65
ag66
ag107
ag67
ag108
ag109
ag110
ag68
ag69
ag111
ag70
ag71
ag112
ag113
ag72
ag73
ag74
ag75
ag76
ag77
ag78
ag79
ag80
ag81
ag82
ag114
ag115
ag116
ag83
ag84
ag85
ag117
ag118
ag86
ag87
ag119
ag120
ag121
ag122
ag123
ag124
ag88
ag89
ag90
ag125
ag126
ag127
ag128
ag129
ag91
ag92
ag93
ag130
ag131
ag132
ag133
ag94
ag134
ag135
ag136
ag137
ag95
ag138
ag139
ag140
ag96
ag141
ag142
ag143
ag144
ag145
ag146
ag147
ag148
ag149
ag150
ag151
ag152
ag153
ag154
ag155
ag156
ag157
ag158
ag159
ag160
ag97
ag161
ag162
ag163
ag164
ag165
ag166
ag167
ag168
ag169
ag170
ag171
ag172
ag173
ag174
ag175
ag176
ag177
ag178
asS'sequsemp'
p993
(lp994
sS'dalespin'
p995
(lp996
sS'aescglab'
p997
(lp998
sS'acacberl'
p999
(lp1000
sS'betupapy'
p1001
(lp1002
g4
ag7
ag8
ag9
ag10
ag11
ag12
ag13
ag14
ag15
ag16
ag17
ag18
ag19
ag20
ag21
ag22
ag23
ag24
ag27
ag28
ag29
ag30
ag34
ag37
ag41
ag49
ag52
ag53
ag55
ag59
ag60
ag65
ag67
ag68
ag73
ag76
ag79
ag81
ag83
ag86
ag87
ag123
ag88
ag89
ag90
ag91
ag93
ag94
ag95
ag140
ag142
ag149
ag153
ag155
ag158
ag97
ag162
ag163
ag164
ag166
ag167
ag176
asS'acerspic'
p1003
(lp1004
g4
ag5
ag6
ag8
ag9
ag10
ag11
ag12
ag13
ag14
ag15
ag16
ag17
ag21
ag22
ag23
ag24
ag27
ag29
ag30
ag34
ag36
ag37
ag38
ag39
ag41
ag42
ag43
ag44
ag46
ag48
ag49
ag52
ag53
ag54
ag55
ag57
ag58
ag59
ag60
ag61
ag64
ag65
ag107
ag67
ag68
ag69
ag70
ag112
ag113
ag73
ag74
ag75
ag76
ag77
ag78
ag79
ag81
ag82
ag114
ag116
ag83
ag84
ag117
ag86
ag87
ag123
ag124
ag88
ag89
ag90
ag129
ag91
ag92
ag93
ag132
ag94
ag95
ag143
ag157
ag163
asS'prunangu'
p1005
(lp1006
sS'picechih'
p1007
(lp1008
sS'sorbamer'
p1009
(lp1010
g4
ag5
ag6
ag8
ag9
ag10
ag11
ag12
ag13
ag14
ag15
ag16
ag17
ag21
ag22
ag23
ag24
ag27
ag29
ag30
ag42
ag43
ag48
ag52
ag53
ag54
ag55
ag57
ag58
ag59
ag60
ag61
ag75
ag77
ag82
ag116
ag84
ag119
ag122
ag88
ag135
ag139
ag96
ag146
ag148
asS'quergeor'
p1011
(lp1012
sS'stewovat'
p1013
(lp1014
sS'acacwrig'
p1015
(lp1016
sS'prunmyrt'
p1017
(lp1018
sS'larilari'
p1019
(lp1020
g4
ag5
ag6
ag8
ag9
ag10
ag11
ag12
ag13
ag14
ag15
ag16
ag17
ag21
ag22
ag23
ag24
ag27
ag29
ag30
ag34
ag36
ag37
ag38
ag39
ag41
ag42
ag43
ag44
ag48
ag49
ag52
ag53
ag54
ag55
ag57
ag58
ag59
ag60
ag61
ag64
ag65
ag67
ag68
ag69
ag70
ag73
ag74
ag75
ag76
ag77
ag78
ag79
ag81
ag82
ag116
ag83
ag84
ag117
ag86
ag87
ag123
ag124
ag90
ag91
ag92
ag132
ag143
ag153
ag155
ag157
ag163
ag167
ag169
ag171
ag174
ag178
asS'licatria'
p1021
(lp1022
sS'abielasi'
p1023
(lp1024
sS'oxydarbo'
p1025
(lp1026
sS'ilexambi'
p1027
(lp1028
sS'pinualbi'
p1029
(lp1030
sS'castchry'
p1031
(lp1032
sS'chamnoot'
p1033
(lp1034
sS'clifmono'
p1035
(lp1036
sS'magnmacr'
p1037
(lp1038
sS'ostrvirg'
p1039
(lp1040
g4
ag5
ag6
ag7
ag8
ag9
ag10
ag11
ag12
ag13
ag14
ag15
ag16
ag17
ag18
ag19
ag20
ag21
ag22
ag23
ag24
ag25
ag26
ag27
ag28
ag29
ag30
ag31
ag32
ag33
ag34
ag35
ag36
ag37
ag38
ag39
ag40
ag41
ag42
ag43
ag44
ag45
ag46
ag47
ag48
ag49
ag104
ag50
ag105
ag51
ag52
ag53
ag54
ag55
ag56
ag57
ag58
ag106
ag59
ag60
ag61
ag62
ag63
ag64
ag65
ag66
ag107
ag67
ag108
ag109
ag110
ag68
ag69
ag111
ag70
ag71
ag112
ag113
ag72
ag73
ag74
ag75
ag76
ag77
ag78
ag79
ag80
ag81
ag82
ag114
ag115
ag116
ag83
ag84
ag85
ag117
ag118
ag86
ag87
ag119
ag120
ag121
ag122
ag123
ag124
ag88
ag89
ag90
ag125
ag126
ag127
ag128
ag129
ag91
ag92
ag93
ag130
ag131
ag132
ag133
ag94
ag134
ag135
ag136
ag137
ag95
ag138
ag139
ag140
ag96
ag141
ag142
ag143
ag144
ag145
ag146
ag147
ag148
ag149
ag150
ag151
ag152
ag153
ag154
ag155
ag156
ag157
ag158
ag159
ag160
ag97
ag161
ag162
ag163
ag164
ag165
ag166
ag167
ag168
ag169
ag170
ag171
ag172
ag173
ag174
ag175
ag176
ag177
ag178
asS'cornsess'
p1041
(lp1042
sS'myriinod'
p1043
(lp1044
sS'cercledi'
p1045
(lp1046
sS'condglob'
p1047
(lp1048
sS'cuprguad'
p1049
(lp1050
sS'junivirg'
p1051
(lp1052
g4
ag5
ag6
ag7
ag8
ag9
ag10
ag11
ag12
ag13
ag14
ag15
ag16
ag17
ag18
ag19
ag20
ag21
ag22
ag23
ag24
ag25
ag26
ag27
ag28
ag29
ag30
ag31
ag32
ag33
ag34
ag35
ag36
ag37
ag38
ag39
ag40
ag41
ag42
ag43
ag44
ag45
ag46
ag47
ag48
ag49
ag104
ag50
ag105
ag51
ag52
ag53
ag54
ag55
ag56
ag57
ag58
ag106
ag59
ag60
ag61
ag62
ag63
ag64
ag65
ag66
ag107
ag67
ag108
ag109
ag110
ag68
ag69
ag111
ag70
ag71
ag112
ag113
ag72
ag73
ag74
ag75
ag76
ag77
ag78
ag79
ag80
ag81
ag82
ag114
ag115
ag116
ag83
ag84
ag85
ag117
ag118
ag86
ag87
ag119
ag120
ag121
ag122
ag123
ag124
ag88
ag89
ag90
ag125
ag126
ag127
ag128
ag129
ag91
ag92
ag93
ag130
ag131
ag132
ag133
ag94
ag134
ag135
ag136
ag137
ag95
ag138
ag139
ag140
ag96
ag141
ag142
ag143
ag144
ag145
ag146
ag147
ag148
ag149
ag150
ag151
ag152
ag153
ag154
ag155
ag156
ag157
ag158
ag159
ag160
ag97
ag161
ag162
ag163
ag164
ag165
ag166
ag167
ag168
ag169
ag170
ag171
ag172
ag173
ag174
ag175
ag176
ag177
ag178
asS'caesmexi'
p1053
(lp1054
sS'saliluci'
p1055
(lp1056
g4
ag5
ag6
ag7
ag8
ag9
ag10
ag11
ag12
ag13
ag14
ag15
ag16
ag17
ag18
ag19
ag20
ag21
ag22
ag23
ag24
ag25
ag26
ag27
ag28
ag29
ag30
ag31
ag32
ag33
ag34
ag35
ag36
ag37
ag38
ag39
ag40
ag41
ag42
ag43
ag44
ag45
ag46
ag47
ag48
ag49
ag104
ag50
ag105
ag51
ag52
ag53
ag54
ag55
ag56
ag57
ag58
ag106
ag59
ag60
ag61
ag62
ag63
ag64
ag65
ag66
ag107
ag67
ag108
ag109
ag110
ag68
ag69
ag111
ag70
ag71
ag112
ag113
ag72
ag73
ag74
ag75
ag76
ag77
ag78
ag79
ag80
ag81
ag82
ag114
ag115
ag116
ag83
ag84
ag85
ag117
ag118
ag86
ag87
ag119
ag120
ag121
ag122
ag123
ag124
ag88
ag89
ag90
ag125
ag126
ag127
ag128
ag129
ag91
ag92
ag93
ag130
ag131
ag132
ag133
ag94
ag134
ag135
ag136
ag137
ag95
ag138
ag139
ag140
ag96
ag141
ag142
ag143
ag144
ag145
ag146
ag147
ag148
ag149
ag150
ag151
ag152
ag153
ag154
ag155
ag156
ag157
ag158
ag159
ag160
ag97
ag161
ag162
ag163
ag164
ag165
ag166
ag167
ag168
ag169
ag170
ag171
ag172
ag173
ag174
ag175
ag176
ag177
ag178
asS'quertome'
p1057
(lp1058
sS'foreangu'
p1059
(lp1060
sS'sapisapo'
p1061
(lp1062
sS'rhuslanc'
p1063
(lp1064
sS'sabamexi'
p1065
(lp1066
sS'foresegr'
p1067
(lp1068
sS'piscpisc'
p1069
(lp1070
sS'pinuedul'
p1071
(lp1072
sS'hamepate'
p1073
(lp1074
sS'arbuariz'
p1075
(lp1076
sS'opunfulg'
p1077
(lp1078
sS'acacroem'
p1079
(lp1080
sS'pinulong'
p1081
(lp1082
sS'ilexamel'
p1083
(lp1084
sS'cuprgove'
p1085
(lp1086
sS'junieryt'
p1087
(lp1088
sS'ceanspin'
p1089
(lp1090
sS'acerpens'
p1091
(lp1092
g4
ag5
ag6
ag7
ag8
ag9
ag10
ag11
ag12
ag13
ag14
ag15
ag16
ag17
ag18
ag19
ag20
ag21
ag22
ag23
ag24
ag25
ag26
ag27
ag28
ag29
ag30
ag31
ag32
ag33
ag34
ag35
ag36
ag37
ag38
ag39
ag40
ag41
ag42
ag43
ag44
ag46
ag48
ag49
ag50
ag52
ag53
ag54
ag55
ag56
ag57
ag58
ag59
ag60
ag61
ag62
ag64
ag65
ag107
ag67
ag68
ag69
ag70
ag112
ag113
ag73
ag74
ag75
ag76
ag77
ag78
ag79
ag81
ag82
ag114
ag116
ag83
ag84
ag117
ag86
ag87
ag119
ag122
ag123
ag124
ag88
ag89
ag90
ag126
ag129
ag91
ag92
ag93
ag131
ag132
ag94
ag135
ag95
ag96
ag143
ag146
ag153
ag155
ag157
ag158
ag97
ag163
ag164
ag166
asS'salihind'
p1093
(lp1094
sS'taxodist'
p1095
(lp1096
sS'cithberl'
p1097
(lp1098
sS'cornglab'
p1099
(lp1100
sS'sheparge'
p1101
(lp1102
sS'salitrac'
p1103
(lp1104
sS'celtlaev'
p1105
(lp1106
sS'pinumich'
p1107
(lp1108
sS'sorbsitc'
p1109
(lp1110
sS'chilline'
p1111
(lp1112
sS'zantamer'
p1113
(lp1114
g4
ag6
ag8
ag9
ag21
ag26
ag31
ag33
ag34
ag35
ag36
ag37
ag38
ag39
ag40
ag41
ag42
ag43
ag44
ag46
ag48
ag49
ag50
ag54
ag56
ag62
ag63
ag64
ag65
ag107
ag67
ag108
ag68
ag69
ag111
ag70
ag112
ag113
ag72
ag73
ag74
ag75
ag76
ag77
ag78
ag79
ag80
ag81
ag82
ag114
ag115
ag116
ag83
ag84
ag86
ag88
ag89
ag128
ag129
ag91
ag93
ag94
ag168
ag169
ag170
ag171
ag172
ag178
asS'cappflex'
p1115
(lp1116
sS'rapapunc'
p1117
(lp1118
sS'ellirace'
p1119
(lp1120
sS'cordsebe'
p1121
(lp1122
sS'querchap'
p1123
(lp1124
sS'ulmucras'
p1125
(lp1126
sS'salitaxi'
p1127
(lp1128
sS'calyzuzy'
p1129
(lp1130
sS'querglau'
p1131
(lp1132
sS'pinucoul'
p1133
(lp1134
sS'pinupseu'
p1135
(lp1136
sS'caryovat'
p1137
(lp1138
g4
ag5
ag6
ag7
ag8
ag9
ag10
ag11
ag12
ag13
ag14
ag15
ag16
ag17
ag18
ag19
ag20
ag21
ag22
ag23
ag24
ag25
ag26
ag27
ag28
ag29
ag30
ag31
ag32
ag33
ag34
ag35
ag36
ag37
ag38
ag39
ag40
ag41
ag42
ag43
ag44
ag45
ag46
ag47
ag48
ag49
ag104
ag50
ag105
ag51
ag52
ag53
ag54
ag55
ag56
ag57
ag58
ag106
ag59
ag60
ag61
ag62
ag63
ag64
ag65
ag66
ag107
ag67
ag108
ag109
ag110
ag68
ag69
ag111
ag70
ag71
ag112
ag113
ag72
ag73
ag74
ag75
ag76
ag77
ag78
ag79
ag80
ag81
ag82
ag114
ag115
ag116
ag83
ag84
ag85
ag117
ag118
ag86
ag87
ag119
ag120
ag121
ag122
ag123
ag124
ag88
ag89
ag90
ag125
ag126
ag127
ag128
ag129
ag91
ag92
ag93
ag130
ag131
ag132
ag133
ag94
ag134
ag135
ag136
ag137
ag95
ag138
ag139
ag140
ag96
ag141
ag142
ag143
ag144
ag145
ag146
ag147
ag148
ag149
ag150
ag151
ag152
ag153
ag154
ag155
ag156
ag157
ag158
ag159
ag160
ag97
ag161
ag162
ag163
ag164
ag165
ag166
ag167
ag168
ag169
ag170
ag171
ag172
ag173
ag174
ag175
ag176
ag177
ag178
asS'taxuflor'
p1139
(lp1140
sS'styrgran'
p1141
(lp1142
sS'rhusmicr'
p1143
(lp1144
sS'quermich'
p1145
(lp1146
sS'acersacr'
p1147
(lp1148
g4
ag5
ag6
ag7
ag8
ag9
ag10
ag11
ag12
ag13
ag14
ag15
ag16
ag17
ag18
ag19
ag20
ag21
ag22
ag23
ag24
ag25
ag26
ag27
ag28
ag29
ag30
ag31
ag32
ag33
ag34
ag35
ag36
ag37
ag38
ag39
ag40
ag41
ag42
ag43
ag44
ag45
ag46
ag47
ag48
ag49
ag104
ag50
ag105
ag51
ag52
ag53
ag54
ag55
ag56
ag57
ag58
ag106
ag59
ag60
ag61
ag62
ag63
ag64
ag65
ag66
ag107
ag67
ag108
ag109
ag110
ag68
ag69
ag111
ag70
ag71
ag112
ag113
ag72
ag73
ag74
ag75
ag76
ag77
ag78
ag79
ag80
ag81
ag82
ag114
ag115
ag116
ag83
ag84
ag85
ag117
ag118
ag86
ag87
ag119
ag120
ag121
ag122
ag123
ag124
ag88
ag89
ag90
ag125
ag126
ag127
ag128
ag129
ag91
ag92
ag93
ag130
ag131
ag132
ag133
ag94
ag134
ag135
ag136
ag137
ag95
ag138
ag139
ag140
ag96
ag141
ag142
ag143
ag144
ag145
ag146
ag147
ag148
ag149
ag150
ag151
ag152
ag153
ag154
ag155
ag156
ag157
ag158
ag159
ag160
ag97
ag161
ag162
ag163
ag164
ag165
ag166
ag167
ag168
ag169
ag170
ag171
ag172
ag173
ag174
ag175
ag176
ag177
ag178
asS'pinuclau'
p1149
(lp1150
sS'pinubank'
p1151
(lp1152
sS'vibunudu'
p1153
(lp1154
g125
ag130
ag151
ag153
ag155
ag158
ag97
ag164
ag166
ag167
ag168
ag169
ag170
ag171
ag172
ag173
ag174
ag175
ag176
ag177
ag178
asS'fraxpapi'
p1155
(lp1156
sS'quertoum'
p1157
(lp1158
sS'pinumaxi'
p1159
(lp1160
sS'picerube'
p1161
(lp1162
g6
ag9
ag10
ag11
ag21
ag24
ag43
ag54
ag58
asS'popubals'
p1163
(lp1164
g54
asS'liqustyr'
p1165
(lp1166
g172
asS'querprin'
p1167
(lp1168
g4
ag5
ag7
ag8
ag12
ag13
ag14
ag15
ag16
ag17
ag18
ag19
ag20
ag22
ag23
ag25
ag26
ag27
ag28
ag29
ag30
ag31
ag32
ag33
ag34
ag35
ag36
ag37
ag38
ag39
ag40
ag41
ag42
ag44
ag45
ag46
ag47
ag49
ag104
ag50
ag105
ag51
ag52
ag53
ag55
ag56
ag57
ag106
ag59
ag60
ag61
ag62
ag63
ag64
ag65
ag66
ag107
ag67
ag108
ag109
ag110
ag68
ag69
ag111
ag70
ag71
ag112
ag113
ag72
ag73
ag74
ag75
ag76
ag77
ag78
ag79
ag80
ag81
ag82
ag114
ag115
ag116
ag83
ag84
ag85
ag117
ag118
ag86
ag87
ag119
ag120
ag121
ag122
ag123
ag124
ag88
ag89
ag90
ag125
ag126
ag127
ag128
ag129
ag91
ag92
ag93
ag130
ag131
ag132
ag133
ag94
ag134
ag135
ag136
ag137
ag95
ag138
ag139
ag140
ag96
ag141
ag142
ag143
ag144
ag145
ag146
ag147
ag148
ag149
ag150
ag151
ag152
ag153
ag154
ag155
ag156
ag157
ag158
ag159
ag160
ag97
ag161
ag162
ag163
ag164
ag165
ag166
ag167
ag168
ag169
ag170
ag171
ag172
ag173
ag174
ag175
ag176
ag177
ag178
asS'lysimicr'
p1169
(lp1170
sS'querfalc'
p1171
(lp1172
sS'viburufi'
p1173
(lp1174
sS'yuccfaxo'
p1175
(lp1176
sS'solaeria'
p1177
(lp1178
sS'geniclus'
p1179
(lp1180
sS'conoerec'
p1181
(lp1182
sS'fraxpenn'
p1183
(lp1184
g4
ag5
ag6
ag7
ag8
ag9
ag10
ag11
ag12
ag13
ag14
ag15
ag16
ag17
ag18
ag19
ag20
ag21
ag22
ag23
ag24
ag25
ag26
ag27
ag28
ag29
ag30
ag31
ag32
ag33
ag34
ag35
ag36
ag37
ag38
ag39
ag40
ag41
ag42
ag43
ag44
ag45
ag46
ag47
ag48
ag49
ag104
ag50
ag105
ag51
ag52
ag53
ag54
ag55
ag56
ag57
ag58
ag106
ag59
ag60
ag61
ag62
ag63
ag64
ag65
ag66
ag107
ag67
ag108
ag109
ag110
ag68
ag69
ag111
ag70
ag71
ag112
ag113
ag72
ag73
ag74
ag75
ag76
ag77
ag78
ag79
ag80
ag81
ag82
ag114
ag115
ag116
ag83
ag84
ag85
ag117
ag118
ag86
ag87
ag119
ag120
ag121
ag122
ag123
ag124
ag88
ag89
ag90
ag125
ag126
ag127
ag128
ag129
ag91
ag92
ag93
ag130
ag131
ag132
ag133
ag94
ag134
ag135
ag136
ag137
ag95
ag138
ag139
ag140
ag96
ag141
ag142
ag143
ag144
ag145
ag146
ag147
ag148
ag149
ag150
ag151
ag152
ag153
ag154
ag155
ag156
ag157
ag158
ag159
ag160
ag97
ag161
ag162
ag163
ag164
ag165
ag166
ag167
ag168
ag169
ag170
ag171
ag172
ag173
ag174
ag175
ag176
ag177
ag178
asS'celtocci'
p1185
(lp1186
g4
ag5
ag6
ag7
ag8
ag9
ag10
ag11
ag12
ag13
ag14
ag15
ag16
ag17
ag18
ag19
ag20
ag21
ag22
ag23
ag24
ag25
ag26
ag27
ag28
ag29
ag30
ag31
ag32
ag33
ag34
ag35
ag36
ag37
ag38
ag39
ag40
ag41
ag42
ag43
ag44
ag45
ag46
ag47
ag48
ag49
ag104
ag50
ag105
ag51
ag52
ag53
ag54
ag55
ag56
ag57
ag58
ag106
ag59
ag60
ag61
ag62
ag63
ag64
ag65
ag66
ag107
ag67
ag108
ag109
ag110
ag68
ag69
ag111
ag70
ag71
ag112
ag113
ag72
ag73
ag74
ag75
ag76
ag77
ag78
ag79
ag80
ag81
ag82
ag114
ag115
ag116
ag83
ag84
ag85
ag117
ag118
ag86
ag87
ag119
ag120
ag121
ag122
ag123
ag124
ag88
ag89
ag90
ag125
ag126
ag127
ag128
ag129
ag91
ag92
ag93
ag130
ag131
ag132
ag133
ag94
ag134
ag135
ag136
ag137
ag95
ag138
ag139
ag140
ag96
ag141
ag142
ag143
ag144
ag145
ag146
ag147
ag148
ag149
ag150
ag151
ag152
ag153
ag154
ag155
ag156
ag157
ag158
ag159
ag160
ag97
ag161
ag162
ag163
ag164
ag165
ag166
ag167
ag168
ag169
ag170
ag171
ag172
ag173
ag174
ag175
ag176
ag177
ag178
asS'salinigr'
p1187
(lp1188
g4
ag5
ag6
ag7
ag8
ag9
ag10
ag11
ag12
ag13
ag14
ag15
ag16
ag17
ag18
ag19
ag20
ag21
ag22
ag23
ag24
ag25
ag26
ag27
ag28
ag29
ag30
ag31
ag32
ag33
ag34
ag35
ag36
ag37
ag38
ag39
ag40
ag41
ag42
ag43
ag44
ag45
ag46
ag47
ag48
ag49
ag104
ag50
ag105
ag51
ag52
ag53
ag54
ag55
ag56
ag57
ag58
ag106
ag59
ag60
ag61
ag62
ag63
ag64
ag65
ag66
ag107
ag67
ag108
ag109
ag110
ag68
ag69
ag111
ag70
ag71
ag112
ag113
ag72
ag73
ag74
ag75
ag76
ag77
ag78
ag79
ag80
ag81
ag82
ag114
ag115
ag116
ag83
ag84
ag85
ag117
ag118
ag86
ag87
ag119
ag120
ag121
ag122
ag123
ag124
ag88
ag89
ag90
ag125
ag126
ag127
ag128
ag129
ag91
ag92
ag93
ag130
ag131
ag132
ag133
ag94
ag134
ag135
ag136
ag137
ag95
ag138
ag139
ag140
ag96
ag141
ag142
ag143
ag144
ag145
ag146
ag147
ag148
ag149
ag150
ag151
ag152
ag153
ag154
ag155
ag156
ag157
ag158
ag159
ag160
ag97
ag161
ag162
ag163
ag164
ag165
ag166
ag167
ag168
ag169
ag170
ag171
ag172
ag173
ag174
ag175
ag176
ag177
ag178
asS'robivisc'
p1189
(lp1190
sS'rhamcroc'
p1191
(lp1192
sS'avicgerm'
p1193
(lp1194
sS'prospube'
p1195
(lp1196
sS'koebspin'
p1197
(lp1198
sS'cererobi'
p1199
(lp1200
sS'psidlong'
p1201
(lp1202
sS'junisili'
p1203
(lp1204
sS'junioste'
p1205
(lp1206
sS'surimari'
p1207
(lp1208
sS'bumecela'
p1209
(lp1210
sS'querhypo'
p1211
(lp1212
sS'pithflex'
p1213
(lp1214
sS'quernutt'
p1215
(lp1216
sS'thrimorr'
p1217
(lp1218
sS'yuccelat'
p1219
(lp1220
sS'sambcana'
p1221
(lp1222
g4
ag5
ag6
ag7
ag8
ag9
ag10
ag11
ag12
ag13
ag14
ag15
ag16
ag17
ag18
ag19
ag20
ag21
ag22
ag23
ag24
ag25
ag26
ag27
ag28
ag29
ag30
ag31
ag32
ag33
ag34
ag35
ag36
ag37
ag38
ag39
ag40
ag41
ag42
ag43
ag44
ag45
ag46
ag47
ag48
ag49
ag104
ag50
ag105
ag51
ag52
ag53
ag54
ag55
ag56
ag57
ag58
ag106
ag59
ag60
ag61
ag62
ag63
ag64
ag65
ag66
ag107
ag67
ag108
ag109
ag110
ag68
ag69
ag111
ag70
ag71
ag112
ag113
ag72
ag73
ag74
ag75
ag76
ag77
ag78
ag79
ag80
ag81
ag82
ag114
ag115
ag116
ag83
ag84
ag85
ag117
ag118
ag86
ag87
ag119
ag120
ag121
ag122
ag123
ag124
ag88
ag89
ag90
ag125
ag126
ag127
ag128
ag129
ag91
ag92
ag93
ag130
ag131
ag132
ag133
ag94
ag134
ag135
ag136
ag137
ag95
ag138
ag139
ag140
ag96
ag141
ag142
ag143
ag144
ag145
ag146
ag147
ag148
ag149
ag150
ag151
ag152
ag153
ag154
ag155
ag156
ag157
ag158
ag159
ag160
ag97
ag161
ag162
ag163
ag164
ag165
ag166
ag167
ag168
ag169
ag170
ag171
ag172
ag173
ag174
ag175
ag176
ag177
ag178
asS'pisorotu'
p1223
(lp1224
sS'picrpent'
p1225
(lp1226
sS'cerctras'
p1227
(lp1228
sS'ulmuthom'
p1229
(lp1230
sS'coluarbo'
p1231
(lp1232
sS'agavutah'
p1233
(lp1234
sS'ostrchis'
p1235
(lp1236
sS'prunsero'
p1237
(lp1238
g4
ag5
ag6
ag7
ag8
ag9
ag10
ag11
ag12
ag13
ag14
ag15
ag16
ag17
ag18
ag19
ag20
ag21
ag22
ag23
ag24
ag25
ag26
ag27
ag28
ag29
ag30
ag31
ag32
ag33
ag34
ag35
ag36
ag37
ag38
ag39
ag40
ag41
ag42
ag43
ag44
ag45
ag46
ag47
ag48
ag49
ag104
ag50
ag105
ag51
ag52
ag53
ag54
ag55
ag56
ag57
ag58
ag106
ag59
ag60
ag61
ag62
ag63
ag64
ag65
ag66
ag107
ag67
ag108
ag109
ag110
ag68
ag69
ag111
ag70
ag71
ag112
ag113
ag72
ag73
ag74
ag75
ag76
ag77
ag78
ag79
ag80
ag81
ag82
ag114
ag115
ag116
ag83
ag84
ag85
ag117
ag118
ag86
ag87
ag119
ag120
ag121
ag122
ag123
ag124
ag88
ag89
ag90
ag125
ag126
ag127
ag128
ag129
ag91
ag92
ag93
ag130
ag131
ag132
ag133
ag94
ag134
ag135
ag136
ag137
ag95
ag138
ag139
ag140
ag96
ag141
ag142
ag143
ag144
ag145
ag146
ag147
ag148
ag149
ag150
ag151
ag152
ag153
ag154
ag155
ag156
ag157
ag158
ag159
ag160
ag97
ag161
ag162
ag163
ag164
ag165
ag166
ag167
ag168
ag169
ag170
ag171
ag172
ag173
ag174
ag175
ag176
ag177
ag178
asS'pinutaed'
p1239
(lp1240
sS'rhodcata'
p1241
(lp1242
sS'sambmela'
p1243
(lp1244
sS'rhamcali'
p1245
(lp1246
sS'yucctorr'
p1247
(lp1248
sS'saliflor'
p1249
(lp1250
sS'querkell'
p1251
(lp1252
sS'tiliamer'
p1253
(lp1254
g4
ag5
ag6
ag7
ag8
ag9
ag10
ag11
ag12
ag13
ag14
ag15
ag16
ag17
ag18
ag19
ag20
ag21
ag22
ag23
ag24
ag25
ag26
ag27
ag28
ag29
ag30
ag31
ag32
ag33
ag34
ag35
ag36
ag37
ag38
ag39
ag40
ag41
ag42
ag43
ag44
ag45
ag46
ag47
ag48
ag49
ag104
ag50
ag105
ag51
ag52
ag53
ag54
ag55
ag56
ag57
ag58
ag106
ag59
ag60
ag61
ag62
ag63
ag64
ag65
ag66
ag107
ag67
ag108
ag109
ag110
ag68
ag69
ag111
ag70
ag71
ag112
ag113
ag72
ag73
ag74
ag75
ag76
ag77
ag78
ag79
ag80
ag81
ag82
ag114
ag115
ag116
ag83
ag84
ag85
ag117
ag118
ag86
ag87
ag119
ag120
ag121
ag122
ag123
ag124
ag88
ag89
ag90
ag125
ag126
ag127
ag128
ag129
ag91
ag92
ag93
ag130
ag131
ag132
ag133
ag94
ag134
ag135
ag136
ag137
ag95
ag138
ag139
ag140
ag96
ag141
ag142
ag143
ag144
ag145
ag146
ag147
ag148
ag149
ag150
ag151
ag152
ag153
ag154
ag155
ag156
ag157
ag158
ag159
ag160
ag97
ag161
ag162
ag163
ag164
ag165
ag166
ag167
ag168
ag169
ag170
ag171
ag172
ag173
ag174
ag175
ag176
ag177
ag178
asS'bumelyci'
p1255
(lp1256
sS'juglhind'
p1257
(lp1258
sS'celtreti'
p1259
(lp1260
sS'magnacum'
p1261
(lp1262
sS'pinulumh'
p1263
(lp1264
sS'leitflor'
p1265
(lp1266
sS'acacgreg'
p1267
(lp1268
sS'acacfarn'
p1269
(lp1270
sS'pinumtez'
p1271
(lp1272
sS'pinurigi'
p1273
(lp1274
g5
ag6
ag7
ag11
ag12
ag13
ag14
ag15
ag16
ag17
ag18
ag19
ag20
ag22
ag23
ag24
ag25
ag26
ag27
ag28
ag29
ag30
ag31
ag32
ag33
ag34
ag35
ag36
ag37
ag38
ag39
ag40
ag41
ag42
ag43
ag44
ag45
ag46
ag47
ag48
ag49
ag104
ag50
ag105
ag51
ag52
ag53
ag54
ag55
ag56
ag57
ag58
ag106
ag59
ag60
ag61
ag62
ag63
ag64
ag65
ag66
ag107
ag67
ag108
ag109
ag110
ag68
ag69
ag111
ag70
ag71
ag112
ag113
ag72
ag73
ag74
ag75
ag76
ag77
ag78
ag79
ag80
ag81
ag82
ag114
ag115
ag116
ag83
ag84
ag85
ag117
ag118
ag86
ag87
ag119
ag120
ag121
ag122
ag123
ag124
ag88
ag89
ag90
ag125
ag126
ag127
ag128
ag129
ag91
ag92
ag93
ag130
ag131
ag132
ag133
ag94
ag134
ag135
ag136
ag137
ag95
ag138
ag139
ag140
ag96
ag141
ag142
ag143
ag144
ag145
ag146
ag147
ag148
ag149
ag150
ag151
ag152
ag153
ag154
ag155
ag156
ag157
ag158
ag159
ag160
ag97
ag161
ag162
ag163
ag164
ag165
ag166
ag167
ag168
ag169
ag170
ag171
ag172
ag173
ag174
ag175
ag176
ag177
ag178
asS'reynsept'
p1275
(lp1276
sS'hypetrif'
p1277
(lp1278
sS'chamlaws'
p1279
(lp1280
sS'guetelli'
p1281
(lp1282
sS'quercocc'
p1283
(lp1284
g4
ag5
ag6
ag7
ag8
ag9
ag10
ag11
ag12
ag13
ag14
ag15
ag16
ag17
ag18
ag19
ag20
ag21
ag22
ag23
ag24
ag25
ag26
ag27
ag28
ag29
ag30
ag31
ag32
ag33
ag34
ag35
ag36
ag37
ag38
ag39
ag40
ag41
ag42
ag43
ag44
ag45
ag46
ag47
ag48
ag49
ag104
ag50
ag105
ag51
ag52
ag53
ag54
ag55
ag56
ag57
ag58
ag106
ag59
ag60
ag61
ag62
ag63
ag64
ag65
ag66
ag107
ag67
ag108
ag109
ag110
ag68
ag69
ag111
ag70
ag71
ag112
ag113
ag72
ag73
ag74
ag75
ag76
ag77
ag78
ag79
ag80
ag81
ag82
ag114
ag115
ag116
ag83
ag84
ag85
ag117
ag118
ag86
ag87
ag119
ag120
ag121
ag122
ag123
ag124
ag88
ag89
ag90
ag125
ag126
ag127
ag128
ag129
ag91
ag92
ag93
ag130
ag131
ag132
ag133
ag94
ag134
ag135
ag136
ag137
ag95
ag138
ag139
ag140
ag96
ag141
ag142
ag143
ag144
ag145
ag146
ag147
ag148
ag149
ag150
ag151
ag152
ag153
ag154
ag155
ag156
ag157
ag158
ag159
ag160
ag97
ag161
ag162
ag163
ag164
ag165
ag166
ag167
ag168
ag169
ag170
ag171
ag172
ag173
ag174
ag175
ag176
ag177
ag178
asS'pseusarg'
p1285
(lp1286
sS'salibonp'
p1287
(lp1288
sS'querhava'
p1289
(lp1290
sS'querbico'
p1291
(lp1292
g5
ag7
ag13
ag14
ag15
ag16
ag17
ag18
ag19
ag20
ag22
ag25
ag26
ag27
ag28
ag29
ag30
ag31
ag32
ag33
ag34
ag35
ag36
ag38
ag39
ag40
ag44
ag45
ag46
ag47
ag49
ag104
ag50
ag105
ag51
ag52
ag55
ag56
ag57
ag106
ag60
ag61
ag62
ag63
ag64
ag65
ag66
ag107
ag67
ag108
ag109
ag110
ag68
ag111
ag71
ag112
ag113
ag72
ag73
ag74
ag78
ag80
ag81
ag114
ag115
ag85
ag118
ag86
ag87
ag119
ag120
ag121
ag122
ag123
ag88
ag89
ag90
ag125
ag126
ag127
ag128
ag129
ag91
ag93
ag130
ag131
ag133
ag94
ag134
ag135
ag136
ag137
ag95
ag138
ag139
ag140
ag96
ag141
ag142
ag144
ag145
ag146
ag147
ag148
ag149
ag150
ag151
ag152
ag153
ag154
ag155
ag156
ag158
ag159
ag160
ag97
ag161
ag162
ag163
ag164
ag165
ag166
ag167
ag168
ag169
ag170
ag171
ag172
ag173
ag174
ag175
ag176
ag177
ag178
asS'myripens'
p1293
(lp1294
g5
ag7
ag12
ag13
ag14
ag18
ag19
ag20
ag22
ag23
ag25
ag26
ag27
ag28
ag29
ag30
ag31
ag32
ag33
ag34
ag35
ag36
ag37
ag38
ag39
ag40
ag41
ag44
ag45
ag46
ag47
ag49
ag104
ag50
ag105
ag51
ag52
ag53
ag55
ag56
ag57
ag106
ag59
ag60
ag61
ag62
ag63
ag64
ag65
ag66
ag107
ag67
ag108
ag109
ag110
ag68
ag69
ag111
ag70
ag71
ag112
ag113
ag72
ag73
ag74
ag76
ag77
ag78
ag79
ag80
ag81
ag82
ag114
ag115
ag116
ag83
ag84
ag85
ag117
ag118
ag86
ag87
ag119
ag120
ag121
ag122
ag123
ag124
ag88
ag89
ag90
ag125
ag126
ag127
ag128
ag129
ag91
ag92
ag93
ag130
ag131
ag132
ag133
ag94
ag134
ag135
ag136
ag137
ag95
ag138
ag139
ag140
ag96
ag141
ag142
ag143
ag144
ag145
ag146
ag147
ag148
ag149
ag150
ag151
ag152
ag153
ag154
ag155
ag156
ag157
ag158
ag159
ag160
ag97
ag161
ag162
ag163
ag164
ag165
ag166
ag167
ag168
ag169
ag170
ag171
ag172
ag173
ag174
ag175
ag176
ag177
ag178
asS'foreacum'
p1295
(lp1296
sS'fagugran'
p1297
(lp1298
g4
ag5
ag6
ag7
ag8
ag9
ag10
ag11
ag12
ag13
ag14
ag15
ag16
ag17
ag18
ag19
ag20
ag21
ag22
ag23
ag24
ag25
ag26
ag27
ag28
ag29
ag30
ag31
ag32
ag33
ag34
ag35
ag36
ag37
ag38
ag39
ag40
ag41
ag42
ag43
ag44
ag45
ag46
ag47
ag48
ag49
ag104
ag50
ag105
ag51
ag52
ag53
ag54
ag55
ag56
ag57
ag58
ag106
ag59
ag60
ag61
ag62
ag63
ag64
ag65
ag66
ag107
ag67
ag108
ag109
ag110
ag68
ag69
ag111
ag70
ag71
ag112
ag113
ag72
ag73
ag74
ag75
ag76
ag77
ag78
ag79
ag80
ag81
ag82
ag114
ag115
ag116
ag83
ag84
ag85
ag117
ag118
ag86
ag87
ag119
ag120
ag121
ag122
ag123
ag124
ag88
ag89
ag90
ag125
ag126
ag127
ag128
ag129
ag91
ag92
ag93
ag130
ag131
ag132
ag133
ag94
ag134
ag135
ag136
ag137
ag95
ag138
ag139
ag140
ag96
ag141
ag142
ag143
ag144
ag145
ag146
ag147
ag148
ag149
ag150
ag151
ag152
ag153
ag154
ag155
ag156
ag157
ag158
ag159
ag160
ag97
ag161
ag162
ag163
ag164
ag165
ag166
ag167
ag168
ag169
ag170
ag171
ag172
ag173
ag174
ag175
ag176
ag177
ag178
asS'amyrelem'
p1299
(lp1300
sS'asimparv'
p1301
(lp1302
sS'magntrip'
p1303
(lp1304
sS'pinuenge'
p1305
(lp1306
sS'fraxquad'
p1307
(lp1308
sS'querajoe'
p1309
(lp1310
sS'cornflor'
p1311
(lp1312
g4
ag5
ag6
ag7
ag8
ag9
ag10
ag11
ag12
ag13
ag14
ag15
ag16
ag17
ag18
ag19
ag20
ag21
ag22
ag23
ag24
ag25
ag26
ag27
ag28
ag29
ag30
ag31
ag32
ag33
ag34
ag35
ag36
ag37
ag38
ag39
ag40
ag41
ag42
ag43
ag44
ag45
ag46
ag47
ag48
ag49
ag104
ag50
ag105
ag51
ag52
ag53
ag54
ag55
ag56
ag57
ag58
ag106
ag59
ag60
ag61
ag62
ag63
ag64
ag65
ag66
ag107
ag67
ag108
ag109
ag110
ag68
ag69
ag111
ag70
ag71
ag112
ag113
ag72
ag73
ag74
ag75
ag76
ag77
ag78
ag79
ag80
ag81
ag82
ag114
ag115
ag116
ag83
ag84
ag85
ag117
ag118
ag86
ag87
ag119
ag120
ag121
ag122
ag123
ag124
ag88
ag89
ag90
ag125
ag126
ag127
ag128
ag129
ag91
ag92
ag93
ag130
ag131
ag132
ag133
ag94
ag134
ag135
ag136
ag137
ag95
ag138
ag139
ag140
ag96
ag141
ag142
ag143
ag144
ag145
ag146
ag147
ag148
ag149
ag150
ag151
ag152
ag153
ag154
ag155
ag156
ag157
ag158
ag159
ag160
ag97
ag161
ag162
ag163
ag164
ag165
ag166
ag167
ag168
ag169
ag170
ag171
ag172
ag173
ag174
ag175
ag176
ag177
ag178
asS'cercmacr'
p1313
(lp1314
sS'acactort'
p1315
(lp1316
sS'guetscab'
p1317
(lp1318
sS'queremor'
p1319
(lp1320
sS'cratcolu'
p1321
(lp1322
sS'stapbola'
p1323
(lp1324
sS'diphsali'
p1325
(lp1326
sS'platocci'
p1327
(lp1328
g4
ag5
ag6
ag7
ag8
ag9
ag10
ag11
ag12
ag13
ag14
ag15
ag16
ag17
ag18
ag19
ag20
ag21
ag22
ag23
ag24
ag25
ag26
ag27
ag28
ag29
ag30
ag31
ag32
ag33
ag34
ag35
ag36
ag37
ag38
ag39
ag40
ag41
ag42
ag43
ag44
ag45
ag46
ag47
ag48
ag49
ag104
ag50
ag105
ag51
ag52
ag53
ag54
ag55
ag56
ag57
ag58
ag106
ag59
ag60
ag61
ag62
ag63
ag64
ag65
ag66
ag107
ag67
ag108
ag109
ag110
ag68
ag69
ag111
ag70
ag71
ag112
ag113
ag72
ag73
ag74
ag75
ag76
ag77
ag78
ag79
ag80
ag81
ag82
ag114
ag115
ag116
ag83
ag84
ag85
ag117
ag118
ag86
ag87
ag119
ag120
ag121
ag122
ag123
ag124
ag88
ag89
ag90
ag125
ag126
ag127
ag128
ag129
ag91
ag92
ag93
ag130
ag131
ag132
ag133
ag94
ag134
ag135
ag136
ag137
ag95
ag138
ag139
ag140
ag96
ag141
ag142
ag143
ag144
ag145
ag146
ag147
ag148
ag149
ag150
ag151
ag152
ag153
ag154
ag155
ag156
ag157
ag158
ag159
ag160
ag97
ag161
ag162
ag163
ag164
ag165
ag166
ag167
ag168
ag169
ag170
ag171
ag172
ag173
ag174
ag175
ag176
ag177
ag178
asS'pseumacr'
p1329
(lp1330
sS'quermacr'
p1331
(lp1332
g4
ag6
ag8
ag9
ag10
ag21
ag54
asS'querlyra'
p1333
(lp1334
sS'zantfaga'
p1335
(lp1336
sS'sererepe'
p1337
(lp1338
sS'querlaev'
p1339
(lp1340
sS'pinulamb'
p1341
(lp1342
sS'crosrhac'
p1343
(lp1344
sS'querelli'
p1345
(lp1346
sS'vauqcali'
p1347
(lp1348
sS'sorbdeco'
p1349
(lp1350
g21
asS'pinuleio'
p1351
(lp1352
sS'fremcali'
p1353
(lp1354
sS'taxubrev'
p1355
(lp1356
sS'asimtril'
p1357
(lp1358
sS'ceanthyr'
p1359
(lp1360
sS'querrugo'
p1361
(lp1362
sS'cappcyno'
p1363
(lp1364
sS'bourradu'
p1365
(lp1366
sS'popufrem'
p1367
(lp1368
sS'junidepp'
p1369
(lp1370
sS'hippmanc'
p1371
(lp1372
sS'gymndioi'
p1373
(lp1374
sS'sophsecu'
p1375
(lp1376
sS'olneteso'
p1377
(lp1378
sS'styramer'
p1379
(lp1380
sS'chryoliv'
p1381
(lp1382
sS'holaemor'
p1383
(lp1384
sS'leucpulv'
p1385
(lp1386
sS'querenge'
p1387
(lp1388
sS'vauqpauc'
p1389
(lp1390
sS'pinustro'
p1391
(lp1392
sS'umbecali'
p1393
(lp1394
sS'querpalu'
p1395
(lp1396
g5
ag14
ag22
ag29
ag38
ag39
ag44
ag46
ag57
ag64
ag112
ag113
ag74
ag78
ag114
ag120
ag122
ag126
ag131
ag136
ag137
ag139
ag141
ag144
ag147
ag148
ag150
ag151
ag152
ag153
ag154
ag158
ag160
ag161
ag163
ag164
ag165
ag166
ag167
ag168
ag169
ag170
ag171
ag172
ag173
ag174
ag175
ag176
ag177
ag178
asS'manibaha'
p1397
(lp1398
sS'popugran'
p1399
(lp1400
g4
ag5
ag6
ag7
ag8
ag9
ag10
ag11
ag12
ag13
ag14
ag15
ag16
ag17
ag18
ag19
ag20
ag21
ag22
ag23
ag24
ag25
ag26
ag27
ag28
ag29
ag30
ag31
ag32
ag33
ag34
ag35
ag36
ag37
ag38
ag39
ag40
ag41
ag42
ag43
ag44
ag45
ag46
ag47
ag48
ag49
ag104
ag50
ag105
ag51
ag52
ag53
ag54
ag55
ag56
ag57
ag58
ag106
ag59
ag60
ag61
ag62
ag63
ag64
ag65
ag66
ag107
ag67
ag108
ag109
ag110
ag68
ag69
ag111
ag70
ag71
ag112
ag113
ag72
ag73
ag74
ag75
ag76
ag77
ag78
ag79
ag80
ag81
ag82
ag114
ag115
ag116
ag83
ag84
ag85
ag117
ag118
ag86
ag87
ag119
ag120
ag121
ag122
ag123
ag124
ag88
ag89
ag90
ag125
ag126
ag127
ag128
ag129
ag91
ag92
ag93
ag130
ag131
ag132
ag133
ag94
ag134
ag135
ag136
ag137
ag95
ag138
ag139
ag140
ag96
ag141
ag142
ag143
ag144
ag145
ag146
ag147
ag148
ag149
ag150
ag151
ag152
ag153
ag154
ag155
ag156
ag157
ag158
ag159
ag160
ag97
ag161
ag162
ag163
ag164
ag165
ag166
ag167
ag168
ag169
ag170
ag171
ag172
ag173
ag174
ag175
ag176
ag177
ag178
asS'lysilati'
p1401
(lp1402
sS'halecaro'
p1403
(lp1404
sS'ptelcren'
p1405
(lp1406
sS'libodecu'
p1407
(lp1408
sS'arbutexa'
p1409
(lp1410
sS'acernigr'
p1411
(lp1412
g8
ag9
ag10
ag21
asS'popuangu'
p1413
(lp1414
sS'quermohr'
p1415
(lp1416
sS'salihook'
p1417
(lp1418
sS'savibaha'
p1419
(lp1420
sS'sapibilo'
p1421
(lp1422
sS'pinutrop'
p1423
(lp1424
sS'pinuquad'
p1425
(lp1426
sS'yuccbrev'
p1427
(lp1428
sS'chiovirg'
p1429
(lp1430
sS'salipell'
p1431
(lp1432
sS'sambglau'
p1433
(lp1434
sS'acoewrig'
p1435
(lp1436
sS'schafrut'
p1437
(lp1438
sS'pithungu'
p1439
(lp1440
sS'royselat'
p1441
(lp1442
sS'robineom'
p1443
(lp1444
sS'acerrubr'
p1445
(lp1446
g4
ag5
ag6
ag7
ag8
ag9
ag10
ag11
ag12
ag13
ag14
ag15
ag16
ag17
ag18
ag19
ag20
ag21
ag22
ag23
ag24
ag25
ag26
ag27
ag28
ag29
ag30
ag31
ag32
ag33
ag34
ag35
ag36
ag37
ag38
ag39
ag40
ag41
ag42
ag43
ag44
ag45
ag46
ag47
ag48
ag49
ag104
ag50
ag105
ag51
ag52
ag53
ag54
ag55
ag56
ag57
ag58
ag106
ag59
ag60
ag61
ag62
ag63
ag64
ag65
ag66
ag107
ag67
ag108
ag109
ag110
ag68
ag69
ag111
ag70
ag71
ag112
ag113
ag72
ag73
ag74
ag75
ag76
ag77
ag78
ag79
ag80
ag81
ag82
ag114
ag115
ag116
ag83
ag84
ag85
ag117
ag118
ag86
ag87
ag119
ag120
ag121
ag122
ag123
ag124
ag88
ag89
ag90
ag125
ag126
ag127
ag128
ag129
ag91
ag92
ag93
ag130
ag131
ag132
ag133
ag94
ag134
ag135
ag136
ag137
ag95
ag138
ag139
ag140
ag96
ag141
ag142
ag143
ag144
ag145
ag146
ag147
ag148
ag149
ag150
ag151
ag152
ag153
ag154
ag155
ag156
ag157
ag158
ag159
ag160
ag97
ag161
ag162
ag163
ag164
ag165
ag166
ag167
ag168
ag169
ag170
ag171
ag172
ag173
ag174
ag175
ag176
ag177
ag178
asS'saliamyg'
p1447
(lp1448
sS'sambvelu'
p1449
(lp1450
sS'cerccana'
p1451
(lp1452
sS'colucube'
p1453
(lp1454
sS'vaccarbo'
p1455
(lp1456
sS'larilyal'
p1457
(lp1458
sS'amelsang'
p1459
(lp1460
g8
ag9
ag10
ag21
asS'ilexdeci'
p1461
(lp1462
sS'cercflor'
p1463
(lp1464
sS'quervirg'
p1465
(lp1466
sS'quermari'
p1467
(lp1468
sS'caryglab'
p1469
(lp1470
g4
ag5
ag6
ag7
ag8
ag9
ag10
ag11
ag12
ag13
ag14
ag15
ag16
ag17
ag18
ag19
ag20
ag21
ag22
ag23
ag24
ag25
ag26
ag27
ag28
ag29
ag30
ag31
ag32
ag33
ag34
ag35
ag36
ag37
ag38
ag39
ag40
ag41
ag42
ag43
ag44
ag45
ag46
ag47
ag48
ag49
ag104
ag50
ag105
ag51
ag52
ag53
ag54
ag55
ag56
ag57
ag58
ag106
ag59
ag60
ag61
ag62
ag63
ag64
ag65
ag66
ag107
ag67
ag108
ag109
ag110
ag68
ag69
ag111
ag70
ag71
ag112
ag113
ag72
ag73
ag74
ag75
ag76
ag77
ag78
ag79
ag80
ag81
ag82
ag114
ag115
ag116
ag83
ag84
ag85
ag117
ag118
ag86
ag87
ag119
ag120
ag121
ag122
ag123
ag124
ag88
ag89
ag90
ag125
ag126
ag127
ag128
ag129
ag91
ag92
ag93
ag130
ag131
ag132
ag133
ag94
ag134
ag135
ag136
ag137
ag95
ag138
ag139
ag140
ag96
ag141
ag142
ag143
ag144
ag145
ag146
ag147
ag148
ag149
ag150
ag151
ag152
ag153
ag154
ag155
ag156
ag157
ag158
ag159
ag160
ag97
ag161
ag162
ag163
ag164
ag165
ag166
ag167
ag168
ag169
ag170
ag171
ag172
ag173
ag174
ag175
ag176
ag177
ag178
asS'pinudura'
p1471
(lp1472
sS'rhuschor'
p1473
(lp1474
sS'byrsluci'
p1475
(lp1476
sS'pinujeff'
p1477
(lp1478
sS'swiemaha'
p1479
(lp1480
sS'querpung'
p1481
(lp1482
sS'pinuculm'
p1483
(lp1484
sS'saliarbu'
p1485
(lp1486
sS'lariocci'
p1487
(lp1488
sS'simaglau'
p1489
(lp1490
sS'pruncaro'
p1491
(lp1492
sS'prunemar'
p1493
(lp1494
sS'amelutah'
p1495
(lp1496
sS'querturb'
p1497
(lp1498
sS'maluioen'
p1499
(lp1500
sS'aescocta'
p1501
(lp1502
sS'junicali'
p1503
(lp1504
sS'amelinte'
p1505
(lp1506
sS'parkacul'
p1507
(lp1508
sS'calypall'
p1509
(lp1510
sS'ficuaure'
p1511
(lp1512
sS'carpcaro'
p1513
(lp1514
g4
ag5
ag6
ag7
ag8
ag9
ag10
ag11
ag12
ag13
ag14
ag15
ag16
ag17
ag18
ag19
ag20
ag21
ag22
ag23
ag24
ag25
ag26
ag27
ag28
ag29
ag30
ag31
ag32
ag33
ag34
ag35
ag36
ag37
ag38
ag39
ag40
ag41
ag42
ag43
ag44
ag45
ag46
ag47
ag48
ag49
ag104
ag50
ag105
ag51
ag52
ag53
ag54
ag55
ag56
ag57
ag58
ag106
ag59
ag60
ag61
ag62
ag63
ag64
ag65
ag66
ag107
ag67
ag108
ag109
ag110
ag68
ag69
ag111
ag70
ag71
ag112
ag113
ag72
ag73
ag74
ag75
ag76
ag77
ag78
ag79
ag80
ag81
ag82
ag114
ag115
ag116
ag83
ag84
ag85
ag117
ag118
ag86
ag87
ag119
ag120
ag121
ag122
ag123
ag124
ag88
ag89
ag90
ag125
ag126
ag127
ag128
ag129
ag91
ag92
ag93
ag130
ag131
ag132
ag133
ag94
ag134
ag135
ag136
ag137
ag95
ag138
ag139
ag140
ag96
ag141
ag142
ag143
ag144
ag145
ag146
ag147
ag148
ag149
ag150
ag151
ag152
ag153
ag154
ag155
ag156
ag157
ag158
ag159
ag160
ag97
ag161
ag162
ag163
ag164
ag165
ag166
ag167
ag168
ag169
ag170
ag171
ag172
ag173
ag174
ag175
ag176
ag177
ag178
asS'poputric'
p1515
(lp1516
sS'juglcine'
p1517
(lp1518
g4
ag5
ag6
ag7
ag8
ag9
ag10
ag11
ag12
ag13
ag14
ag15
ag16
ag17
ag18
ag19
ag20
ag21
ag22
ag23
ag24
ag25
ag26
ag27
ag28
ag29
ag30
ag31
ag32
ag33
ag34
ag35
ag36
ag37
ag38
ag39
ag40
ag41
ag42
ag43
ag44
ag45
ag46
ag47
ag48
ag49
ag104
ag50
ag105
ag51
ag52
ag53
ag54
ag55
ag56
ag57
ag58
ag106
ag59
ag60
ag61
ag62
ag63
ag64
ag65
ag66
ag107
ag67
ag108
ag109
ag110
ag68
ag69
ag111
ag70
ag71
ag112
ag113
ag72
ag73
ag74
ag75
ag76
ag77
ag78
ag79
ag80
ag81
ag82
ag114
ag115
ag116
ag83
ag84
ag85
ag117
ag118
ag86
ag87
ag119
ag120
ag121
ag122
ag123
ag124
ag88
ag89
ag90
ag125
ag126
ag127
ag128
ag129
ag91
ag92
ag93
ag130
ag131
ag132
ag133
ag94
ag134
ag135
ag136
ag137
ag95
ag138
ag139
ag140
ag96
ag141
ag142
ag143
ag144
ag145
ag146
ag147
ag148
ag149
ag150
ag151
ag152
ag153
ag154
ag155
ag156
ag157
ag158
ag159
ag160
ag97
ag161
ag162
ag163
ag164
ag165
ag166
ag167
ag168
ag169
ag170
ag171
ag172
ag173
ag174
ag175
ag176
ag177
ag178
asS'tilicaro'
p1519
(lp1520
sS'querogle'
p1521
(lp1522
sS'junimono'
p1523
(lp1524
sS'caryaqua'
p1525
(lp1526
sa(dp1527
g78
(lp1528
g2
ag102
ag187
ag221
ag227
ag251
ag253
ag265
ag289
ag307
ag315
ag327
ag355
ag375
ag391
ag397
ag427
ag431
ag435
ag493
ag511
ag1113
ag1147
ag589
ag611
ag1469
ag675
ag697
ag701
ag703
ag709
ag775
ag747
ag737
ag771
ag799
ag845
ag1395
ag911
ag925
ag927
ag933
ag953
ag785
ag981
ag983
ag989
ag991
ag1003
ag1019
ag1039
ag1051
ag1311
ag1055
ag181
ag1091
ag1291
ag521
ag1167
ag715
ag1237
ag1185
ag1187
ag1221
ag1137
ag1183
ag1253
ag1273
ag1283
ag1293
ag1297
ag1327
ag849
ag553
ag411
ag1399
ag1445
ag947
ag1513
ag1517
asg71
(lp1529
g2
ag102
ag187
ag189
ag227
ag235
ag251
ag253
ag265
ag315
ag375
ag391
ag397
ag427
ag431
ag435
ag493
ag1147
ag589
ag611
ag1469
ag675
ag697
ag701
ag703
ag709
ag775
ag747
ag737
ag771
ag799
ag845
ag911
ag925
ag927
ag953
ag785
ag981
ag983
ag989
ag991
ag1039
ag1051
ag1311
ag1055
ag181
ag1291
ag521
ag1167
ag715
ag1237
ag1185
ag1187
ag1221
ag1137
ag1183
ag1253
ag1273
ag1283
ag1293
ag1297
ag1327
ag849
ag553
ag411
ag1399
ag1445
ag947
ag1513
ag1517
asg73
(lp1530
g2
ag102
ag187
ag189
ag251
ag253
ag265
ag289
ag307
ag315
ag327
ag369
ag375
ag391
ag397
ag427
ag431
ag435
ag493
ag511
ag1113
ag1147
ag589
ag1469
ag675
ag683
ag697
ag701
ag703
ag709
ag775
ag747
ag737
ag771
ag799
ag845
ag911
ag925
ag927
ag953
ag785
ag981
ag983
ag989
ag991
ag1001
ag1003
ag1019
ag1039
ag1051
ag1311
ag1055
ag181
ag1091
ag1291
ag521
ag1167
ag715
ag1237
ag1185
ag1187
ag1221
ag1137
ag1183
ag1253
ag1273
ag1283
ag1293
ag1297
ag1327
ag849
ag553
ag411
ag1399
ag1445
ag947
ag1513
ag1517
asg137
(lp1531
g102
ag187
ag189
ag227
ag251
ag253
ag265
ag315
ag327
ag375
ag391
ag397
ag427
ag431
ag435
ag493
ag1147
ag589
ag611
ag1469
ag697
ag701
ag703
ag709
ag775
ag747
ag737
ag771
ag799
ag845
ag1395
ag911
ag925
ag927
ag953
ag785
ag981
ag983
ag989
ag991
ag1039
ag1051
ag1311
ag1055
ag1291
ag1167
ag715
ag1237
ag1185
ag1187
ag1221
ag1137
ag1183
ag1253
ag1273
ag1283
ag1293
ag1297
ag1327
ag849
ag553
ag411
ag1399
ag1445
ag947
ag1513
ag1517
asg25
(lp1532
g2
ag102
ag187
ag189
ag227
ag251
ag253
ag265
ag307
ag315
ag327
ag375
ag391
ag397
ag427
ag431
ag435
ag493
ag1147
ag589
ag611
ag1469
ag675
ag697
ag701
ag703
ag709
ag775
ag747
ag737
ag771
ag799
ag843
ag845
ag911
ag925
ag927
ag953
ag785
ag981
ag989
ag991
ag1039
ag1051
ag1311
ag1055
ag181
ag1091
ag1291
ag521
ag1167
ag715
ag1237
ag1185
ag1187
ag1221
ag1137
ag1183
ag1253
ag1273
ag1283
ag1293
ag1297
ag1327
ag849
ag553
ag411
ag1399
ag1445
ag947
ag1513
ag1517
asg149
(lp1533
g102
ag187
ag189
ag227
ag251
ag253
ag265
ag315
ag375
ag391
ag397
ag427
ag431
ag435
ag493
ag1147
ag589
ag611
ag1469
ag697
ag701
ag703
ag709
ag775
ag743
ag747
ag737
ag771
ag799
ag845
ag911
ag925
ag927
ag929
ag953
ag785
ag981
ag983
ag989
ag991
ag1001
ag1039
ag1051
ag1311
ag1055
ag1291
ag1167
ag715
ag1237
ag1185
ag1187
ag1221
ag1137
ag1183
ag1253
ag1273
ag1283
ag1293
ag1297
ag1327
ag849
ag553
ag411
ag1399
ag1445
ag947
ag1513
ag1517
asg15
(lp1534
g2
ag102
ag187
ag227
ag251
ag253
ag265
ag289
ag307
ag315
ag327
ag375
ag391
ag397
ag427
ag431
ag435
ag493
ag1147
ag589
ag611
ag1469
ag675
ag683
ag697
ag701
ag703
ag709
ag1009
ag775
ag747
ag737
ag771
ag799
ag843
ag845
ag911
ag925
ag927
ag953
ag785
ag981
ag989
ag991
ag1001
ag1003
ag1019
ag1039
ag1051
ag1311
ag1055
ag181
ag1091
ag1291
ag521
ag1167
ag715
ag1237
ag1185
ag1187
ag1221
ag1137
ag1183
ag1253
ag1273
ag1283
ag1297
ag1327
ag849
ag553
ag411
ag1399
ag1445
ag947
ag1513
ag1517
asg89
(lp1535
g2
ag102
ag187
ag189
ag227
ag251
ag253
ag265
ag289
ag307
ag315
ag327
ag355
ag369
ag375
ag391
ag397
ag427
ag431
ag435
ag493
ag511
ag1113
ag1147
ag589
ag611
ag1469
ag645
ag675
ag697
ag701
ag703
ag709
ag775
ag747
ag751
ag737
ag771
ag799
ag845
ag911
ag925
ag927
ag933
ag953
ag785
ag981
ag983
ag989
ag991
ag1001
ag1003
ag1039
ag1051
ag1311
ag1055
ag181
ag1091
ag1291
ag521
ag1167
ag715
ag1237
ag1185
ag1187
ag1221
ag1137
ag1183
ag1253
ag1273
ag1283
ag1293
ag1297
ag1327
ag849
ag553
ag411
ag1399
ag1445
ag947
ag1513
ag1517
asg110
(lp1536
g102
ag187
ag189
ag227
ag251
ag253
ag265
ag315
ag375
ag391
ag397
ag427
ag431
ag435
ag493
ag1147
ag589
ag611
ag1469
ag675
ag697
ag701
ag703
ag709
ag775
ag747
ag737
ag771
ag799
ag845
ag911
ag925
ag927
ag953
ag785
ag981
ag983
ag989
ag991
ag1039
ag1051
ag1311
ag1055
ag181
ag1291
ag521
ag1167
ag715
ag1237
ag1185
ag1187
ag1221
ag1137
ag1183
ag1253
ag1273
ag1283
ag1293
ag1297
ag1327
ag849
ag553
ag411
ag1399
ag1445
ag947
ag1513
ag1517
asg70
(lp1537
g2
ag102
ag187
ag251
ag253
ag265
ag289
ag307
ag315
ag327
ag355
ag369
ag375
ag391
ag397
ag427
ag431
ag435
ag493
ag511
ag1113
ag1147
ag589
ag633
ag1469
ag675
ag683
ag697
ag701
ag703
ag709
ag775
ag747
ag737
ag771
ag799
ag845
ag911
ag925
ag927
ag953
ag785
ag981
ag983
ag989
ag991
ag1003
ag1019
ag1039
ag1051
ag1311
ag1055
ag181
ag1091
ag521
ag1167
ag715
ag1237
ag1185
ag1187
ag1221
ag1137
ag1183
ag1253
ag1273
ag1283
ag1293
ag1297
ag1327
ag849
ag553
ag411
ag1399
ag1445
ag947
ag1513
ag1517
asg12
(lp1538
g2
ag102
ag187
ag227
ag251
ag253
ag265
ag289
ag307
ag315
ag327
ag369
ag375
ag391
ag397
ag427
ag431
ag435
ag493
ag511
ag1147
ag589
ag1469
ag675
ag683
ag697
ag701
ag703
ag709
ag1009
ag775
ag747
ag737
ag771
ag799
ag843
ag845
ag911
ag925
ag927
ag953
ag785
ag981
ag983
ag989
ag991
ag1001
ag1003
ag1019
ag1039
ag1051
ag1311
ag1055
ag181
ag1091
ag521
ag1167
ag715
ag1237
ag1185
ag1187
ag1221
ag1137
ag1183
ag1253
ag1273
ag1283
ag1293
ag1297
ag1327
ag849
ag553
ag411
ag1399
ag1445
ag947
ag1513
ag1517
asg4
(lp1539
g2
ag102
ag187
ag251
ag253
ag265
ag289
ag307
ag315
ag327
ag369
ag375
ag391
ag397
ag427
ag431
ag435
ag437
ag493
ag511
ag1113
ag571
ag573
ag1147
ag589
ag1469
ag675
ag683
ag697
ag701
ag703
ag709
ag1009
ag775
ag747
ag751
ag737
ag771
ag799
ag815
ag845
ag911
ag925
ag927
ag953
ag785
ag981
ag983
ag989
ag991
ag1001
ag1003
ag1019
ag1039
ag1051
ag1311
ag1055
ag181
ag1091
ag521
ag1167
ag715
ag1237
ag1185
ag1187
ag1221
ag1137
ag1183
ag1253
ag1283
ag1297
ag1327
ag1331
ag849
ag553
ag411
ag1399
ag1445
ag947
ag1513
ag1517
asg56
(lp1540
g2
ag102
ag187
ag189
ag227
ag245
ag251
ag253
ag265
ag307
ag315
ag327
ag375
ag391
ag397
ag427
ag431
ag435
ag493
ag1113
ag1147
ag589
ag611
ag1469
ag675
ag697
ag701
ag703
ag709
ag775
ag747
ag737
ag771
ag799
ag843
ag845
ag911
ag925
ag927
ag953
ag785
ag981
ag989
ag991
ag1039
ag1051
ag1311
ag1055
ag181
ag1091
ag1291
ag521
ag1167
ag715
ag1237
ag1185
ag1187
ag1221
ag1137
ag1183
ag1253
ag1273
ag1283
ag1293
ag1297
ag1327
ag849
ag553
ag411
ag1399
ag1445
ag947
ag1513
ag1517
asg11
(lp1541
g2
ag102
ag187
ag251
ag253
ag265
ag289
ag307
ag315
ag327
ag369
ag375
ag391
ag397
ag427
ag431
ag435
ag437
ag511
ag571
ag1147
ag589
ag1469
ag1161
ag675
ag683
ag697
ag701
ag703
ag709
ag1009
ag775
ag747
ag737
ag771
ag799
ag843
ag845
ag911
ag925
ag927
ag953
ag785
ag983
ag989
ag991
ag1001
ag1003
ag1019
ag1039
ag1051
ag1311
ag1055
ag181
ag1091
ag521
ag715
ag1237
ag1185
ag1187
ag1221
ag1137
ag1183
ag1253
ag1273
ag1283
ag1297
ag1327
ag849
ag553
ag411
ag1399
ag1445
ag947
ag1513
ag1517
asg84
(lp1542
g2
ag102
ag187
ag251
ag253
ag265
ag289
ag307
ag315
ag327
ag369
ag375
ag391
ag397
ag427
ag431
ag435
ag437
ag493
ag511
ag1113
ag1147
ag589
ag633
ag1469
ag645
ag675
ag683
ag697
ag701
ag703
ag709
ag1009
ag775
ag747
ag737
ag771
ag799
ag843
ag845
ag911
ag925
ag927
ag953
ag785
ag981
ag983
ag989
ag991
ag1003
ag1019
ag1039
ag1051
ag1311
ag1055
ag181
ag1091
ag521
ag1167
ag715
ag1237
ag1185
ag1187
ag1221
ag1137
ag1183
ag1253
ag1273
ag1283
ag1293
ag1297
ag1327
ag849
ag553
ag411
ag1399
ag1445
ag947
ag1513
ag1517
asg21
(lp1543
g2
ag102
ag187
ag245
ag251
ag253
ag265
ag289
ag307
ag315
ag327
ag369
ag375
ag391
ag397
ag427
ag431
ag435
ag437
ag511
ag1113
ag571
ag573
ag1147
ag589
ag633
ag1469
ag645
ag1161
ag675
ag683
ag697
ag701
ag703
ag709
ag1009
ag775
ag747
ag751
ag737
ag771
ag799
ag815
ag843
ag845
ag1411
ag911
ag925
ag927
ag953
ag785
ag981
ag983
ag989
ag991
ag1001
ag1003
ag1019
ag1039
ag1051
ag1311
ag1055
ag181
ag1091
ag521
ag715
ag1237
ag1185
ag1187
ag1221
ag1137
ag1183
ag1253
ag1283
ag1297
ag1327
ag1331
ag849
ag1349
ag553
ag411
ag1399
ag1445
ag947
ag1459
ag1513
ag1517
asg48
(lp1544
g2
ag102
ag187
ag251
ag253
ag265
ag289
ag307
ag315
ag327
ag369
ag375
ag391
ag397
ag427
ag431
ag435
ag437
ag493
ag511
ag1113
ag571
ag1147
ag589
ag633
ag1469
ag675
ag683
ag697
ag701
ag703
ag709
ag1009
ag775
ag747
ag751
ag737
ag771
ag799
ag843
ag845
ag911
ag925
ag927
ag953
ag785
ag981
ag983
ag989
ag991
ag1003
ag1019
ag1039
ag1051
ag1311
ag1055
ag181
ag1091
ag521
ag715
ag1237
ag1185
ag1187
ag1221
ag1137
ag1183
ag1253
ag1273
ag1283
ag1297
ag1327
ag849
ag553
ag411
ag1399
ag1445
ag947
ag1513
ag1517
asg49
(lp1545
g2
ag102
ag187
ag221
ag227
ag245
ag251
ag253
ag265
ag289
ag307
ag315
ag327
ag355
ag369
ag375
ag391
ag397
ag427
ag431
ag435
ag493
ag511
ag1113
ag1147
ag589
ag611
ag1469
ag675
ag683
ag697
ag701
ag703
ag709
ag775
ag747
ag737
ag771
ag799
ag843
ag845
ag911
ag925
ag927
ag953
ag785
ag981
ag983
ag989
ag991
ag1001
ag1003
ag1019
ag1039
ag1051
ag1311
ag1055
ag181
ag1091
ag1291
ag521
ag1167
ag715
ag1237
ag1185
ag1187
ag1221
ag1137
ag1183
ag1253
ag1273
ag1283
ag1293
ag1297
ag1327
ag849
ag553
ag411
ag1399
ag1445
ag947
ag1513
ag1517
asg142
(lp1546
g102
ag187
ag189
ag227
ag251
ag253
ag265
ag315
ag375
ag391
ag397
ag427
ag431
ag435
ag493
ag1147
ag589
ag611
ag1469
ag697
ag701
ag703
ag709
ag775
ag743
ag747
ag737
ag771
ag799
ag845
ag911
ag925
ag927
ag929
ag953
ag785
ag981
ag983
ag989
ag991
ag1001
ag1039
ag1051
ag1311
ag1055
ag1291
ag1167
ag715
ag1237
ag1185
ag1187
ag1221
ag1137
ag1183
ag1253
ag1273
ag1283
ag1293
ag1297
ag1327
ag849
ag553
ag411
ag1399
ag1445
ag947
ag1513
ag1517
asg6
(lp1547
g2
ag102
ag187
ag245
ag251
ag253
ag265
ag289
ag307
ag315
ag327
ag369
ag375
ag391
ag397
ag427
ag431
ag435
ag437
ag511
ag1113
ag571
ag573
ag1147
ag589
ag633
ag1469
ag1161
ag675
ag683
ag697
ag701
ag703
ag709
ag1009
ag775
ag747
ag751
ag737
ag771
ag799
ag815
ag843
ag845
ag911
ag925
ag927
ag953
ag785
ag981
ag983
ag989
ag991
ag1003
ag1019
ag1039
ag1051
ag1311
ag1055
ag181
ag1091
ag521
ag715
ag1237
ag1185
ag1187
ag1221
ag1137
ag1183
ag1253
ag1273
ag1283
ag1297
ag1327
ag1331
ag849
ag553
ag411
ag1399
ag1445
ag947
ag1513
ag1517
asg129
(lp1548
g102
ag187
ag189
ag227
ag251
ag253
ag265
ag315
ag327
ag375
ag391
ag397
ag427
ag431
ag435
ag493
ag511
ag1113
ag1147
ag589
ag611
ag1469
ag697
ag701
ag703
ag709
ag775
ag747
ag737
ag771
ag799
ag845
ag911
ag925
ag927
ag933
ag953
ag785
ag981
ag983
ag989
ag991
ag1003
ag1039
ag1051
ag1311
ag1055
ag1091
ag1291
ag521
ag1167
ag715
ag1237
ag1185
ag1187
ag1221
ag1137
ag1183
ag1253
ag1273
ag1283
ag1293
ag1297
ag1327
ag849
ag553
ag411
ag1399
ag1445
ag947
ag1513
ag1517
asg125
(lp1549
g102
ag187
ag189
ag227
ag251
ag253
ag265
ag315
ag375
ag391
ag397
ag427
ag431
ag435
ag493
ag1147
ag589
ag611
ag1469
ag675
ag697
ag701
ag703
ag709
ag775
ag747
ag737
ag771
ag799
ag845
ag911
ag925
ag927
ag953
ag785
ag981
ag983
ag989
ag991
ag1039
ag1051
ag1311
ag1055
ag1291
ag1153
ag1167
ag715
ag1237
ag1185
ag1187
ag1221
ag1137
ag1183
ag1253
ag1273
ag1283
ag1293
ag1297
ag1327
ag849
ag553
ag411
ag1399
ag1445
ag947
ag1513
ag1517
asg111
(lp1550
g102
ag187
ag189
ag227
ag251
ag253
ag265
ag315
ag327
ag375
ag391
ag397
ag427
ag431
ag435
ag493
ag1113
ag1147
ag589
ag611
ag1469
ag697
ag701
ag703
ag709
ag775
ag747
ag737
ag771
ag799
ag845
ag911
ag925
ag927
ag953
ag785
ag981
ag989
ag991
ag1039
ag1051
ag1311
ag1055
ag181
ag1291
ag521
ag1167
ag715
ag1237
ag1185
ag1187
ag1221
ag1137
ag1183
ag1253
ag1273
ag1283
ag1293
ag1297
ag1327
ag849
ag553
ag411
ag1399
ag1445
ag947
ag1513
ag1517
asg41
(lp1551
g2
ag102
ag187
ag251
ag253
ag265
ag289
ag307
ag315
ag327
ag369
ag375
ag391
ag397
ag427
ag431
ag435
ag493
ag511
ag1113
ag1147
ag589
ag1469
ag675
ag683
ag697
ag701
ag703
ag709
ag775
ag747
ag737
ag771
ag799
ag843
ag845
ag911
ag925
ag927
ag953
ag785
ag981
ag989
ag991
ag1001
ag1003
ag1019
ag1039
ag1051
ag1311
ag1055
ag181
ag1091
ag521
ag1167
ag715
ag1237
ag1185
ag1187
ag1221
ag1137
ag1183
ag1253
ag1273
ag1283
ag1293
ag1297
ag1327
ag849
ag553
ag411
ag1399
ag1445
ag947
ag1513
ag1517
asg128
(lp1552
g102
ag187
ag189
ag227
ag235
ag251
ag253
ag265
ag315
ag375
ag391
ag397
ag427
ag431
ag435
ag493
ag1113
ag1147
ag589
ag611
ag1469
ag675
ag697
ag701
ag703
ag709
ag775
ag747
ag737
ag771
ag799
ag845
ag911
ag925
ag927
ag933
ag953
ag785
ag981
ag983
ag989
ag991
ag1039
ag1051
ag1311
ag1055
ag181
ag1291
ag521
ag1167
ag715
ag1237
ag1185
ag1187
ag1221
ag1137
ag1183
ag1253
ag1273
ag1283
ag1293
ag1297
ag1327
ag849
ag553
ag411
ag1399
ag1445
ag947
ag1513
ag1517
asg148
(lp1553
g102
ag187
ag189
ag221
ag227
ag251
ag253
ag265
ag315
ag327
ag375
ag391
ag397
ag427
ag431
ag435
ag493
ag1147
ag589
ag611
ag1469
ag697
ag701
ag703
ag709
ag1009
ag775
ag747
ag751
ag737
ag771
ag799
ag845
ag1395
ag911
ag925
ag927
ag929
ag933
ag953
ag785
ag965
ag981
ag989
ag991
ag1039
ag1051
ag1311
ag1055
ag1291
ag1167
ag715
ag1237
ag1185
ag1187
ag1221
ag1137
ag1183
ag1253
ag1273
ag1283
ag1293
ag1297
ag1327
ag309
ag849
ag553
ag411
ag1399
ag1445
ag947
ag1513
ag1517
asg126
(lp1554
g102
ag187
ag227
ag251
ag253
ag265
ag315
ag327
ag375
ag391
ag397
ag427
ag431
ag435
ag493
ag511
ag1147
ag589
ag611
ag1469
ag697
ag701
ag703
ag709
ag775
ag743
ag747
ag737
ag771
ag799
ag845
ag1395
ag911
ag925
ag927
ag933
ag953
ag785
ag981
ag989
ag991
ag1039
ag1051
ag1311
ag1055
ag1091
ag1291
ag521
ag1167
ag715
ag1237
ag1185
ag1187
ag1221
ag1137
ag1183
ag1253
ag1273
ag1283
ag1293
ag1297
ag1327
ag849
ag553
ag411
ag1399
ag1445
ag947
ag1513
ag1517
asg74
(lp1555
g2
ag102
ag187
ag221
ag227
ag245
ag251
ag253
ag265
ag289
ag307
ag315
ag327
ag355
ag375
ag391
ag397
ag427
ag431
ag435
ag493
ag511
ag1113
ag1147
ag589
ag611
ag1469
ag675
ag697
ag701
ag703
ag709
ag775
ag747
ag737
ag771
ag799
ag845
ag1395
ag911
ag925
ag927
ag933
ag953
ag785
ag981
ag983
ag989
ag991
ag1003
ag1019
ag1039
ag1051
ag1311
ag1055
ag181
ag1091
ag1291
ag521
ag1167
ag715
ag1237
ag1185
ag1187
ag1221
ag1137
ag1183
ag1253
ag1273
ag1283
ag1293
ag1297
ag1327
ag849
ag553
ag411
ag1399
ag1445
ag947
ag1513
ag1517
asg16
(lp1556
g2
ag102
ag187
ag227
ag251
ag253
ag265
ag289
ag307
ag315
ag327
ag375
ag391
ag397
ag427
ag431
ag435
ag493
ag1147
ag589
ag611
ag1469
ag675
ag683
ag697
ag701
ag703
ag709
ag1009
ag775
ag747
ag737
ag771
ag799
ag843
ag845
ag911
ag925
ag927
ag953
ag785
ag981
ag989
ag991
ag1001
ag1003
ag1019
ag1039
ag1051
ag1311
ag1055
ag181
ag1091
ag1291
ag521
ag1167
ag715
ag1237
ag1185
ag1187
ag1221
ag1137
ag1183
ag1253
ag1273
ag1283
ag1297
ag1327
ag849
ag553
ag411
ag1399
ag1445
ag947
ag1513
ag1517
asg75
(lp1557
g2
ag102
ag187
ag251
ag253
ag265
ag289
ag307
ag315
ag327
ag369
ag375
ag391
ag397
ag427
ag431
ag435
ag437
ag511
ag1113
ag1147
ag589
ag633
ag1469
ag645
ag675
ag683
ag697
ag701
ag703
ag709
ag1009
ag775
ag747
ag737
ag771
ag799
ag843
ag845
ag911
ag925
ag927
ag953
ag785
ag981
ag989
ag991
ag1003
ag1019
ag1039
ag1051
ag1311
ag1055
ag181
ag1091
ag521
ag1167
ag715
ag1237
ag1185
ag1187
ag1221
ag1137
ag1183
ag1253
ag1273
ag1283
ag1297
ag1327
ag849
ag553
ag411
ag1399
ag1445
ag947
ag1513
ag1517
asg176
(lp1558
g102
ag187
ag189
ag221
ag223
ag227
ag251
ag253
ag265
ag289
ag315
ag327
ag375
ag391
ag397
ag423
ag427
ag431
ag435
ag493
ag1147
ag589
ag611
ag1469
ag697
ag701
ag703
ag709
ag775
ag747
ag737
ag771
ag799
ag825
ag845
ag1395
ag911
ag925
ag927
ag929
ag953
ag965
ag981
ag989
ag991
ag1001
ag1039
ag1051
ag1311
ag1055
ag1291
ag1153
ag1167
ag715
ag1237
ag1185
ag1187
ag1221
ag1137
ag1183
ag1253
ag1273
ag1283
ag1293
ag1297
ag1327
ag849
ag553
ag411
ag1399
ag1445
ag947
ag1513
ag1517
asg139
(lp1559
g102
ag187
ag189
ag227
ag251
ag253
ag265
ag315
ag327
ag375
ag391
ag397
ag427
ag431
ag435
ag493
ag511
ag1147
ag589
ag611
ag1469
ag697
ag701
ag703
ag709
ag1009
ag775
ag747
ag737
ag771
ag799
ag845
ag1395
ag911
ag925
ag927
ag933
ag953
ag785
ag981
ag989
ag991
ag1039
ag1051
ag1311
ag1055
ag1291
ag1167
ag715
ag1237
ag1185
ag1187
ag1221
ag1137
ag1183
ag1253
ag1273
ag1283
ag1293
ag1297
ag1327
ag849
ag553
ag411
ag1399
ag1445
ag947
ag1513
ag1517
asg80
(lp1560
g2
ag102
ag187
ag189
ag227
ag251
ag253
ag265
ag315
ag327
ag375
ag391
ag397
ag427
ag431
ag435
ag493
ag1113
ag1147
ag589
ag611
ag1469
ag675
ag697
ag701
ag703
ag709
ag775
ag747
ag737
ag771
ag799
ag845
ag911
ag925
ag927
ag953
ag785
ag981
ag989
ag991
ag1039
ag1051
ag1311
ag1055
ag181
ag1291
ag521
ag1167
ag715
ag1237
ag1185
ag1187
ag1221
ag1137
ag1183
ag1253
ag1273
ag1283
ag1293
ag1297
ag1327
ag849
ag553
ag411
ag1399
ag1445
ag947
ag1513
ag1517
asg43
(lp1561
g2
ag102
ag187
ag251
ag253
ag265
ag289
ag307
ag315
ag327
ag369
ag375
ag391
ag397
ag427
ag431
ag435
ag437
ag511
ag1113
ag1147
ag589
ag1469
ag1161
ag675
ag683
ag697
ag701
ag703
ag709
ag1009
ag775
ag747
ag737
ag771
ag799
ag843
ag845
ag911
ag925
ag927
ag953
ag785
ag981
ag983
ag989
ag991
ag1003
ag1019
ag1039
ag1051
ag1311
ag1055
ag181
ag1091
ag521
ag715
ag1237
ag1185
ag1187
ag1221
ag1137
ag1183
ag1253
ag1273
ag1283
ag1297
ag1327
ag849
ag553
ag411
ag1399
ag1445
ag947
ag1513
ag1517
asg127
(lp1562
g102
ag187
ag189
ag227
ag235
ag251
ag253
ag265
ag315
ag375
ag391
ag397
ag427
ag431
ag435
ag493
ag1147
ag589
ag611
ag1469
ag675
ag697
ag701
ag703
ag709
ag775
ag747
ag737
ag771
ag799
ag845
ag911
ag925
ag927
ag933
ag953
ag785
ag981
ag983
ag989
ag991
ag1039
ag1051
ag1311
ag1055
ag181
ag1291
ag521
ag1167
ag715
ag1237
ag1185
ag1187
ag1221
ag1137
ag1183
ag1253
ag1273
ag1283
ag1293
ag1297
ag1327
ag849
ag553
ag411
ag1399
ag1445
ag947
ag1513
ag1517
asg51
(lp1563
g2
ag102
ag187
ag189
ag227
ag235
ag251
ag253
ag265
ag315
ag327
ag375
ag391
ag397
ag427
ag431
ag435
ag493
ag1147
ag589
ag611
ag1469
ag675
ag697
ag701
ag703
ag709
ag775
ag747
ag737
ag771
ag799
ag845
ag911
ag925
ag927
ag953
ag785
ag981
ag989
ag991
ag1039
ag1051
ag1311
ag1055
ag181
ag1291
ag521
ag1167
ag715
ag1237
ag1185
ag1187
ag1221
ag1137
ag1183
ag1253
ag1273
ag1283
ag1293
ag1297
ag1327
ag849
ag553
ag411
ag1399
ag1445
ag947
ag1513
ag1517
asg62
(lp1564
g2
ag102
ag187
ag227
ag251
ag253
ag265
ag307
ag315
ag327
ag375
ag391
ag397
ag427
ag431
ag435
ag493
ag1113
ag1147
ag589
ag611
ag1469
ag645
ag675
ag697
ag701
ag703
ag709
ag775
ag747
ag737
ag771
ag799
ag843
ag845
ag911
ag925
ag927
ag953
ag785
ag981
ag989
ag991
ag1039
ag1051
ag1311
ag1055
ag181
ag1091
ag1291
ag521
ag1167
ag715
ag1237
ag1185
ag1187
ag1221
ag1137
ag1183
ag1253
ag1273
ag1283
ag1293
ag1297
ag1327
ag849
ag553
ag411
ag1399
ag1445
ag947
ag1513
ag1517
asg13
(lp1565
g2
ag102
ag187
ag227
ag251
ag253
ag265
ag289
ag307
ag315
ag327
ag355
ag369
ag375
ag391
ag397
ag427
ag431
ag435
ag493
ag511
ag1147
ag589
ag611
ag1469
ag675
ag683
ag697
ag701
ag703
ag709
ag1009
ag775
ag747
ag737
ag771
ag799
ag843
ag845
ag911
ag925
ag927
ag953
ag785
ag981
ag989
ag991
ag1001
ag1003
ag1019
ag1039
ag1051
ag1311
ag1055
ag181
ag1091
ag1291
ag521
ag1167
ag715
ag1237
ag1185
ag1187
ag1221
ag1137
ag1183
ag1253
ag1273
ag1283
ag1293
ag1297
ag1327
ag849
ag553
ag411
ag1399
ag1445
ag947
ag1513
ag1517
asg173
(lp1566
g102
ag187
ag189
ag227
ag251
ag253
ag265
ag315
ag327
ag375
ag391
ag397
ag427
ag431
ag435
ag493
ag1147
ag589
ag611
ag1469
ag697
ag701
ag703
ag709
ag775
ag747
ag737
ag771
ag799
ag845
ag1395
ag911
ag925
ag927
ag929
ag953
ag965
ag981
ag989
ag991
ag1039
ag1051
ag1311
ag1055
ag1291
ag1153
ag1167
ag715
ag1237
ag1185
ag1187
ag1221
ag1137
ag1183
ag1253
ag1273
ag1283
ag1293
ag1297
ag1327
ag309
ag849
ag553
ag411
ag1399
ag1445
ag947
ag1513
ag1517
asg145
(lp1567
g102
ag187
ag189
ag227
ag251
ag253
ag265
ag315
ag375
ag391
ag397
ag427
ag431
ag435
ag493
ag1147
ag589
ag611
ag1469
ag697
ag701
ag703
ag709
ag775
ag743
ag747
ag737
ag771
ag799
ag845
ag911
ag925
ag927
ag929
ag953
ag785
ag981
ag983
ag989
ag991
ag1039
ag1051
ag1311
ag1055
ag1291
ag1167
ag715
ag1237
ag1185
ag1187
ag1221
ag1137
ag1183
ag1253
ag1273
ag1283
ag1293
ag1297
ag1327
ag849
ag553
ag411
ag1399
ag1445
ag947
ag1513
ag1517
asg86
(lp1568
g2
ag102
ag187
ag189
ag251
ag253
ag265
ag289
ag307
ag315
ag327
ag355
ag369
ag375
ag391
ag397
ag427
ag431
ag435
ag437
ag493
ag511
ag1113
ag1147
ag589
ag1469
ag645
ag675
ag697
ag701
ag703
ag709
ag775
ag747
ag737
ag771
ag799
ag845
ag911
ag925
ag927
ag933
ag953
ag785
ag981
ag983
ag989
ag991
ag1001
ag1003
ag1019
ag1039
ag1051
ag1311
ag1055
ag181
ag1091
ag1291
ag521
ag1167
ag715
ag1237
ag1185
ag1187
ag1221
ag1137
ag1183
ag1253
ag1273
ag1283
ag1293
ag1297
ag1327
ag849
ag553
ag411
ag1399
ag1445
ag947
ag1513
ag1517
asg169
(lp1569
g102
ag187
ag189
ag223
ag227
ag251
ag253
ag265
ag289
ag315
ag327
ag375
ag391
ag397
ag427
ag431
ag435
ag493
ag1113
ag1147
ag589
ag611
ag1469
ag697
ag701
ag703
ag709
ag775
ag747
ag737
ag771
ag799
ag845
ag1395
ag911
ag925
ag927
ag929
ag953
ag965
ag981
ag989
ag991
ag1019
ag1039
ag1051
ag1311
ag1055
ag1291
ag1153
ag1167
ag715
ag1237
ag1185
ag1187
ag1221
ag1137
ag1183
ag1253
ag1273
ag1283
ag1293
ag1297
ag1327
ag849
ag553
ag411
ag1399
ag1445
ag947
ag1513
ag1517
asg117
(lp1570
g102
ag187
ag189
ag251
ag253
ag265
ag289
ag307
ag315
ag327
ag369
ag375
ag391
ag397
ag427
ag431
ag435
ag493
ag511
ag1147
ag589
ag633
ag1469
ag675
ag683
ag697
ag701
ag703
ag709
ag775
ag747
ag737
ag771
ag799
ag845
ag911
ag925
ag927
ag953
ag785
ag981
ag983
ag989
ag991
ag1003
ag1019
ag1039
ag1051
ag1311
ag1055
ag181
ag1091
ag521
ag1167
ag715
ag1237
ag1185
ag1187
ag1221
ag1137
ag1183
ag1253
ag1273
ag1283
ag1293
ag1297
ag1327
ag849
ag553
ag411
ag1399
ag1445
ag947
ag1513
ag1517
asg61
(lp1571
g2
ag102
ag187
ag227
ag251
ag253
ag265
ag289
ag307
ag315
ag327
ag355
ag375
ag391
ag397
ag427
ag431
ag435
ag493
ag1147
ag589
ag611
ag1469
ag675
ag683
ag697
ag701
ag703
ag709
ag1009
ag775
ag747
ag737
ag771
ag799
ag843
ag845
ag911
ag925
ag927
ag953
ag785
ag981
ag989
ag991
ag1003
ag1019
ag1039
ag1051
ag1311
ag1055
ag181
ag1091
ag1291
ag521
ag1167
ag715
ag1237
ag1185
ag1187
ag1221
ag1137
ag1183
ag1253
ag1273
ag1283
ag1293
ag1297
ag1327
ag849
ag553
ag411
ag1399
ag1445
ag947
ag1513
ag1517
asg158
(lp1572
g102
ag187
ag189
ag227
ag251
ag253
ag265
ag289
ag315
ag327
ag355
ag375
ag391
ag397
ag427
ag431
ag435
ag493
ag1147
ag589
ag611
ag1469
ag697
ag701
ag703
ag709
ag775
ag747
ag737
ag771
ag799
ag845
ag1395
ag911
ag925
ag927
ag953
ag785
ag981
ag989
ag991
ag1001
ag1039
ag1051
ag1311
ag1055
ag1091
ag1291
ag1153
ag1167
ag715
ag1237
ag1185
ag1187
ag1221
ag1137
ag1183
ag1253
ag1273
ag1283
ag1293
ag1297
ag1327
ag849
ag553
ag411
ag1399
ag1445
ag947
ag1513
ag1517
asg64
(lp1573
g2
ag102
ag187
ag227
ag251
ag253
ag265
ag289
ag307
ag315
ag327
ag355
ag375
ag391
ag397
ag427
ag431
ag435
ag493
ag511
ag1113
ag1147
ag589
ag611
ag1469
ag675
ag697
ag701
ag703
ag709
ag775
ag743
ag747
ag737
ag771
ag799
ag845
ag1395
ag911
ag925
ag927
ag953
ag785
ag981
ag989
ag991
ag1003
ag1019
ag1039
ag1051
ag1311
ag1055
ag181
ag1091
ag1291
ag521
ag1167
ag715
ag1237
ag1185
ag1187
ag1221
ag1137
ag1183
ag1253
ag1273
ag1283
ag1293
ag1297
ag1327
ag849
ag553
ag411
ag1399
ag1445
ag947
ag1513
ag1517
asg22
(lp1574
g2
ag102
ag187
ag227
ag251
ag253
ag265
ag289
ag307
ag315
ag327
ag355
ag369
ag375
ag391
ag397
ag427
ag431
ag435
ag493
ag511
ag1147
ag589
ag611
ag1469
ag675
ag683
ag697
ag701
ag703
ag709
ag1009
ag775
ag747
ag737
ag771
ag799
ag843
ag845
ag1395
ag911
ag925
ag927
ag953
ag785
ag981
ag989
ag991
ag1001
ag1003
ag1019
ag1039
ag1051
ag1311
ag1055
ag181
ag1091
ag1291
ag521
ag1167
ag715
ag1237
ag1185
ag1187
ag1221
ag1137
ag1183
ag1253
ag1273
ag1283
ag1293
ag1297
ag1327
ag849
ag553
ag411
ag1399
ag1445
ag947
ag1513
ag1517
asg96
(lp1575
g2
ag102
ag187
ag189
ag221
ag227
ag251
ag253
ag265
ag315
ag327
ag355
ag375
ag391
ag397
ag427
ag431
ag435
ag493
ag511
ag1147
ag589
ag611
ag1469
ag697
ag701
ag703
ag709
ag1009
ag775
ag747
ag751
ag737
ag771
ag799
ag845
ag911
ag925
ag927
ag933
ag953
ag785
ag981
ag983
ag989
ag991
ag1039
ag1051
ag1311
ag1055
ag1091
ag1291
ag521
ag1167
ag715
ag1237
ag1185
ag1187
ag1221
ag1137
ag1183
ag1253
ag1273
ag1283
ag1293
ag1297
ag1327
ag309
ag849
ag553
ag411
ag1399
ag1445
ag947
ag1513
ag1517
asg109
(lp1576
g102
ag187
ag189
ag227
ag251
ag253
ag265
ag315
ag375
ag391
ag397
ag427
ag431
ag435
ag493
ag1147
ag589
ag611
ag1469
ag675
ag697
ag701
ag703
ag709
ag775
ag747
ag737
ag771
ag799
ag845
ag911
ag925
ag927
ag953
ag785
ag981
ag983
ag989
ag991
ag1039
ag1051
ag1311
ag1055
ag181
ag1291
ag1167
ag715
ag1237
ag1185
ag1187
ag1221
ag1137
ag1183
ag1253
ag1273
ag1283
ag1293
ag1297
ag1327
ag849
ag553
ag411
ag1399
ag1445
ag947
ag1513
ag1517
asg118
(lp1577
g102
ag187
ag189
ag227
ag251
ag253
ag265
ag315
ag375
ag391
ag397
ag427
ag431
ag435
ag493
ag1147
ag589
ag611
ag1469
ag675
ag697
ag701
ag703
ag709
ag775
ag747
ag737
ag771
ag799
ag845
ag911
ag925
ag927
ag953
ag785
ag981
ag983
ag989
ag991
ag1039
ag1051
ag1311
ag1055
ag1291
ag1167
ag715
ag1237
ag1185
ag1187
ag1221
ag1137
ag1183
ag1253
ag1273
ag1283
ag1293
ag1297
ag1327
ag849
ag553
ag411
ag1399
ag1445
ag947
ag1513
ag1517
asg18
(lp1578
g2
ag102
ag187
ag189
ag227
ag251
ag253
ag265
ag289
ag307
ag315
ag327
ag375
ag391
ag397
ag427
ag431
ag435
ag493
ag1147
ag589
ag611
ag1469
ag675
ag697
ag701
ag703
ag709
ag775
ag747
ag737
ag771
ag799
ag843
ag845
ag911
ag925
ag927
ag953
ag785
ag981
ag989
ag991
ag1001
ag1039
ag1051
ag1311
ag1055
ag181
ag1091
ag1291
ag521
ag1167
ag715
ag1237
ag1185
ag1187
ag1221
ag1137
ag1183
ag1253
ag1273
ag1283
ag1293
ag1297
ag1327
ag849
ag553
ag411
ag1399
ag1445
ag947
ag1513
ag1517
asg156
(lp1579
g102
ag187
ag189
ag227
ag251
ag253
ag265
ag315
ag375
ag391
ag397
ag423
ag427
ag431
ag435
ag493
ag1147
ag589
ag611
ag1469
ag697
ag701
ag703
ag709
ag775
ag747
ag737
ag771
ag799
ag845
ag911
ag925
ag927
ag953
ag785
ag981
ag983
ag989
ag991
ag1039
ag1051
ag1311
ag1055
ag1291
ag1167
ag715
ag1237
ag1185
ag1187
ag1221
ag1137
ag1183
ag1253
ag1273
ag1283
ag1293
ag1297
ag1327
ag849
ag553
ag411
ag1399
ag1445
ag947
ag1513
ag1517
asg20
(lp1580
g2
ag102
ag187
ag189
ag227
ag251
ag253
ag265
ag307
ag315
ag327
ag375
ag391
ag397
ag427
ag431
ag493
ag1147
ag589
ag611
ag1469
ag675
ag697
ag701
ag703
ag709
ag775
ag747
ag737
ag771
ag799
ag843
ag845
ag911
ag925
ag927
ag953
ag785
ag981
ag989
ag991
ag1001
ag1039
ag1051
ag1311
ag1055
ag181
ag1091
ag1291
ag521
ag1167
ag715
ag1237
ag1185
ag1187
ag1221
ag1137
ag1183
ag1253
ag1273
ag1283
ag1293
ag1297
ag1327
ag849
ag553
ag411
ag1399
ag1445
ag947
ag1513
ag1517
asg68
(lp1581
g2
ag102
ag187
ag189
ag251
ag253
ag265
ag289
ag307
ag315
ag327
ag369
ag375
ag391
ag397
ag427
ag431
ag435
ag493
ag511
ag1113
ag1147
ag589
ag1469
ag675
ag683
ag697
ag701
ag703
ag709
ag775
ag747
ag737
ag771
ag799
ag845
ag911
ag925
ag927
ag933
ag953
ag785
ag981
ag983
ag989
ag991
ag1001
ag1003
ag1019
ag1039
ag1051
ag1311
ag1055
ag181
ag1091
ag1291
ag521
ag1167
ag715
ag1237
ag1185
ag1187
ag1221
ag1137
ag1183
ag1253
ag1273
ag1283
ag1293
ag1297
ag1327
ag849
ag553
ag411
ag1399
ag1445
ag947
ag1513
ag1517
asg8
(lp1582
g2
ag102
ag187
ag251
ag253
ag265
ag289
ag307
ag315
ag327
ag369
ag375
ag391
ag397
ag427
ag431
ag435
ag437
ag493
ag511
ag1113
ag571
ag573
ag1147
ag589
ag1469
ag645
ag675
ag683
ag697
ag701
ag703
ag709
ag1009
ag775
ag747
ag751
ag737
ag771
ag799
ag815
ag845
ag1411
ag911
ag925
ag927
ag953
ag785
ag981
ag983
ag989
ag991
ag1001
ag1003
ag1019
ag1039
ag1051
ag1311
ag1055
ag181
ag1091
ag521
ag1167
ag715
ag1237
ag1185
ag1187
ag1221
ag1137
ag1183
ag1253
ag1283
ag1297
ag1327
ag1331
ag849
ag553
ag411
ag1399
ag1445
ag947
ag1459
ag1513
ag1517
asg31
(lp1583
g2
ag102
ag187
ag189
ag227
ag251
ag253
ag265
ag307
ag315
ag327
ag375
ag391
ag397
ag427
ag431
ag435
ag493
ag1113
ag1147
ag589
ag611
ag1469
ag675
ag697
ag701
ag703
ag709
ag775
ag747
ag737
ag771
ag799
ag843
ag845
ag911
ag925
ag927
ag953
ag785
ag981
ag989
ag991
ag1039
ag1051
ag1311
ag1055
ag181
ag1091
ag1291
ag521
ag1167
ag715
ag1237
ag1185
ag1187
ag1221
ag1137
ag1183
ag1253
ag1273
ag1283
ag1293
ag1297
ag1327
ag849
ag553
ag411
ag1399
ag1445
ag947
ag1513
ag1517
asg138
(lp1584
g102
ag187
ag189
ag227
ag251
ag253
ag265
ag315
ag375
ag391
ag397
ag427
ag431
ag435
ag493
ag1147
ag589
ag611
ag1469
ag697
ag701
ag703
ag709
ag775
ag747
ag737
ag771
ag799
ag845
ag911
ag925
ag927
ag953
ag785
ag981
ag983
ag989
ag991
ag1039
ag1051
ag1311
ag1055
ag1291
ag1167
ag715
ag1237
ag1185
ag1187
ag1221
ag1137
ag1183
ag1253
ag1273
ag1283
ag1293
ag1297
ag1327
ag849
ag553
ag411
ag1399
ag1445
ag947
ag1513
ag1517
asg58
(lp1585
g2
ag102
ag187
ag245
ag251
ag253
ag265
ag289
ag307
ag315
ag327
ag369
ag375
ag391
ag397
ag427
ag431
ag435
ag437
ag511
ag1147
ag589
ag1469
ag1161
ag675
ag683
ag697
ag701
ag703
ag709
ag1009
ag775
ag747
ag737
ag771
ag799
ag843
ag845
ag911
ag925
ag927
ag953
ag785
ag981
ag983
ag989
ag991
ag1003
ag1019
ag1039
ag1051
ag1311
ag1055
ag181
ag1091
ag521
ag715
ag1237
ag1185
ag1187
ag1221
ag1137
ag1183
ag1253
ag1273
ag1283
ag1297
ag1327
ag849
ag553
ag411
ag1399
ag1445
ag947
ag1513
ag1517
asg177
(lp1586
g102
ag187
ag189
ag227
ag251
ag253
ag265
ag289
ag315
ag327
ag375
ag391
ag397
ag423
ag427
ag431
ag435
ag493
ag1147
ag589
ag611
ag1469
ag697
ag701
ag703
ag709
ag775
ag747
ag737
ag771
ag799
ag845
ag1395
ag911
ag925
ag927
ag929
ag953
ag965
ag981
ag989
ag991
ag1039
ag1051
ag1311
ag1055
ag1291
ag1153
ag1167
ag715
ag1237
ag1185
ag1187
ag1221
ag1137
ag1183
ag1253
ag1273
ag1283
ag1293
ag1297
ag1327
ag849
ag553
ag411
ag1399
ag1445
ag947
ag1513
ag1517
asg175
(lp1587
g102
ag187
ag189
ag227
ag251
ag253
ag265
ag315
ag327
ag355
ag375
ag391
ag397
ag427
ag431
ag435
ag493
ag1147
ag589
ag611
ag1469
ag697
ag701
ag703
ag709
ag775
ag747
ag737
ag771
ag799
ag845
ag1395
ag911
ag925
ag927
ag929
ag953
ag965
ag981
ag989
ag991
ag1039
ag1051
ag1311
ag1055
ag1291
ag1153
ag1167
ag715
ag1237
ag1185
ag1187
ag1221
ag1137
ag1183
ag1253
ag1273
ag1283
ag1293
ag1297
ag1327
ag849
ag553
ag411
ag1399
ag1445
ag947
ag1513
ag1517
asg24
(lp1588
g2
ag102
ag187
ag245
ag251
ag253
ag265
ag289
ag307
ag315
ag327
ag369
ag375
ag391
ag397
ag427
ag431
ag435
ag437
ag511
ag571
ag1147
ag589
ag1469
ag1161
ag675
ag683
ag697
ag701
ag703
ag709
ag1009
ag775
ag747
ag737
ag771
ag799
ag843
ag845
ag911
ag925
ag927
ag953
ag785
ag981
ag983
ag989
ag991
ag1001
ag1003
ag1019
ag1039
ag1051
ag1311
ag1055
ag181
ag1091
ag521
ag715
ag1237
ag1185
ag1187
ag1221
ag1137
ag1183
ag1253
ag1273
ag1283
ag1297
ag1327
ag849
ag553
ag411
ag1399
ag1445
ag947
ag1513
ag1517
asg161
(lp1589
g102
ag187
ag189
ag227
ag251
ag253
ag265
ag315
ag327
ag375
ag391
ag397
ag427
ag431
ag435
ag493
ag1147
ag589
ag611
ag1469
ag697
ag701
ag703
ag709
ag775
ag747
ag751
ag737
ag771
ag799
ag845
ag1395
ag911
ag925
ag927
ag929
ag933
ag953
ag785
ag965
ag981
ag989
ag991
ag1039
ag1051
ag1311
ag1055
ag1291
ag1167
ag715
ag1237
ag1185
ag1187
ag1221
ag1137
ag1183
ag1253
ag1273
ag1283
ag1293
ag1297
ag1327
ag309
ag849
ag553
ag411
ag1399
ag1445
ag947
ag1513
ag1517
asg104
(lp1590
g102
ag187
ag189
ag227
ag251
ag253
ag265
ag315
ag375
ag391
ag397
ag427
ag431
ag435
ag493
ag1147
ag589
ag611
ag1469
ag675
ag697
ag701
ag703
ag709
ag775
ag747
ag737
ag771
ag799
ag845
ag911
ag925
ag927
ag953
ag785
ag981
ag983
ag989
ag991
ag1039
ag1051
ag1311
ag1055
ag181
ag1291
ag521
ag1167
ag715
ag1237
ag1185
ag1187
ag1221
ag1137
ag1183
ag1253
ag1273
ag1283
ag1293
ag1297
ag1327
ag849
ag553
ag411
ag1399
ag1445
ag947
ag1513
ag1517
asg116
(lp1591
g102
ag187
ag189
ag251
ag253
ag265
ag289
ag307
ag315
ag327
ag369
ag375
ag391
ag397
ag427
ag431
ag435
ag493
ag511
ag1113
ag1147
ag589
ag1469
ag675
ag683
ag697
ag701
ag703
ag709
ag1009
ag775
ag747
ag737
ag771
ag799
ag845
ag911
ag925
ag927
ag953
ag785
ag983
ag989
ag991
ag1003
ag1019
ag1039
ag1051
ag1311
ag1055
ag181
ag1091
ag521
ag1167
ag715
ag1237
ag1185
ag1187
ag1221
ag1137
ag1183
ag1253
ag1273
ag1283
ag1293
ag1297
ag1327
ag849
ag553
ag411
ag1399
ag1445
ag947
ag1513
ag1517
asg37
(lp1592
g2
ag102
ag187
ag251
ag253
ag265
ag289
ag307
ag315
ag327
ag355
ag369
ag375
ag391
ag397
ag427
ag431
ag435
ag493
ag511
ag1113
ag1147
ag589
ag1469
ag675
ag683
ag697
ag701
ag703
ag709
ag775
ag747
ag737
ag771
ag799
ag843
ag845
ag911
ag925
ag927
ag953
ag785
ag981
ag989
ag991
ag1001
ag1003
ag1019
ag1039
ag1051
ag1311
ag1055
ag181
ag1091
ag521
ag1167
ag715
ag1237
ag1185
ag1187
ag1221
ag1137
ag1183
ag1253
ag1273
ag1283
ag1293
ag1297
ag1327
ag849
ag553
ag411
ag1399
ag1445
ag947
ag1513
ag1517
asg39
(lp1593
g2
ag102
ag187
ag221
ag227
ag245
ag251
ag253
ag265
ag289
ag307
ag315
ag327
ag355
ag375
ag391
ag397
ag427
ag431
ag435
ag493
ag511
ag1113
ag1147
ag589
ag611
ag1469
ag675
ag683
ag697
ag701
ag703
ag709
ag775
ag747
ag737
ag771
ag799
ag843
ag845
ag1395
ag911
ag925
ag927
ag953
ag785
ag981
ag989
ag991
ag1003
ag1019
ag1039
ag1051
ag1311
ag1055
ag181
ag1091
ag1291
ag521
ag1167
ag715
ag1237
ag1185
ag1187
ag1221
ag1137
ag1183
ag1253
ag1273
ag1283
ag1293
ag1297
ag1327
ag849
ag553
ag411
ag1399
ag1445
ag947
ag1513
ag1517
asg164
(lp1594
g102
ag187
ag189
ag221
ag227
ag251
ag253
ag265
ag315
ag327
ag355
ag375
ag391
ag397
ag427
ag431
ag435
ag493
ag1147
ag589
ag611
ag1469
ag697
ag701
ag703
ag709
ag775
ag747
ag751
ag737
ag771
ag799
ag845
ag1395
ag911
ag925
ag927
ag953
ag785
ag981
ag983
ag989
ag991
ag1001
ag1039
ag1051
ag1311
ag1055
ag1091
ag1291
ag1153
ag1167
ag715
ag1237
ag1185
ag1187
ag1221
ag1137
ag1183
ag1253
ag1273
ag1283
ag1293
ag1297
ag1327
ag849
ag553
ag411
ag1399
ag1445
ag947
ag1513
ag1517
asg60
(lp1595
g2
ag102
ag187
ag227
ag251
ag253
ag265
ag289
ag307
ag315
ag327
ag375
ag391
ag397
ag427
ag431
ag435
ag493
ag1147
ag589
ag611
ag1469
ag645
ag675
ag697
ag701
ag703
ag709
ag1009
ag775
ag747
ag737
ag771
ag799
ag843
ag845
ag911
ag925
ag927
ag953
ag785
ag981
ag983
ag989
ag991
ag1001
ag1003
ag1019
ag1039
ag1051
ag1311
ag1055
ag181
ag1091
ag1291
ag521
ag1167
ag715
ag1237
ag1185
ag1187
ag1221
ag1137
ag1183
ag1253
ag1273
ag1283
ag1293
ag1297
ag1327
ag849
ag553
ag411
ag1399
ag1445
ag947
ag1513
ag1517
asg172
(lp1596
g102
ag187
ag189
ag227
ag251
ag253
ag265
ag289
ag315
ag327
ag375
ag391
ag397
ag427
ag431
ag435
ag493
ag1113
ag1147
ag589
ag611
ag1469
ag697
ag701
ag703
ag709
ag775
ag747
ag737
ag771
ag799
ag845
ag1395
ag911
ag925
ag927
ag929
ag953
ag965
ag981
ag989
ag991
ag1039
ag1051
ag1311
ag1055
ag1291
ag1153
ag1165
ag1167
ag715
ag1237
ag1185
ag1187
ag1221
ag1137
ag1183
ag1253
ag1273
ag1283
ag1293
ag1297
ag1327
ag849
ag553
ag411
ag1399
ag1445
ag947
ag1513
ag1517
asg5
(lp1597
g2
ag102
ag187
ag227
ag251
ag253
ag265
ag289
ag307
ag315
ag327
ag355
ag375
ag391
ag397
ag427
ag431
ag435
ag493
ag511
ag573
ag1147
ag589
ag611
ag1469
ag675
ag683
ag697
ag701
ag703
ag709
ag1009
ag775
ag747
ag737
ag771
ag799
ag843
ag845
ag1395
ag911
ag925
ag927
ag953
ag785
ag981
ag989
ag991
ag1003
ag1019
ag1039
ag1051
ag1311
ag1055
ag181
ag1091
ag1291
ag521
ag1167
ag715
ag1237
ag1185
ag1187
ag1221
ag1137
ag1183
ag1253
ag1273
ag1283
ag1293
ag1297
ag1327
ag849
ag553
ag411
ag1399
ag1445
ag947
ag1513
ag1517
asg32
(lp1598
g2
ag102
ag187
ag189
ag227
ag251
ag253
ag265
ag307
ag315
ag327
ag375
ag391
ag397
ag427
ag431
ag435
ag493
ag1147
ag589
ag611
ag1469
ag675
ag697
ag701
ag703
ag709
ag775
ag747
ag737
ag771
ag799
ag843
ag845
ag911
ag925
ag927
ag953
ag785
ag981
ag989
ag991
ag1039
ag1051
ag1311
ag1055
ag181
ag1091
ag1291
ag521
ag1167
ag715
ag1237
ag1185
ag1187
ag1221
ag1137
ag1183
ag1253
ag1273
ag1283
ag1293
ag1297
ag1327
ag849
ag553
ag411
ag1399
ag1445
ag947
ag1513
ag1517
asg141
(lp1599
g102
ag187
ag189
ag227
ag251
ag253
ag265
ag315
ag327
ag375
ag391
ag397
ag427
ag431
ag435
ag493
ag1147
ag589
ag611
ag1469
ag697
ag701
ag703
ag709
ag775
ag747
ag737
ag771
ag799
ag845
ag1395
ag911
ag925
ag927
ag953
ag785
ag981
ag983
ag989
ag991
ag1039
ag1051
ag1311
ag1055
ag1291
ag1167
ag715
ag1237
ag1185
ag1187
ag1221
ag1137
ag1183
ag1253
ag1273
ag1283
ag1293
ag1297
ag1327
ag849
ag553
ag411
ag1399
ag1445
ag947
ag1513
ag1517
asg123
(lp1600
g102
ag187
ag189
ag227
ag235
ag251
ag253
ag265
ag289
ag307
ag315
ag327
ag369
ag375
ag391
ag397
ag427
ag431
ag435
ag493
ag511
ag1147
ag589
ag611
ag633
ag1469
ag675
ag683
ag697
ag701
ag703
ag709
ag775
ag747
ag737
ag771
ag799
ag845
ag911
ag925
ag927
ag953
ag785
ag981
ag983
ag989
ag991
ag1001
ag1003
ag1019
ag1039
ag1051
ag1311
ag1055
ag181
ag1091
ag1291
ag521
ag1167
ag715
ag1237
ag1185
ag1187
ag1221
ag1137
ag1183
ag1253
ag1273
ag1283
ag1293
ag1297
ag1327
ag849
ag553
ag411
ag1399
ag1445
ag947
ag1513
ag1517
asg133
(lp1601
g102
ag187
ag189
ag227
ag251
ag253
ag265
ag315
ag327
ag375
ag391
ag397
ag427
ag431
ag435
ag493
ag1147
ag589
ag611
ag1469
ag697
ag701
ag703
ag709
ag775
ag747
ag737
ag771
ag799
ag845
ag911
ag925
ag927
ag953
ag785
ag981
ag983
ag989
ag991
ag1039
ag1051
ag1311
ag1055
ag1291
ag521
ag1167
ag715
ag1237
ag1185
ag1187
ag1221
ag1137
ag1183
ag1253
ag1273
ag1283
ag1293
ag1297
ag1327
ag849
ag553
ag411
ag1399
ag1445
ag947
ag1513
ag1517
asg132
(lp1602
g102
ag187
ag189
ag251
ag253
ag265
ag289
ag307
ag315
ag327
ag369
ag375
ag391
ag397
ag427
ag431
ag435
ag493
ag511
ag1147
ag589
ag611
ag1469
ag675
ag683
ag697
ag701
ag703
ag709
ag775
ag747
ag737
ag771
ag799
ag845
ag911
ag925
ag927
ag953
ag785
ag983
ag989
ag991
ag1003
ag1019
ag1039
ag1051
ag1311
ag1055
ag181
ag1091
ag521
ag1167
ag715
ag1237
ag1185
ag1187
ag1221
ag1137
ag1183
ag1253
ag1273
ag1283
ag1293
ag1297
ag1327
ag849
ag553
ag411
ag1399
ag1445
ag947
ag1513
ag1517
asg35
(lp1603
g2
ag102
ag187
ag189
ag227
ag235
ag245
ag251
ag253
ag265
ag307
ag315
ag327
ag375
ag391
ag397
ag427
ag431
ag435
ag493
ag1113
ag1147
ag589
ag611
ag1469
ag675
ag697
ag701
ag703
ag709
ag775
ag747
ag737
ag771
ag799
ag843
ag845
ag911
ag925
ag927
ag953
ag785
ag981
ag989
ag991
ag1039
ag1051
ag1311
ag1055
ag181
ag1091
ag1291
ag521
ag1167
ag715
ag1237
ag1185
ag1187
ag1221
ag1137
ag1183
ag1253
ag1273
ag1283
ag1293
ag1297
ag1327
ag849
ag553
ag411
ag1399
ag1445
ag947
ag1513
ag1517
asg65
(lp1604
g2
ag102
ag187
ag189
ag227
ag251
ag253
ag265
ag289
ag307
ag315
ag327
ag375
ag391
ag397
ag427
ag431
ag435
ag493
ag511
ag1113
ag1147
ag589
ag611
ag1469
ag675
ag697
ag701
ag703
ag709
ag775
ag747
ag737
ag771
ag799
ag845
ag911
ag925
ag927
ag933
ag953
ag785
ag981
ag983
ag989
ag991
ag1001
ag1003
ag1019
ag1039
ag1051
ag1311
ag1055
ag181
ag1091
ag1291
ag521
ag1167
ag715
ag1237
ag1185
ag1187
ag1221
ag1137
ag1183
ag1253
ag1273
ag1283
ag1293
ag1297
ag1327
ag849
ag553
ag411
ag1399
ag1445
ag947
ag1513
ag1517
asg120
(lp1605
g102
ag187
ag189
ag227
ag251
ag253
ag265
ag315
ag327
ag375
ag391
ag397
ag427
ag431
ag435
ag493
ag571
ag1147
ag589
ag611
ag1469
ag697
ag701
ag703
ag709
ag775
ag743
ag747
ag737
ag771
ag799
ag845
ag1395
ag911
ag925
ag927
ag953
ag785
ag981
ag989
ag991
ag1039
ag1051
ag1311
ag1055
ag1291
ag521
ag1167
ag715
ag1237
ag1185
ag1187
ag1221
ag1137
ag1183
ag1253
ag1273
ag1283
ag1293
ag1297
ag1327
ag849
ag553
ag411
ag1399
ag1445
ag947
ag1513
ag1517
asg154
(lp1606
g102
ag187
ag189
ag227
ag251
ag253
ag265
ag315
ag327
ag375
ag391
ag397
ag427
ag431
ag435
ag493
ag1147
ag589
ag611
ag1469
ag697
ag701
ag703
ag709
ag775
ag747
ag737
ag771
ag799
ag845
ag1395
ag911
ag925
ag927
ag953
ag785
ag981
ag983
ag989
ag991
ag1039
ag1051
ag1311
ag1055
ag1291
ag1167
ag715
ag1237
ag1185
ag1187
ag1221
ag1137
ag1183
ag1253
ag1273
ag1283
ag1293
ag1297
ag1327
ag849
ag553
ag411
ag1399
ag1445
ag947
ag1513
ag1517
asg33
(lp1607
g2
ag102
ag187
ag189
ag227
ag235
ag251
ag253
ag265
ag307
ag315
ag327
ag375
ag391
ag397
ag427
ag431
ag435
ag493
ag1113
ag1147
ag589
ag611
ag1469
ag675
ag697
ag701
ag703
ag709
ag775
ag747
ag737
ag771
ag799
ag843
ag845
ag911
ag925
ag927
ag953
ag785
ag981
ag989
ag991
ag1039
ag1051
ag1311
ag1055
ag181
ag1091
ag1291
ag521
ag1167
ag715
ag1237
ag1185
ag1187
ag1221
ag1137
ag1183
ag1253
ag1273
ag1283
ag1293
ag1297
ag1327
ag849
ag553
ag411
ag1399
ag1445
ag947
ag1513
ag1517
asg28
(lp1608
g2
ag102
ag187
ag189
ag227
ag251
ag253
ag265
ag307
ag315
ag327
ag375
ag391
ag397
ag427
ag431
ag435
ag493
ag1147
ag589
ag611
ag1469
ag675
ag697
ag701
ag703
ag709
ag775
ag747
ag737
ag771
ag799
ag843
ag845
ag911
ag925
ag927
ag953
ag785
ag981
ag989
ag991
ag1001
ag1039
ag1051
ag1311
ag1055
ag181
ag1091
ag1291
ag521
ag1167
ag715
ag1237
ag1185
ag1187
ag1221
ag1137
ag1183
ag1253
ag1273
ag1283
ag1293
ag1297
ag1327
ag849
ag553
ag411
ag1399
ag1445
ag947
ag1513
ag1517
asg54
(lp1609
g2
ag102
ag187
ag245
ag251
ag253
ag265
ag289
ag307
ag315
ag327
ag369
ag375
ag391
ag397
ag427
ag431
ag435
ag437
ag511
ag1113
ag571
ag1147
ag589
ag633
ag1469
ag1161
ag675
ag683
ag697
ag701
ag703
ag709
ag1009
ag775
ag747
ag751
ag737
ag771
ag799
ag815
ag843
ag845
ag911
ag925
ag927
ag953
ag785
ag981
ag983
ag989
ag991
ag1003
ag1019
ag1039
ag1051
ag1311
ag1055
ag181
ag1091
ag521
ag1163
ag715
ag1237
ag1185
ag1187
ag1221
ag1137
ag1183
ag1253
ag1273
ag1283
ag1297
ag1327
ag1331
ag849
ag553
ag411
ag1399
ag1445
ag947
ag1513
ag1517
asg46
(lp1610
g2
ag102
ag187
ag227
ag251
ag253
ag265
ag289
ag307
ag315
ag327
ag355
ag375
ag391
ag397
ag427
ag431
ag435
ag493
ag1113
ag1147
ag589
ag611
ag1469
ag675
ag697
ag701
ag703
ag709
ag775
ag743
ag747
ag737
ag771
ag799
ag845
ag1395
ag911
ag925
ag927
ag953
ag785
ag981
ag989
ag991
ag1003
ag1039
ag1051
ag1311
ag1055
ag181
ag1091
ag1291
ag521
ag1167
ag715
ag1237
ag1185
ag1187
ag1221
ag1137
ag1183
ag1253
ag1273
ag1283
ag1293
ag1297
ag1327
ag849
ag553
ag411
ag1399
ag1445
ag947
ag1513
ag1517
asg108
(lp1611
g102
ag187
ag227
ag251
ag253
ag265
ag315
ag327
ag355
ag375
ag391
ag397
ag427
ag431
ag435
ag493
ag1113
ag1147
ag589
ag611
ag1469
ag697
ag701
ag703
ag709
ag775
ag743
ag747
ag737
ag771
ag799
ag845
ag911
ag925
ag927
ag953
ag785
ag981
ag989
ag991
ag1039
ag1051
ag1311
ag1055
ag1291
ag521
ag1167
ag715
ag1237
ag1185
ag1187
ag1221
ag1137
ag1183
ag1253
ag1273
ag1283
ag1293
ag1297
ag1327
ag849
ag553
ag411
ag1399
ag1445
ag947
ag1513
ag1517
asg174
(lp1612
g102
ag187
ag189
ag221
ag223
ag227
ag251
ag253
ag265
ag289
ag315
ag327
ag375
ag391
ag397
ag427
ag431
ag435
ag493
ag1147
ag589
ag611
ag1469
ag697
ag701
ag703
ag709
ag775
ag747
ag737
ag771
ag799
ag825
ag845
ag1395
ag911
ag925
ag927
ag929
ag953
ag965
ag981
ag989
ag991
ag1019
ag1039
ag1051
ag1311
ag1055
ag1291
ag1153
ag1167
ag715
ag1237
ag1185
ag1187
ag1221
ag1137
ag1183
ag1253
ag1273
ag1283
ag1293
ag1297
ag1327
ag849
ag553
ag411
ag1399
ag1445
ag947
ag1513
ag1517
asg55
(lp1613
g2
ag102
ag187
ag227
ag251
ag253
ag265
ag289
ag307
ag315
ag327
ag355
ag369
ag375
ag391
ag397
ag427
ag431
ag435
ag493
ag511
ag573
ag1147
ag589
ag611
ag1469
ag675
ag683
ag697
ag701
ag703
ag709
ag1009
ag775
ag747
ag737
ag771
ag799
ag843
ag845
ag911
ag925
ag927
ag953
ag785
ag981
ag989
ag991
ag1001
ag1003
ag1019
ag1039
ag1051
ag1311
ag1055
ag181
ag1091
ag1291
ag521
ag1167
ag715
ag1237
ag1185
ag1187
ag1221
ag1137
ag1183
ag1253
ag1273
ag1283
ag1293
ag1297
ag1327
ag849
ag553
ag411
ag1399
ag1445
ag947
ag1513
ag1517
asg91
(lp1614
g2
ag102
ag187
ag189
ag251
ag253
ag265
ag289
ag307
ag315
ag327
ag355
ag369
ag375
ag391
ag397
ag427
ag431
ag435
ag437
ag493
ag511
ag1113
ag1147
ag589
ag1469
ag675
ag683
ag697
ag701
ag703
ag709
ag775
ag747
ag737
ag771
ag799
ag845
ag911
ag925
ag927
ag933
ag953
ag785
ag981
ag983
ag989
ag991
ag1001
ag1003
ag1019
ag1039
ag1051
ag1311
ag1055
ag181
ag1091
ag1291
ag521
ag1167
ag715
ag1237
ag1185
ag1187
ag1221
ag1137
ag1183
ag1253
ag1273
ag1283
ag1293
ag1297
ag1327
ag849
ag553
ag411
ag1399
ag1445
ag947
ag1513
ag1517
asg146
(lp1615
g102
ag187
ag189
ag227
ag251
ag253
ag265
ag315
ag327
ag375
ag391
ag397
ag427
ag431
ag435
ag493
ag511
ag1147
ag589
ag611
ag1469
ag697
ag701
ag703
ag709
ag1009
ag775
ag747
ag751
ag737
ag771
ag799
ag845
ag911
ag925
ag927
ag933
ag953
ag785
ag981
ag989
ag991
ag1039
ag1051
ag1311
ag1055
ag1091
ag1291
ag521
ag1167
ag715
ag1237
ag1185
ag1187
ag1221
ag1137
ag1183
ag1253
ag1273
ag1283
ag1293
ag1297
ag1327
ag849
ag553
ag411
ag1399
ag1445
ag947
ag1513
ag1517
asg38
(lp1616
g2
ag102
ag187
ag227
ag245
ag251
ag253
ag265
ag289
ag307
ag315
ag327
ag355
ag375
ag391
ag397
ag427
ag431
ag435
ag493
ag511
ag1113
ag1147
ag589
ag611
ag1469
ag675
ag683
ag697
ag701
ag703
ag709
ag775
ag747
ag737
ag771
ag799
ag843
ag845
ag1395
ag911
ag925
ag927
ag953
ag785
ag981
ag989
ag991
ag1003
ag1019
ag1039
ag1051
ag1311
ag1055
ag181
ag1091
ag1291
ag521
ag1167
ag715
ag1237
ag1185
ag1187
ag1221
ag1137
ag1183
ag1253
ag1273
ag1283
ag1293
ag1297
ag1327
ag849
ag553
ag411
ag1399
ag1445
ag947
ag1513
ag1517
asg67
(lp1617
g2
ag102
ag187
ag189
ag251
ag253
ag265
ag289
ag307
ag315
ag327
ag369
ag375
ag391
ag397
ag427
ag431
ag435
ag493
ag511
ag1113
ag1147
ag589
ag1469
ag675
ag683
ag697
ag701
ag703
ag709
ag775
ag747
ag737
ag771
ag799
ag845
ag911
ag925
ag927
ag933
ag953
ag785
ag981
ag983
ag989
ag991
ag1001
ag1003
ag1019
ag1039
ag1051
ag1311
ag1055
ag181
ag1091
ag1291
ag521
ag1167
ag715
ag1237
ag1185
ag1187
ag1221
ag1137
ag1183
ag1253
ag1273
ag1283
ag1293
ag1297
ag1327
ag849
ag553
ag411
ag1399
ag1445
ag947
ag1513
ag1517
asg76
(lp1618
g2
ag102
ag187
ag189
ag251
ag253
ag265
ag289
ag307
ag315
ag327
ag369
ag375
ag391
ag397
ag427
ag431
ag435
ag493
ag511
ag1113
ag1147
ag589
ag1469
ag675
ag683
ag697
ag701
ag703
ag709
ag775
ag747
ag737
ag771
ag799
ag843
ag845
ag911
ag925
ag927
ag953
ag785
ag981
ag983
ag989
ag991
ag1001
ag1003
ag1019
ag1039
ag1051
ag1311
ag1055
ag181
ag1091
ag521
ag1167
ag715
ag1237
ag1185
ag1187
ag1221
ag1137
ag1183
ag1253
ag1273
ag1283
ag1293
ag1297
ag1327
ag849
ag553
ag411
ag1399
ag1445
ag947
ag1513
ag1517
asg82
(lp1619
g2
ag102
ag187
ag189
ag251
ag253
ag265
ag289
ag307
ag315
ag327
ag355
ag369
ag375
ag391
ag397
ag427
ag431
ag435
ag493
ag511
ag1113
ag1147
ag589
ag633
ag1469
ag675
ag683
ag697
ag701
ag703
ag709
ag1009
ag775
ag747
ag737
ag771
ag799
ag845
ag911
ag925
ag927
ag953
ag785
ag983
ag989
ag991
ag1003
ag1019
ag1039
ag1051
ag1311
ag1055
ag181
ag1091
ag521
ag1167
ag715
ag1237
ag1185
ag1187
ag1221
ag1137
ag1183
ag1253
ag1273
ag1283
ag1293
ag1297
ag1327
ag849
ag553
ag411
ag1399
ag1445
ag947
ag1513
ag1517
asg163
(lp1620
g102
ag187
ag189
ag227
ag251
ag253
ag265
ag289
ag315
ag327
ag369
ag375
ag391
ag397
ag427
ag431
ag435
ag493
ag511
ag1147
ag589
ag611
ag1469
ag675
ag697
ag701
ag703
ag709
ag775
ag747
ag737
ag771
ag799
ag845
ag1395
ag911
ag925
ag927
ag953
ag785
ag981
ag989
ag991
ag1001
ag1003
ag1019
ag1039
ag1051
ag1311
ag1055
ag181
ag1091
ag1291
ag521
ag1167
ag715
ag1237
ag1185
ag1187
ag1221
ag1137
ag1183
ag1253
ag1273
ag1283
ag1293
ag1297
ag1327
ag849
ag553
ag411
ag1399
ag1445
ag947
ag1513
ag1517
asg106
(lp1621
g102
ag187
ag189
ag227
ag245
ag251
ag253
ag265
ag315
ag327
ag375
ag391
ag397
ag427
ag431
ag435
ag493
ag1147
ag589
ag611
ag1469
ag675
ag697
ag701
ag703
ag709
ag775
ag747
ag737
ag771
ag799
ag843
ag845
ag911
ag925
ag927
ag953
ag785
ag981
ag989
ag991
ag1039
ag1051
ag1311
ag1055
ag181
ag1291
ag521
ag1167
ag715
ag1237
ag1185
ag1187
ag1221
ag1137
ag1183
ag1253
ag1273
ag1283
ag1293
ag1297
ag1327
ag849
ag553
ag411
ag1399
ag1445
ag947
ag1513
ag1517
asg152
(lp1622
g102
ag187
ag189
ag227
ag251
ag253
ag265
ag315
ag375
ag391
ag397
ag427
ag431
ag435
ag493
ag1147
ag589
ag611
ag1469
ag697
ag701
ag703
ag709
ag775
ag747
ag737
ag771
ag799
ag845
ag1395
ag911
ag925
ag927
ag953
ag785
ag981
ag983
ag989
ag991
ag1039
ag1051
ag1311
ag1055
ag1291
ag1167
ag715
ag1237
ag1185
ag1187
ag1221
ag1137
ag1183
ag1253
ag1273
ag1283
ag1293
ag1297
ag1327
ag849
ag553
ag411
ag1399
ag1445
ag947
ag1513
ag1517
asg131
(lp1623
g102
ag187
ag189
ag227
ag251
ag253
ag265
ag315
ag327
ag375
ag391
ag397
ag427
ag431
ag435
ag493
ag511
ag1147
ag589
ag611
ag1469
ag697
ag701
ag703
ag709
ag775
ag743
ag747
ag737
ag771
ag799
ag845
ag1395
ag911
ag925
ag927
ag933
ag953
ag785
ag981
ag989
ag991
ag1039
ag1051
ag1311
ag1055
ag1091
ag1291
ag521
ag1167
ag715
ag1237
ag1185
ag1187
ag1221
ag1137
ag1183
ag1253
ag1273
ag1283
ag1293
ag1297
ag1327
ag849
ag553
ag411
ag1399
ag1445
ag947
ag1513
ag1517
asg178
(lp1624
g102
ag187
ag189
ag221
ag223
ag227
ag251
ag253
ag265
ag289
ag315
ag327
ag375
ag391
ag397
ag427
ag431
ag435
ag493
ag1113
ag1147
ag589
ag611
ag1469
ag697
ag701
ag703
ag709
ag775
ag747
ag737
ag771
ag799
ag845
ag1395
ag911
ag925
ag927
ag929
ag953
ag965
ag981
ag989
ag991
ag1019
ag1039
ag1051
ag1311
ag1055
ag1291
ag1153
ag1167
ag715
ag1237
ag1185
ag1187
ag1221
ag1137
ag1183
ag1253
ag1273
ag1283
ag1293
ag1297
ag1327
ag849
ag553
ag411
ag1399
ag1445
ag947
ag1513
ag1517
asg26
(lp1625
g2
ag102
ag187
ag189
ag227
ag251
ag253
ag265
ag307
ag315
ag327
ag375
ag391
ag397
ag427
ag431
ag435
ag493
ag1113
ag1147
ag589
ag611
ag1469
ag675
ag697
ag701
ag703
ag709
ag775
ag747
ag737
ag771
ag799
ag843
ag845
ag911
ag925
ag927
ag953
ag785
ag981
ag989
ag991
ag1039
ag1051
ag1311
ag1055
ag181
ag1091
ag1291
ag521
ag1167
ag715
ag1237
ag1185
ag1187
ag1221
ag1137
ag1183
ag1253
ag1273
ag1283
ag1293
ag1297
ag1327
ag849
ag553
ag411
ag1399
ag1445
ag947
ag1513
ag1517
asg151
(lp1626
g102
ag187
ag189
ag221
ag227
ag251
ag253
ag265
ag315
ag327
ag355
ag375
ag391
ag397
ag427
ag431
ag435
ag493
ag1147
ag589
ag611
ag1469
ag697
ag701
ag703
ag709
ag775
ag747
ag751
ag737
ag771
ag799
ag845
ag1395
ag911
ag925
ag927
ag929
ag953
ag785
ag965
ag981
ag989
ag991
ag1039
ag1051
ag1311
ag1055
ag1291
ag1153
ag1167
ag715
ag1237
ag1185
ag1187
ag1221
ag1137
ag1183
ag1253
ag1273
ag1283
ag1293
ag1297
ag1327
ag309
ag849
ag553
ag411
ag1399
ag1445
ag947
ag1513
ag1517
asg115
(lp1627
g102
ag187
ag227
ag251
ag253
ag265
ag315
ag327
ag355
ag375
ag391
ag397
ag427
ag431
ag435
ag493
ag1113
ag1147
ag589
ag611
ag1469
ag697
ag701
ag703
ag709
ag775
ag747
ag737
ag771
ag799
ag845
ag911
ag925
ag927
ag953
ag785
ag981
ag989
ag991
ag1039
ag1051
ag1311
ag1055
ag181
ag1291
ag521
ag1167
ag715
ag1237
ag1185
ag1187
ag1221
ag1137
ag1183
ag1253
ag1273
ag1283
ag1293
ag1297
ag1327
ag849
ag553
ag411
ag1399
ag1445
ag947
ag1513
ag1517
asg170
(lp1628
g102
ag187
ag189
ag221
ag223
ag227
ag251
ag253
ag265
ag289
ag315
ag327
ag375
ag391
ag397
ag427
ag431
ag435
ag493
ag1113
ag1147
ag589
ag611
ag1469
ag697
ag701
ag703
ag709
ag775
ag747
ag737
ag771
ag799
ag825
ag845
ag1395
ag911
ag925
ag927
ag929
ag953
ag965
ag981
ag989
ag991
ag1039
ag1051
ag1311
ag1055
ag1291
ag1153
ag1167
ag715
ag1237
ag1185
ag1187
ag1221
ag1137
ag1183
ag1253
ag1273
ag1283
ag1293
ag1297
ag1327
ag849
ag553
ag411
ag1399
ag1445
ag947
ag1513
ag1517
asg121
(lp1629
g102
ag187
ag189
ag227
ag251
ag253
ag265
ag315
ag375
ag391
ag397
ag427
ag431
ag435
ag493
ag1147
ag589
ag611
ag1469
ag697
ag701
ag703
ag709
ag775
ag747
ag737
ag771
ag799
ag845
ag911
ag925
ag927
ag933
ag953
ag785
ag981
ag983
ag989
ag991
ag1039
ag1051
ag1311
ag1055
ag181
ag1291
ag1167
ag715
ag1237
ag1185
ag1187
ag1221
ag1137
ag1183
ag1253
ag1273
ag1283
ag1293
ag1297
ag1327
ag849
ag553
ag411
ag1399
ag1445
ag947
ag1513
ag1517
asg19
(lp1630
g2
ag102
ag187
ag189
ag227
ag251
ag253
ag265
ag307
ag315
ag327
ag375
ag391
ag397
ag427
ag431
ag435
ag493
ag1147
ag589
ag611
ag1469
ag675
ag697
ag701
ag703
ag709
ag775
ag747
ag737
ag771
ag799
ag843
ag845
ag911
ag925
ag927
ag953
ag785
ag981
ag989
ag991
ag1001
ag1039
ag1051
ag1311
ag1055
ag181
ag1091
ag1291
ag521
ag1167
ag715
ag1237
ag1185
ag1187
ag1221
ag1137
ag1183
ag1253
ag1273
ag1283
ag1293
ag1297
ag1327
ag849
ag553
ag411
ag1399
ag1445
ag947
ag1513
ag1517
asg114
(lp1631
g102
ag187
ag227
ag251
ag253
ag265
ag289
ag307
ag315
ag327
ag355
ag375
ag391
ag397
ag427
ag431
ag435
ag493
ag511
ag1113
ag1147
ag589
ag611
ag1469
ag675
ag697
ag701
ag703
ag709
ag775
ag743
ag747
ag737
ag771
ag799
ag845
ag1395
ag911
ag925
ag927
ag933
ag953
ag785
ag981
ag989
ag991
ag1003
ag1039
ag1051
ag1311
ag1055
ag181
ag1091
ag1291
ag521
ag1167
ag715
ag1237
ag1185
ag1187
ag1221
ag1137
ag1183
ag1253
ag1273
ag1283
ag1293
ag1297
ag1327
ag849
ag553
ag411
ag1399
ag1445
ag947
ag1513
ag1517
asg107
(lp1632
g102
ag187
ag227
ag251
ag253
ag265
ag289
ag315
ag327
ag375
ag391
ag397
ag427
ag431
ag435
ag493
ag511
ag1113
ag1147
ag589
ag611
ag1469
ag675
ag697
ag701
ag703
ag709
ag775
ag747
ag737
ag771
ag799
ag845
ag911
ag925
ag927
ag933
ag953
ag785
ag981
ag983
ag989
ag991
ag1003
ag1039
ag1051
ag1311
ag1055
ag1091
ag1291
ag521
ag1167
ag715
ag1237
ag1185
ag1187
ag1221
ag1137
ag1183
ag1253
ag1273
ag1283
ag1293
ag1297
ag1327
ag849
ag553
ag411
ag1399
ag1445
ag947
ag1513
ag1517
asg105
(lp1633
g102
ag187
ag189
ag227
ag235
ag251
ag253
ag265
ag315
ag375
ag391
ag397
ag427
ag431
ag435
ag493
ag1147
ag589
ag611
ag1469
ag675
ag697
ag701
ag703
ag709
ag775
ag747
ag737
ag771
ag799
ag845
ag911
ag925
ag927
ag953
ag785
ag981
ag983
ag989
ag991
ag1039
ag1051
ag1311
ag1055
ag181
ag1291
ag521
ag1167
ag715
ag1237
ag1185
ag1187
ag1221
ag1137
ag1183
ag1253
ag1273
ag1283
ag1293
ag1297
ag1327
ag849
ag553
ag411
ag1399
ag1445
ag947
ag1513
ag1517
asg90
(lp1634
g2
ag102
ag187
ag189
ag227
ag251
ag253
ag265
ag289
ag307
ag315
ag327
ag355
ag369
ag375
ag391
ag397
ag427
ag431
ag435
ag493
ag511
ag1147
ag589
ag1469
ag645
ag675
ag697
ag701
ag703
ag709
ag775
ag747
ag737
ag771
ag799
ag845
ag911
ag925
ag927
ag933
ag953
ag785
ag981
ag983
ag989
ag991
ag1001
ag1003
ag1019
ag1039
ag1051
ag1311
ag1055
ag181
ag1091
ag1291
ag521
ag1167
ag715
ag1237
ag1185
ag1187
ag1221
ag1137
ag1183
ag1253
ag1273
ag1283
ag1293
ag1297
ag1327
ag849
ag553
ag411
ag1399
ag1445
ag947
ag1513
ag1517
asg165
(lp1635
g102
ag187
ag189
ag221
ag227
ag251
ag253
ag265
ag315
ag327
ag375
ag391
ag397
ag427
ag431
ag435
ag493
ag1147
ag589
ag611
ag1469
ag697
ag701
ag703
ag709
ag775
ag747
ag751
ag737
ag771
ag799
ag845
ag1395
ag911
ag925
ag927
ag929
ag933
ag953
ag785
ag965
ag981
ag989
ag991
ag1039
ag1051
ag1311
ag1055
ag1291
ag1167
ag715
ag1237
ag1185
ag1187
ag1221
ag1137
ag1183
ag1253
ag1273
ag1283
ag1293
ag1297
ag1327
ag309
ag849
ag553
ag411
ag1399
ag1445
ag947
ag1513
ag1517
asg10
(lp1636
g2
ag102
ag187
ag245
ag251
ag253
ag265
ag289
ag307
ag315
ag327
ag369
ag375
ag391
ag397
ag427
ag431
ag435
ag437
ag511
ag571
ag1147
ag589
ag633
ag1469
ag1161
ag675
ag683
ag697
ag701
ag703
ag709
ag1009
ag775
ag747
ag751
ag737
ag771
ag799
ag815
ag843
ag845
ag1411
ag911
ag925
ag927
ag953
ag785
ag983
ag989
ag991
ag1001
ag1003
ag1019
ag1039
ag1051
ag1311
ag1055
ag181
ag1091
ag521
ag715
ag1237
ag1185
ag1187
ag1221
ag1137
ag1183
ag1253
ag1283
ag1297
ag1327
ag1331
ag849
ag553
ag411
ag1399
ag1445
ag947
ag1459
ag1513
ag1517
asg140
(lp1637
g102
ag187
ag189
ag227
ag251
ag253
ag265
ag315
ag375
ag391
ag397
ag423
ag427
ag431
ag435
ag493
ag1147
ag589
ag611
ag1469
ag697
ag701
ag703
ag709
ag775
ag747
ag737
ag771
ag799
ag845
ag911
ag925
ag927
ag953
ag785
ag981
ag983
ag989
ag991
ag1001
ag1039
ag1051
ag1311
ag1055
ag1291
ag1167
ag715
ag1237
ag1185
ag1187
ag1221
ag1137
ag1183
ag1253
ag1273
ag1283
ag1293
ag1297
ag1327
ag849
ag553
ag411
ag1399
ag1445
ag947
ag1513
ag1517
asg63
(lp1638
g2
ag102
ag187
ag189
ag227
ag251
ag253
ag265
ag307
ag315
ag327
ag375
ag391
ag397
ag427
ag431
ag435
ag493
ag1113
ag1147
ag589
ag611
ag1469
ag675
ag697
ag701
ag703
ag709
ag775
ag747
ag737
ag771
ag799
ag845
ag911
ag925
ag927
ag953
ag785
ag981
ag989
ag991
ag1039
ag1051
ag1311
ag1055
ag181
ag1291
ag521
ag1167
ag715
ag1237
ag1185
ag1187
ag1221
ag1137
ag1183
ag1253
ag1273
ag1283
ag1293
ag1297
ag1327
ag849
ag553
ag411
ag1399
ag1445
ag947
ag1513
ag1517
asg50
(lp1639
g2
ag102
ag187
ag227
ag251
ag253
ag265
ag307
ag315
ag327
ag375
ag391
ag397
ag427
ag431
ag435
ag493
ag1113
ag1147
ag589
ag611
ag1469
ag645
ag675
ag697
ag701
ag703
ag709
ag775
ag747
ag737
ag771
ag799
ag845
ag911
ag925
ag927
ag953
ag785
ag981
ag989
ag991
ag1039
ag1051
ag1311
ag1055
ag181
ag1091
ag1291
ag521
ag1167
ag715
ag1237
ag1185
ag1187
ag1221
ag1137
ag1183
ag1253
ag1273
ag1283
ag1293
ag1297
ag1327
ag849
ag553
ag411
ag1399
ag1445
ag947
ag1513
ag1517
asg159
(lp1640
g102
ag187
ag189
ag227
ag251
ag253
ag265
ag315
ag375
ag391
ag397
ag423
ag427
ag431
ag435
ag493
ag1147
ag589
ag611
ag1469
ag697
ag701
ag703
ag709
ag775
ag747
ag737
ag771
ag799
ag845
ag911
ag925
ag927
ag953
ag785
ag981
ag983
ag989
ag991
ag1039
ag1051
ag1311
ag1055
ag1291
ag1167
ag715
ag1237
ag1185
ag1187
ag1221
ag1137
ag1183
ag1253
ag1273
ag1283
ag1293
ag1297
ag1327
ag849
ag553
ag411
ag1399
ag1445
ag947
ag1513
ag1517
asg66
(lp1641
g2
ag102
ag187
ag189
ag227
ag251
ag253
ag265
ag315
ag375
ag391
ag397
ag427
ag431
ag435
ag493
ag1147
ag589
ag611
ag1469
ag675
ag697
ag701
ag703
ag709
ag775
ag747
ag737
ag771
ag799
ag845
ag911
ag925
ag927
ag953
ag785
ag981
ag983
ag989
ag991
ag1039
ag1051
ag1311
ag1055
ag181
ag1291
ag521
ag1167
ag715
ag1237
ag1185
ag1187
ag1221
ag1137
ag1183
ag1253
ag1273
ag1283
ag1293
ag1297
ag1327
ag849
ag553
ag411
ag1399
ag1445
ag947
ag1513
ag1517
asg42
(lp1642
g2
ag102
ag187
ag251
ag253
ag265
ag289
ag307
ag315
ag327
ag369
ag375
ag391
ag397
ag427
ag431
ag435
ag493
ag511
ag1113
ag571
ag573
ag1147
ag589
ag1469
ag675
ag683
ag697
ag701
ag703
ag709
ag1009
ag775
ag747
ag751
ag737
ag771
ag799
ag845
ag911
ag925
ag927
ag953
ag785
ag983
ag989
ag991
ag1003
ag1019
ag1039
ag1051
ag1311
ag1055
ag181
ag1091
ag521
ag1167
ag715
ag1237
ag1185
ag1187
ag1221
ag1137
ag1183
ag1253
ag1273
ag1283
ag1297
ag1327
ag849
ag553
ag411
ag1399
ag1445
ag947
ag1513
ag1517
asg85
(lp1643
g2
ag102
ag187
ag189
ag227
ag251
ag253
ag265
ag315
ag327
ag375
ag391
ag397
ag427
ag431
ag435
ag493
ag1147
ag589
ag611
ag1469
ag675
ag697
ag701
ag703
ag709
ag775
ag747
ag737
ag771
ag799
ag845
ag911
ag925
ag927
ag953
ag785
ag981
ag989
ag991
ag1039
ag1051
ag1311
ag1055
ag181
ag1291
ag521
ag1167
ag715
ag1237
ag1185
ag1187
ag1221
ag1137
ag1183
ag1253
ag1273
ag1283
ag1293
ag1297
ag1327
ag849
ag553
ag411
ag1399
ag1445
ag947
ag1513
ag1517
asg72
(lp1644
g2
ag102
ag187
ag189
ag227
ag251
ag253
ag265
ag307
ag315
ag327
ag375
ag391
ag397
ag427
ag431
ag435
ag493
ag1113
ag1147
ag589
ag611
ag1469
ag675
ag697
ag701
ag703
ag709
ag775
ag747
ag737
ag771
ag799
ag845
ag911
ag925
ag927
ag953
ag785
ag981
ag989
ag991
ag1039
ag1051
ag1311
ag1055
ag181
ag1291
ag521
ag1167
ag715
ag1237
ag1185
ag1187
ag1221
ag1137
ag1183
ag1253
ag1273
ag1283
ag1293
ag1297
ag1327
ag849
ag553
ag411
ag1399
ag1445
ag947
ag1513
ag1517
asg44
(lp1645
g2
ag102
ag187
ag227
ag251
ag253
ag265
ag289
ag307
ag315
ag327
ag355
ag375
ag391
ag397
ag427
ag431
ag435
ag493
ag1113
ag1147
ag589
ag611
ag1469
ag675
ag697
ag701
ag703
ag709
ag775
ag743
ag747
ag737
ag771
ag799
ag843
ag845
ag1395
ag911
ag925
ag927
ag953
ag785
ag981
ag989
ag991
ag1003
ag1019
ag1039
ag1051
ag1311
ag1055
ag181
ag1091
ag1291
ag521
ag1167
ag715
ag1237
ag1185
ag1187
ag1221
ag1137
ag1183
ag1253
ag1273
ag1283
ag1293
ag1297
ag1327
ag849
ag553
ag411
ag1399
ag1445
ag947
ag1513
ag1517
asg47
(lp1646
g2
ag102
ag187
ag189
ag227
ag251
ag253
ag265
ag307
ag315
ag327
ag375
ag391
ag397
ag427
ag431
ag435
ag493
ag1147
ag589
ag611
ag1469
ag675
ag697
ag701
ag703
ag709
ag775
ag747
ag737
ag771
ag799
ag845
ag911
ag925
ag927
ag953
ag785
ag981
ag989
ag991
ag1039
ag1051
ag1311
ag1055
ag181
ag1291
ag521
ag1167
ag715
ag1237
ag1185
ag1187
ag1221
ag1137
ag1183
ag1253
ag1273
ag1283
ag1293
ag1297
ag1327
ag849
ag553
ag411
ag1399
ag1445
ag947
ag1513
ag1517
asg95
(lp1647
g2
ag102
ag187
ag189
ag227
ag251
ag253
ag265
ag289
ag307
ag315
ag327
ag355
ag375
ag391
ag397
ag427
ag431
ag435
ag493
ag511
ag1147
ag589
ag611
ag1469
ag645
ag697
ag701
ag703
ag709
ag775
ag747
ag751
ag737
ag771
ag799
ag845
ag911
ag925
ag927
ag933
ag953
ag785
ag981
ag983
ag989
ag991
ag1001
ag1003
ag1039
ag1051
ag1311
ag1055
ag181
ag1091
ag1291
ag521
ag1167
ag715
ag1237
ag1185
ag1187
ag1221
ag1137
ag1183
ag1253
ag1273
ag1283
ag1293
ag1297
ag1327
ag849
ag553
ag411
ag1399
ag1445
ag947
ag1513
ag1517
asg124
(lp1648
g102
ag187
ag189
ag227
ag251
ag253
ag265
ag289
ag307
ag315
ag327
ag369
ag375
ag391
ag397
ag427
ag431
ag435
ag493
ag511
ag1147
ag589
ag611
ag1469
ag675
ag683
ag697
ag701
ag703
ag709
ag775
ag747
ag737
ag771
ag799
ag845
ag911
ag925
ag927
ag953
ag785
ag983
ag989
ag991
ag1003
ag1019
ag1039
ag1051
ag1311
ag1055
ag181
ag1091
ag521
ag1167
ag715
ag1237
ag1185
ag1187
ag1221
ag1137
ag1183
ag1253
ag1273
ag1283
ag1293
ag1297
ag1327
ag849
ag553
ag411
ag1399
ag1445
ag947
ag1513
ag1517
asg14
(lp1649
g2
ag102
ag187
ag227
ag251
ag253
ag265
ag289
ag307
ag315
ag327
ag355
ag369
ag375
ag391
ag397
ag427
ag431
ag435
ag493
ag511
ag1147
ag589
ag611
ag1469
ag675
ag683
ag697
ag701
ag703
ag709
ag1009
ag775
ag747
ag737
ag771
ag799
ag843
ag845
ag1395
ag911
ag925
ag927
ag953
ag785
ag981
ag989
ag991
ag1001
ag1003
ag1019
ag1039
ag1051
ag1311
ag1055
ag181
ag1091
ag1291
ag521
ag1167
ag715
ag1237
ag1185
ag1187
ag1221
ag1137
ag1183
ag1253
ag1273
ag1283
ag1293
ag1297
ag1327
ag849
ag553
ag411
ag1399
ag1445
ag947
ag1513
ag1517
asg57
(lp1650
g2
ag102
ag187
ag227
ag245
ag251
ag253
ag265
ag289
ag307
ag315
ag327
ag355
ag369
ag375
ag391
ag397
ag427
ag431
ag435
ag493
ag511
ag573
ag1147
ag589
ag611
ag1469
ag675
ag683
ag697
ag701
ag703
ag709
ag1009
ag775
ag747
ag737
ag771
ag799
ag843
ag845
ag1395
ag911
ag925
ag927
ag953
ag785
ag981
ag989
ag991
ag1003
ag1019
ag1039
ag1051
ag1311
ag1055
ag181
ag1091
ag1291
ag521
ag1167
ag715
ag1237
ag1185
ag1187
ag1221
ag1137
ag1183
ag1253
ag1273
ag1283
ag1293
ag1297
ag1327
ag849
ag553
ag411
ag1399
ag1445
ag947
ag1513
ag1517
asg94
(lp1651
g2
ag102
ag187
ag189
ag227
ag251
ag253
ag265
ag289
ag307
ag315
ag327
ag369
ag375
ag391
ag397
ag427
ag431
ag435
ag493
ag511
ag1113
ag1147
ag589
ag611
ag1469
ag675
ag697
ag701
ag703
ag709
ag775
ag747
ag737
ag771
ag799
ag845
ag911
ag925
ag927
ag933
ag953
ag785
ag981
ag983
ag989
ag991
ag1001
ag1003
ag1039
ag1051
ag1311
ag1055
ag181
ag1091
ag1291
ag521
ag1167
ag715
ag1237
ag1185
ag1187
ag1221
ag1137
ag1183
ag1253
ag1273
ag1283
ag1293
ag1297
ag1327
ag849
ag553
ag411
ag1399
ag1445
ag947
ag1513
ag1517
asg59
(lp1652
g2
ag102
ag187
ag251
ag253
ag265
ag289
ag307
ag315
ag327
ag369
ag375
ag391
ag397
ag427
ag431
ag435
ag493
ag511
ag1147
ag589
ag1469
ag675
ag683
ag697
ag701
ag703
ag709
ag1009
ag775
ag747
ag737
ag771
ag799
ag843
ag845
ag911
ag925
ag927
ag953
ag785
ag981
ag983
ag989
ag991
ag1001
ag1003
ag1019
ag1039
ag1051
ag1311
ag1055
ag181
ag1091
ag521
ag1167
ag715
ag1237
ag1185
ag1187
ag1221
ag1137
ag1183
ag1253
ag1273
ag1283
ag1293
ag1297
ag1327
ag849
ag553
ag411
ag1399
ag1445
ag947
ag1513
ag1517
asg30
(lp1653
g2
ag102
ag187
ag227
ag251
ag253
ag265
ag289
ag307
ag315
ag327
ag355
ag375
ag391
ag397
ag427
ag431
ag435
ag493
ag1147
ag589
ag611
ag1469
ag675
ag683
ag697
ag701
ag703
ag709
ag1009
ag775
ag747
ag737
ag771
ag799
ag843
ag845
ag911
ag925
ag927
ag953
ag785
ag981
ag989
ag991
ag1001
ag1003
ag1019
ag1039
ag1051
ag1311
ag1055
ag181
ag1091
ag1291
ag521
ag1167
ag715
ag1237
ag1185
ag1187
ag1221
ag1137
ag1183
ag1253
ag1273
ag1283
ag1293
ag1297
ag1327
ag849
ag553
ag411
ag1399
ag1445
ag947
ag1513
ag1517
asg153
(lp1654
g102
ag187
ag189
ag223
ag227
ag251
ag253
ag265
ag289
ag315
ag327
ag375
ag391
ag397
ag423
ag427
ag431
ag435
ag493
ag511
ag1147
ag589
ag611
ag1469
ag675
ag697
ag701
ag703
ag709
ag775
ag747
ag737
ag771
ag799
ag845
ag1395
ag911
ag925
ag927
ag953
ag981
ag989
ag991
ag1001
ag1019
ag1039
ag1051
ag1311
ag1055
ag1091
ag1291
ag1153
ag1167
ag715
ag1237
ag1185
ag1187
ag1221
ag1137
ag1183
ag1253
ag1273
ag1283
ag1293
ag1297
ag1327
ag849
ag553
ag411
ag1399
ag1445
ag947
ag1513
ag1517
asg119
(lp1655
g102
ag187
ag189
ag227
ag251
ag253
ag265
ag315
ag327
ag375
ag391
ag397
ag427
ag431
ag435
ag493
ag511
ag1147
ag589
ag611
ag1469
ag697
ag701
ag703
ag709
ag1009
ag775
ag747
ag737
ag771
ag799
ag845
ag911
ag925
ag927
ag933
ag953
ag785
ag981
ag989
ag991
ag1039
ag1051
ag1311
ag1055
ag1091
ag1291
ag521
ag1167
ag715
ag1237
ag1185
ag1187
ag1221
ag1137
ag1183
ag1253
ag1273
ag1283
ag1293
ag1297
ag1327
ag849
ag553
ag411
ag1399
ag1445
ag947
ag1513
ag1517
asg7
(lp1656
g2
ag102
ag187
ag189
ag227
ag245
ag251
ag253
ag265
ag307
ag315
ag327
ag375
ag391
ag397
ag427
ag431
ag435
ag493
ag1147
ag589
ag611
ag1469
ag675
ag697
ag701
ag703
ag709
ag775
ag747
ag737
ag771
ag799
ag843
ag845
ag911
ag925
ag927
ag953
ag785
ag981
ag989
ag991
ag1001
ag1039
ag1051
ag1311
ag1055
ag181
ag1091
ag1291
ag521
ag1167
ag715
ag1237
ag1185
ag1187
ag1221
ag1137
ag1183
ag1253
ag1273
ag1283
ag1293
ag1297
ag1327
ag849
ag553
ag411
ag1399
ag1445
ag947
ag1513
ag1517
asg97
(lp1657
g2
ag102
ag187
ag189
ag221
ag227
ag251
ag253
ag265
ag315
ag327
ag355
ag375
ag391
ag397
ag427
ag431
ag435
ag493
ag511
ag1147
ag589
ag611
ag1469
ag697
ag701
ag703
ag709
ag775
ag747
ag751
ag737
ag771
ag799
ag845
ag911
ag925
ag927
ag953
ag785
ag981
ag983
ag989
ag991
ag1001
ag1039
ag1051
ag1311
ag1055
ag1091
ag1291
ag1153
ag1167
ag715
ag1237
ag1185
ag1187
ag1221
ag1137
ag1183
ag1253
ag1273
ag1283
ag1293
ag1297
ag1327
ag849
ag553
ag411
ag1399
ag1445
ag947
ag1513
ag1517
asg40
(lp1658
g2
ag102
ag187
ag227
ag251
ag253
ag265
ag289
ag307
ag315
ag327
ag375
ag391
ag397
ag427
ag431
ag435
ag493
ag1113
ag1147
ag589
ag611
ag1469
ag645
ag675
ag697
ag701
ag703
ag709
ag775
ag747
ag737
ag771
ag799
ag843
ag845
ag911
ag925
ag927
ag953
ag785
ag981
ag989
ag991
ag1039
ag1051
ag1311
ag1055
ag181
ag1091
ag1291
ag521
ag1167
ag715
ag1237
ag1185
ag1187
ag1221
ag1137
ag1183
ag1253
ag1273
ag1283
ag1293
ag1297
ag1327
ag849
ag553
ag411
ag1399
ag1445
ag947
ag1513
ag1517
asg166
(lp1659
g102
ag187
ag189
ag223
ag227
ag251
ag253
ag265
ag289
ag315
ag327
ag355
ag375
ag391
ag397
ag423
ag427
ag431
ag435
ag493
ag1147
ag589
ag611
ag1469
ag697
ag701
ag703
ag709
ag775
ag747
ag737
ag771
ag799
ag845
ag1395
ag911
ag925
ag927
ag929
ag953
ag785
ag965
ag981
ag989
ag991
ag1001
ag1039
ag1051
ag1311
ag1055
ag1091
ag1291
ag1153
ag1167
ag715
ag1237
ag1185
ag1187
ag1221
ag1137
ag1183
ag1253
ag1273
ag1283
ag1293
ag1297
ag1327
ag849
ag553
ag411
ag1399
ag1445
ag947
ag1513
ag1517
asg34
(lp1660
g2
ag102
ag187
ag221
ag227
ag245
ag251
ag253
ag265
ag289
ag307
ag315
ag327
ag355
ag369
ag375
ag391
ag397
ag427
ag431
ag435
ag493
ag511
ag1113
ag573
ag1147
ag589
ag1469
ag675
ag683
ag697
ag701
ag703
ag709
ag775
ag747
ag737
ag771
ag799
ag843
ag845
ag911
ag925
ag927
ag953
ag785
ag981
ag989
ag991
ag1001
ag1003
ag1019
ag1039
ag1051
ag1311
ag1055
ag181
ag1091
ag1291
ag521
ag1167
ag715
ag1237
ag1185
ag1187
ag1221
ag1137
ag1183
ag1253
ag1273
ag1283
ag1293
ag1297
ag1327
ag849
ag553
ag411
ag1399
ag1445
ag947
ag1513
ag1517
asg157
(lp1661
g102
ag187
ag189
ag227
ag251
ag253
ag265
ag289
ag307
ag315
ag327
ag369
ag375
ag391
ag397
ag427
ag431
ag435
ag493
ag511
ag1147
ag589
ag611
ag1469
ag675
ag697
ag701
ag703
ag709
ag775
ag747
ag737
ag771
ag799
ag845
ag911
ag925
ag927
ag953
ag785
ag989
ag991
ag1003
ag1019
ag1039
ag1051
ag1311
ag1055
ag181
ag1091
ag521
ag1167
ag715
ag1237
ag1185
ag1187
ag1221
ag1137
ag1183
ag1253
ag1273
ag1283
ag1293
ag1297
ag1327
ag849
ag553
ag411
ag1399
ag1445
ag947
ag1513
ag1517
asg36
(lp1662
g2
ag102
ag187
ag227
ag251
ag253
ag265
ag289
ag307
ag315
ag327
ag375
ag391
ag397
ag427
ag431
ag435
ag493
ag1113
ag1147
ag589
ag611
ag1469
ag645
ag675
ag697
ag701
ag703
ag709
ag775
ag747
ag737
ag771
ag799
ag843
ag845
ag911
ag925
ag927
ag953
ag785
ag981
ag989
ag991
ag1003
ag1019
ag1039
ag1051
ag1311
ag1055
ag181
ag1091
ag1291
ag521
ag1167
ag715
ag1237
ag1185
ag1187
ag1221
ag1137
ag1183
ag1253
ag1273
ag1283
ag1293
ag1297
ag1327
ag849
ag553
ag411
ag1399
ag1445
ag947
ag1513
ag1517
asg92
(lp1663
g2
ag102
ag187
ag189
ag251
ag253
ag265
ag289
ag307
ag315
ag327
ag355
ag369
ag375
ag391
ag397
ag427
ag431
ag435
ag493
ag511
ag1147
ag589
ag633
ag1469
ag675
ag683
ag697
ag701
ag703
ag709
ag775
ag747
ag737
ag771
ag799
ag845
ag911
ag925
ag927
ag953
ag785
ag981
ag983
ag989
ag991
ag1003
ag1019
ag1039
ag1051
ag1311
ag1055
ag181
ag1091
ag521
ag1167
ag715
ag1237
ag1185
ag1187
ag1221
ag1137
ag1183
ag1253
ag1273
ag1283
ag1293
ag1297
ag1327
ag849
ag553
ag411
ag1399
ag1445
ag947
ag1513
ag1517
asg143
(lp1664
g102
ag187
ag189
ag227
ag235
ag251
ag253
ag265
ag289
ag307
ag315
ag327
ag369
ag375
ag391
ag397
ag427
ag431
ag435
ag493
ag511
ag1147
ag589
ag611
ag1469
ag675
ag683
ag697
ag701
ag703
ag709
ag775
ag747
ag737
ag771
ag799
ag845
ag911
ag925
ag927
ag953
ag785
ag981
ag983
ag989
ag991
ag1003
ag1019
ag1039
ag1051
ag1311
ag1055
ag181
ag1091
ag521
ag1167
ag715
ag1237
ag1185
ag1187
ag1221
ag1137
ag1183
ag1253
ag1273
ag1283
ag1293
ag1297
ag1327
ag849
ag553
ag411
ag1399
ag1445
ag947
ag1513
ag1517
asg160
(lp1665
g102
ag187
ag189
ag227
ag251
ag253
ag265
ag315
ag375
ag391
ag397
ag427
ag431
ag435
ag493
ag1147
ag589
ag611
ag1469
ag697
ag701
ag703
ag709
ag775
ag743
ag747
ag737
ag771
ag799
ag845
ag1395
ag911
ag925
ag927
ag929
ag953
ag785
ag981
ag983
ag989
ag991
ag1039
ag1051
ag1311
ag1055
ag1291
ag1167
ag715
ag1237
ag1185
ag1187
ag1221
ag1137
ag1183
ag1253
ag1273
ag1283
ag1293
ag1297
ag1327
ag849
ag553
ag411
ag1399
ag1445
ag947
ag1513
ag1517
asg53
(lp1666
g2
ag102
ag187
ag251
ag253
ag265
ag289
ag307
ag315
ag327
ag355
ag369
ag375
ag391
ag397
ag427
ag431
ag435
ag493
ag511
ag1147
ag589
ag1469
ag675
ag683
ag697
ag701
ag703
ag709
ag1009
ag775
ag747
ag737
ag771
ag799
ag843
ag845
ag911
ag925
ag927
ag953
ag785
ag981
ag989
ag991
ag1001
ag1003
ag1019
ag1039
ag1051
ag1311
ag1055
ag181
ag1091
ag521
ag1167
ag715
ag1237
ag1185
ag1187
ag1221
ag1137
ag1183
ag1253
ag1273
ag1283
ag1293
ag1297
ag1327
ag849
ag553
ag411
ag1399
ag1445
ag947
ag1513
ag1517
asg155
(lp1667
g102
ag187
ag189
ag227
ag251
ag253
ag265
ag289
ag307
ag315
ag327
ag355
ag369
ag375
ag391
ag397
ag427
ag431
ag435
ag493
ag511
ag1147
ag589
ag611
ag1469
ag675
ag697
ag701
ag703
ag709
ag775
ag747
ag737
ag771
ag799
ag845
ag911
ag925
ag927
ag953
ag785
ag981
ag983
ag989
ag991
ag1001
ag1019
ag1039
ag1051
ag1311
ag1055
ag181
ag1091
ag1291
ag521
ag1153
ag1167
ag715
ag1237
ag1185
ag1187
ag1221
ag1137
ag1183
ag1253
ag1273
ag1283
ag1293
ag1297
ag1327
ag849
ag553
ag411
ag1399
ag1445
ag947
ag1513
ag1517
asg122
(lp1668
g102
ag187
ag189
ag227
ag251
ag253
ag265
ag315
ag327
ag375
ag391
ag397
ag427
ag431
ag435
ag493
ag511
ag571
ag1147
ag589
ag611
ag1469
ag697
ag701
ag703
ag709
ag1009
ag775
ag743
ag747
ag737
ag771
ag799
ag845
ag1395
ag911
ag925
ag927
ag933
ag953
ag785
ag981
ag989
ag991
ag1039
ag1051
ag1311
ag1055
ag1091
ag1291
ag521
ag1167
ag715
ag1237
ag1185
ag1187
ag1221
ag1137
ag1183
ag1253
ag1273
ag1283
ag1293
ag1297
ag1327
ag849
ag553
ag411
ag1399
ag1445
ag947
ag1513
ag1517
asg69
(lp1669
g2
ag102
ag187
ag251
ag253
ag265
ag289
ag307
ag315
ag327
ag355
ag369
ag375
ag391
ag397
ag427
ag431
ag435
ag437
ag493
ag511
ag1113
ag1147
ag589
ag633
ag1469
ag675
ag683
ag697
ag701
ag703
ag709
ag775
ag747
ag737
ag771
ag799
ag843
ag845
ag911
ag925
ag927
ag953
ag785
ag981
ag983
ag989
ag991
ag1003
ag1019
ag1039
ag1051
ag1311
ag1055
ag181
ag1091
ag521
ag1167
ag715
ag1237
ag1185
ag1187
ag1221
ag1137
ag1183
ag1253
ag1273
ag1283
ag1293
ag1297
ag1327
ag849
ag553
ag411
ag1399
ag1445
ag947
ag1513
ag1517
asg52
(lp1670
g2
ag102
ag187
ag227
ag251
ag253
ag265
ag289
ag307
ag315
ag327
ag375
ag391
ag397
ag427
ag431
ag435
ag493
ag1147
ag589
ag611
ag1469
ag675
ag697
ag701
ag703
ag709
ag1009
ag775
ag747
ag737
ag771
ag799
ag843
ag845
ag911
ag925
ag927
ag953
ag785
ag981
ag983
ag989
ag991
ag1001
ag1003
ag1019
ag1039
ag1051
ag1311
ag1055
ag181
ag1091
ag1291
ag521
ag1167
ag715
ag1237
ag1185
ag1187
ag1221
ag1137
ag1183
ag1253
ag1273
ag1283
ag1293
ag1297
ag1327
ag849
ag553
ag411
ag1399
ag1445
ag947
ag1513
ag1517
asg88
(lp1671
g2
ag102
ag187
ag189
ag227
ag251
ag253
ag265
ag315
ag327
ag355
ag375
ag391
ag397
ag427
ag431
ag435
ag493
ag511
ag1113
ag1147
ag589
ag611
ag1469
ag697
ag701
ag703
ag709
ag1009
ag775
ag747
ag751
ag737
ag771
ag799
ag845
ag911
ag925
ag927
ag933
ag953
ag785
ag981
ag983
ag989
ag991
ag1001
ag1003
ag1039
ag1051
ag1311
ag1055
ag1091
ag1291
ag521
ag1167
ag715
ag1237
ag1185
ag1187
ag1221
ag1137
ag1183
ag1253
ag1273
ag1283
ag1293
ag1297
ag1327
ag849
ag553
ag411
ag1399
ag1445
ag947
ag1513
ag1517
asg150
(lp1672
g102
ag187
ag189
ag227
ag251
ag253
ag265
ag315
ag327
ag375
ag391
ag397
ag427
ag431
ag435
ag493
ag1147
ag589
ag611
ag1469
ag697
ag701
ag703
ag709
ag775
ag747
ag751
ag737
ag771
ag799
ag845
ag1395
ag911
ag925
ag927
ag929
ag933
ag953
ag785
ag965
ag981
ag989
ag991
ag1039
ag1051
ag1311
ag1055
ag1291
ag1167
ag715
ag1237
ag1185
ag1187
ag1221
ag1137
ag1183
ag1253
ag1273
ag1283
ag1293
ag1297
ag1327
ag309
ag849
ag553
ag411
ag1399
ag1445
ag947
ag1513
ag1517
asg83
(lp1673
g2
ag102
ag187
ag251
ag253
ag265
ag289
ag307
ag315
ag327
ag369
ag375
ag391
ag397
ag427
ag431
ag435
ag437
ag493
ag511
ag1113
ag1147
ag589
ag1469
ag675
ag683
ag697
ag701
ag703
ag709
ag775
ag747
ag737
ag771
ag799
ag843
ag845
ag911
ag925
ag927
ag953
ag785
ag981
ag983
ag989
ag991
ag1001
ag1003
ag1019
ag1039
ag1051
ag1311
ag1055
ag181
ag1091
ag521
ag1167
ag715
ag1237
ag1185
ag1187
ag1221
ag1137
ag1183
ag1253
ag1273
ag1283
ag1293
ag1297
ag1327
ag849
ag553
ag411
ag1399
ag1445
ag947
ag1513
ag1517
asg27
(lp1674
g2
ag102
ag187
ag227
ag251
ag253
ag265
ag289
ag307
ag315
ag327
ag375
ag391
ag397
ag427
ag431
ag435
ag493
ag1147
ag589
ag611
ag1469
ag675
ag683
ag697
ag701
ag703
ag709
ag1009
ag775
ag747
ag737
ag771
ag799
ag843
ag845
ag911
ag925
ag927
ag953
ag785
ag981
ag983
ag989
ag991
ag1001
ag1003
ag1019
ag1039
ag1051
ag1311
ag1055
ag181
ag1091
ag1291
ag521
ag1167
ag715
ag1237
ag1185
ag1187
ag1221
ag1137
ag1183
ag1253
ag1273
ag1283
ag1293
ag1297
ag1327
ag849
ag553
ag411
ag1399
ag1445
ag947
ag1513
ag1517
asg144
(lp1675
g102
ag187
ag189
ag227
ag251
ag253
ag265
ag315
ag327
ag375
ag391
ag397
ag427
ag431
ag435
ag493
ag1147
ag589
ag611
ag1469
ag697
ag701
ag703
ag709
ag775
ag747
ag737
ag771
ag799
ag845
ag1395
ag911
ag925
ag927
ag933
ag953
ag785
ag981
ag983
ag989
ag991
ag1039
ag1051
ag1311
ag1055
ag1291
ag1167
ag715
ag1237
ag1185
ag1187
ag1221
ag1137
ag1183
ag1253
ag1273
ag1283
ag1293
ag1297
ag1327
ag849
ag553
ag411
ag1399
ag1445
ag947
ag1513
ag1517
asg9
(lp1676
g2
ag102
ag187
ag245
ag251
ag253
ag265
ag289
ag307
ag315
ag327
ag369
ag375
ag391
ag397
ag427
ag431
ag435
ag437
ag511
ag1113
ag571
ag573
ag1147
ag589
ag633
ag1469
ag645
ag1161
ag675
ag683
ag697
ag701
ag703
ag709
ag1009
ag775
ag747
ag751
ag737
ag771
ag799
ag815
ag843
ag845
ag1411
ag911
ag925
ag927
ag953
ag785
ag983
ag989
ag991
ag1001
ag1003
ag1019
ag1039
ag1051
ag1311
ag1055
ag181
ag1091
ag521
ag715
ag1237
ag1185
ag1187
ag1221
ag1137
ag1183
ag1253
ag1283
ag1297
ag1327
ag1331
ag849
ag553
ag411
ag1399
ag1445
ag947
ag1459
ag1513
ag1517
asg112
(lp1677
g102
ag187
ag227
ag251
ag253
ag265
ag315
ag327
ag355
ag375
ag391
ag397
ag427
ag431
ag435
ag493
ag1113
ag1147
ag589
ag611
ag1469
ag697
ag701
ag703
ag709
ag775
ag743
ag747
ag737
ag771
ag799
ag845
ag1395
ag911
ag925
ag927
ag933
ag953
ag785
ag981
ag989
ag991
ag1003
ag1039
ag1051
ag1311
ag1055
ag1091
ag1291
ag521
ag1167
ag715
ag1237
ag1185
ag1187
ag1221
ag1137
ag1183
ag1253
ag1273
ag1283
ag1293
ag1297
ag1327
ag849
ag553
ag411
ag1399
ag1445
ag947
ag1513
ag1517
asg45
(lp1678
g2
ag102
ag187
ag189
ag227
ag251
ag253
ag265
ag307
ag315
ag327
ag375
ag391
ag397
ag427
ag431
ag435
ag493
ag1147
ag589
ag611
ag1469
ag675
ag697
ag701
ag703
ag709
ag775
ag747
ag737
ag771
ag799
ag845
ag911
ag925
ag927
ag953
ag785
ag981
ag989
ag991
ag1039
ag1051
ag1311
ag1055
ag181
ag1291
ag521
ag1167
ag715
ag1237
ag1185
ag1187
ag1221
ag1137
ag1183
ag1253
ag1273
ag1283
ag1293
ag1297
ag1327
ag849
ag553
ag411
ag1399
ag1445
ag947
ag1513
ag1517
asg134
(lp1679
g102
ag187
ag189
ag227
ag251
ag253
ag265
ag315
ag375
ag391
ag397
ag427
ag431
ag435
ag493
ag1147
ag589
ag611
ag1469
ag697
ag701
ag703
ag709
ag775
ag747
ag737
ag771
ag799
ag845
ag911
ag925
ag927
ag933
ag953
ag785
ag981
ag983
ag989
ag991
ag1039
ag1051
ag1311
ag1055
ag1291
ag1167
ag715
ag1237
ag1185
ag1187
ag1221
ag1137
ag1183
ag1253
ag1273
ag1283
ag1293
ag1297
ag1327
ag849
ag553
ag411
ag1399
ag1445
ag947
ag1513
ag1517
asg79
(lp1680
g2
ag102
ag187
ag251
ag253
ag265
ag289
ag307
ag315
ag327
ag369
ag375
ag391
ag397
ag427
ag431
ag435
ag493
ag511
ag1113
ag1147
ag589
ag1469
ag675
ag683
ag697
ag701
ag703
ag709
ag775
ag747
ag737
ag771
ag799
ag843
ag845
ag911
ag925
ag927
ag953
ag785
ag981
ag983
ag989
ag991
ag1001
ag1003
ag1019
ag1039
ag1051
ag1311
ag1055
ag181
ag1091
ag521
ag1167
ag715
ag1237
ag1185
ag1187
ag1221
ag1137
ag1183
ag1253
ag1273
ag1283
ag1293
ag1297
ag1327
ag849
ag553
ag411
ag1399
ag1445
ag947
ag1513
ag1517
asg135
(lp1681
g102
ag187
ag189
ag227
ag251
ag253
ag265
ag315
ag327
ag375
ag391
ag397
ag427
ag431
ag435
ag493
ag511
ag1147
ag589
ag611
ag1469
ag697
ag701
ag703
ag709
ag1009
ag775
ag747
ag751
ag737
ag771
ag799
ag845
ag911
ag925
ag927
ag933
ag953
ag785
ag981
ag983
ag989
ag991
ag1039
ag1051
ag1311
ag1055
ag1091
ag1291
ag521
ag1167
ag715
ag1237
ag1185
ag1187
ag1221
ag1137
ag1183
ag1253
ag1273
ag1283
ag1293
ag1297
ag1327
ag849
ag553
ag411
ag1399
ag1445
ag947
ag1513
ag1517
asg87
(lp1682
g2
ag102
ag187
ag189
ag251
ag253
ag265
ag289
ag307
ag315
ag327
ag355
ag369
ag375
ag391
ag397
ag427
ag431
ag435
ag493
ag511
ag1147
ag589
ag633
ag1469
ag675
ag683
ag697
ag701
ag703
ag709
ag775
ag747
ag737
ag771
ag799
ag845
ag911
ag925
ag927
ag953
ag785
ag981
ag983
ag989
ag991
ag1001
ag1003
ag1019
ag1039
ag1051
ag1311
ag1055
ag181
ag1091
ag1291
ag521
ag1167
ag715
ag1237
ag1185
ag1187
ag1221
ag1137
ag1183
ag1253
ag1273
ag1283
ag1293
ag1297
ag1327
ag849
ag553
ag411
ag1399
ag1445
ag947
ag1513
ag1517
asg81
(lp1683
g2
ag102
ag187
ag221
ag227
ag251
ag253
ag265
ag289
ag307
ag315
ag327
ag375
ag391
ag397
ag427
ag431
ag435
ag493
ag511
ag1113
ag1147
ag589
ag611
ag1469
ag675
ag683
ag697
ag701
ag703
ag709
ag775
ag747
ag737
ag771
ag799
ag845
ag911
ag925
ag927
ag933
ag953
ag785
ag981
ag983
ag989
ag991
ag1001
ag1003
ag1019
ag1039
ag1051
ag1311
ag1055
ag181
ag1091
ag1291
ag521
ag1167
ag715
ag1237
ag1185
ag1187
ag1221
ag1137
ag1183
ag1253
ag1273
ag1283
ag1293
ag1297
ag1327
ag849
ag553
ag411
ag1399
ag1445
ag947
ag1513
ag1517
asg23
(lp1684
g2
ag102
ag187
ag251
ag253
ag265
ag289
ag307
ag315
ag327
ag369
ag375
ag391
ag397
ag427
ag431
ag435
ag493
ag511
ag1147
ag589
ag1469
ag675
ag683
ag697
ag701
ag703
ag709
ag1009
ag775
ag747
ag737
ag771
ag799
ag843
ag845
ag911
ag925
ag927
ag953
ag785
ag981
ag983
ag989
ag991
ag1001
ag1003
ag1019
ag1039
ag1051
ag1311
ag1055
ag181
ag1091
ag521
ag1167
ag715
ag1237
ag1185
ag1187
ag1221
ag1137
ag1183
ag1253
ag1273
ag1283
ag1293
ag1297
ag1327
ag849
ag553
ag411
ag1399
ag1445
ag947
ag1513
ag1517
asg113
(lp1685
g102
ag187
ag227
ag251
ag253
ag265
ag315
ag327
ag355
ag375
ag391
ag397
ag427
ag431
ag435
ag493
ag511
ag1113
ag1147
ag589
ag611
ag1469
ag697
ag701
ag703
ag709
ag775
ag743
ag747
ag737
ag771
ag799
ag845
ag1395
ag911
ag925
ag927
ag933
ag953
ag785
ag981
ag989
ag991
ag1003
ag1039
ag1051
ag1311
ag1055
ag1091
ag1291
ag521
ag1167
ag715
ag1237
ag1185
ag1187
ag1221
ag1137
ag1183
ag1253
ag1273
ag1283
ag1293
ag1297
ag1327
ag849
ag553
ag411
ag1399
ag1445
ag947
ag1513
ag1517
asg168
(lp1686
g102
ag187
ag189
ag221
ag223
ag227
ag251
ag253
ag265
ag289
ag315
ag327
ag375
ag391
ag397
ag423
ag427
ag431
ag435
ag493
ag1113
ag1147
ag589
ag611
ag1469
ag697
ag701
ag703
ag709
ag775
ag747
ag737
ag771
ag799
ag825
ag845
ag1395
ag911
ag925
ag927
ag929
ag953
ag965
ag981
ag989
ag991
ag1039
ag1051
ag1311
ag1055
ag1291
ag1153
ag1167
ag715
ag1237
ag1185
ag1187
ag1221
ag1137
ag1183
ag1253
ag1273
ag1283
ag1293
ag1297
ag1327
ag849
ag553
ag411
ag1399
ag1445
ag947
ag1513
ag1517
asg147
(lp1687
g102
ag187
ag189
ag227
ag251
ag253
ag265
ag315
ag327
ag375
ag391
ag397
ag427
ag431
ag435
ag493
ag1147
ag589
ag611
ag1469
ag697
ag701
ag703
ag709
ag775
ag747
ag737
ag771
ag799
ag845
ag1395
ag911
ag925
ag927
ag933
ag953
ag785
ag981
ag989
ag991
ag1039
ag1051
ag1311
ag1055
ag1291
ag1167
ag715
ag1237
ag1185
ag1187
ag1221
ag1137
ag1183
ag1253
ag1273
ag1283
ag1293
ag1297
ag1327
ag849
ag553
ag411
ag1399
ag1445
ag947
ag1513
ag1517
asg167
(lp1688
g102
ag187
ag189
ag221
ag223
ag227
ag251
ag253
ag265
ag289
ag315
ag327
ag375
ag391
ag397
ag423
ag427
ag431
ag435
ag493
ag511
ag1147
ag589
ag611
ag1469
ag697
ag701
ag703
ag709
ag775
ag747
ag737
ag771
ag799
ag825
ag845
ag1395
ag911
ag925
ag927
ag929
ag953
ag965
ag981
ag989
ag991
ag1001
ag1019
ag1039
ag1051
ag1311
ag1055
ag1291
ag1153
ag1167
ag715
ag1237
ag1185
ag1187
ag1221
ag1137
ag1183
ag1253
ag1273
ag1283
ag1293
ag1297
ag1327
ag849
ag553
ag411
ag1399
ag1445
ag947
ag1513
ag1517
asg93
(lp1689
g2
ag102
ag187
ag189
ag227
ag251
ag253
ag265
ag315
ag327
ag375
ag391
ag397
ag427
ag431
ag435
ag493
ag511
ag1113
ag1147
ag589
ag611
ag1469
ag675
ag697
ag701
ag703
ag709
ag775
ag747
ag737
ag771
ag799
ag845
ag911
ag925
ag927
ag933
ag953
ag785
ag981
ag983
ag989
ag991
ag1001
ag1003
ag1039
ag1051
ag1311
ag1055
ag1091
ag1291
ag521
ag1167
ag715
ag1237
ag1185
ag1187
ag1221
ag1137
ag1183
ag1253
ag1273
ag1283
ag1293
ag1297
ag1327
ag849
ag553
ag411
ag1399
ag1445
ag947
ag1513
ag1517
asg17
(lp1690
g2
ag102
ag187
ag227
ag251
ag253
ag265
ag289
ag307
ag315
ag327
ag375
ag391
ag397
ag427
ag431
ag435
ag493
ag1147
ag589
ag611
ag1469
ag675
ag683
ag697
ag701
ag703
ag709
ag1009
ag775
ag747
ag737
ag771
ag799
ag843
ag845
ag911
ag925
ag927
ag953
ag785
ag981
ag989
ag991
ag1001
ag1003
ag1019
ag1039
ag1051
ag1311
ag1055
ag181
ag1091
ag1291
ag521
ag1167
ag715
ag1237
ag1185
ag1187
ag1221
ag1137
ag1183
ag1253
ag1273
ag1283
ag1297
ag1327
ag849
ag553
ag411
ag1399
ag1445
ag947
ag1513
ag1517
asg29
(lp1691
g2
ag102
ag187
ag227
ag251
ag253
ag265
ag289
ag307
ag315
ag327
ag355
ag375
ag391
ag397
ag427
ag431
ag435
ag493
ag511
ag1147
ag589
ag611
ag1469
ag675
ag683
ag697
ag701
ag703
ag709
ag1009
ag775
ag747
ag737
ag771
ag799
ag843
ag845
ag1395
ag911
ag925
ag927
ag953
ag785
ag981
ag989
ag991
ag1001
ag1003
ag1019
ag1039
ag1051
ag1311
ag1055
ag181
ag1091
ag1291
ag521
ag1167
ag715
ag1237
ag1185
ag1187
ag1221
ag1137
ag1183
ag1253
ag1273
ag1283
ag1293
ag1297
ag1327
ag849
ag553
ag411
ag1399
ag1445
ag947
ag1513
ag1517
asg162
(lp1692
g102
ag187
ag189
ag227
ag251
ag253
ag265
ag315
ag375
ag391
ag397
ag427
ag431
ag435
ag493
ag1147
ag589
ag611
ag1469
ag697
ag701
ag703
ag709
ag775
ag743
ag747
ag737
ag771
ag799
ag845
ag911
ag925
ag927
ag929
ag953
ag785
ag981
ag983
ag989
ag991
ag1001
ag1039
ag1051
ag1311
ag1055
ag1291
ag1167
ag715
ag1237
ag1185
ag1187
ag1221
ag1137
ag1183
ag1253
ag1273
ag1283
ag1293
ag1297
ag1327
ag849
ag553
ag411
ag1399
ag1445
ag947
ag1513
ag1517
asg171
(lp1693
g102
ag187
ag189
ag223
ag227
ag251
ag253
ag265
ag289
ag315
ag327
ag375
ag391
ag397
ag427
ag431
ag435
ag493
ag1113
ag571
ag1147
ag589
ag611
ag1469
ag697
ag701
ag703
ag709
ag775
ag747
ag737
ag771
ag799
ag845
ag1395
ag911
ag925
ag927
ag929
ag953
ag965
ag981
ag989
ag991
ag1019
ag1039
ag1051
ag1311
ag1055
ag1291
ag1153
ag1167
ag715
ag1237
ag1185
ag1187
ag1221
ag1137
ag1183
ag1253
ag1273
ag1283
ag1293
ag1297
ag1327
ag849
ag553
ag411
ag1399
ag1445
ag947
ag1513
ag1517
asg136
(lp1694
g102
ag187
ag189
ag227
ag251
ag253
ag265
ag315
ag327
ag375
ag391
ag397
ag427
ag431
ag435
ag493
ag1147
ag589
ag611
ag1469
ag697
ag701
ag703
ag709
ag775
ag747
ag737
ag771
ag799
ag845
ag1395
ag911
ag925
ag927
ag953
ag785
ag981
ag983
ag989
ag991
ag1039
ag1051
ag1311
ag1055
ag1291
ag1167
ag715
ag1237
ag1185
ag1187
ag1221
ag1137
ag1183
ag1253
ag1273
ag1283
ag1293
ag1297
ag1327
ag849
ag553
ag411
ag1399
ag1445
ag947
ag1513
ag1517
asS'None, CT'
p1695
(lp1696
sg77
(lp1697
g2
ag102
ag187
ag251
ag253
ag265
ag289
ag307
ag315
ag327
ag355
ag369
ag375
ag391
ag397
ag427
ag431
ag435
ag493
ag511
ag1113
ag1147
ag589
ag633
ag1469
ag645
ag675
ag683
ag697
ag701
ag703
ag709
ag1009
ag775
ag747
ag751
ag737
ag771
ag799
ag843
ag845
ag911
ag925
ag927
ag953
ag785
ag981
ag983
ag989
ag991
ag1003
ag1019
ag1039
ag1051
ag1311
ag1055
ag181
ag1091
ag521
ag1167
ag715
ag1237
ag1185
ag1187
ag1221
ag1137
ag1183
ag1253
ag1273
ag1283
ag1293
ag1297
ag1327
ag849
ag553
ag411
ag1399
ag1445
ag947
ag1513
ag1517
asg130
(lp1698
g102
ag187
ag189
ag227
ag235
ag251
ag253
ag265
ag315
ag375
ag391
ag397
ag427
ag431
ag435
ag493
ag1147
ag589
ag611
ag1469
ag675
ag697
ag701
ag703
ag709
ag775
ag747
ag737
ag771
ag799
ag845
ag911
ag925
ag927
ag953
ag785
ag981
ag983
ag989
ag991
ag1039
ag1051
ag1311
ag1055
ag181
ag1291
ag1153
ag1167
ag715
ag1237
ag1185
ag1187
ag1221
ag1137
ag1183
ag1253
ag1273
ag1283
ag1293
ag1297
ag1327
ag849
ag553
ag411
ag1399
ag1445
ag947
ag1513
ag1517
asa.